	.text
	.file	"mas_blk_busy_idle_notify.c"
	.file	1 "/mnt/disk/jenkins/ci/workspace/chipset_pipeline_release/opensource/component_code/vendor/huawei/extra/build/build_script/kirin_kernel_release/kernel/include/linux/lockdep.h"
	.file	2 "/mnt/disk/jenkins/ci/workspace/chipset_pipeline_release/opensource/component_code/vendor/huawei/extra/build/build_script/kirin_kernel_release/kernel/block/mas_blk_busy_idle_notify.c"
	.file	3 "/mnt/disk/jenkins/ci/workspace/chipset_pipeline_release/opensource/component_code/vendor/huawei/extra/build/build_script/kirin_kernel_release/kernel/include/linux/blkdev.h"
	.file	4 "/mnt/disk/jenkins/ci/workspace/chipset_pipeline_release/opensource/component_code/vendor/huawei/extra/build/build_script/kirin_kernel_release/kernel/include/linux/kobject_ns.h"
	.file	5 "/mnt/disk/jenkins/ci/workspace/chipset_pipeline_release/opensource/component_code/vendor/huawei/extra/build/build_script/kirin_kernel_release/kernel/include/linux/hrtimer.h"
	.file	6 "/mnt/disk/jenkins/ci/workspace/chipset_pipeline_release/opensource/component_code/vendor/huawei/extra/build/build_script/kirin_kernel_release/kernel/include/linux/module.h"
	.file	7 "/mnt/disk/jenkins/ci/workspace/chipset_pipeline_release/opensource/component_code/vendor/huawei/extra/build/build_script/kirin_kernel_release/kernel/include/linux/quota.h"
	.file	8 "/mnt/disk/jenkins/ci/workspace/chipset_pipeline_release/opensource/component_code/vendor/huawei/extra/build/build_script/kirin_kernel_release/kernel/include/linux/fs.h"
	.file	9 "/mnt/disk/jenkins/ci/workspace/chipset_pipeline_release/opensource/component_code/vendor/huawei/extra/build/build_script/kirin_kernel_release/kernel/include/linux/pid.h"
	.file	10 "/mnt/disk/jenkins/ci/workspace/chipset_pipeline_release/opensource/component_code/vendor/huawei/extra/build/build_script/kirin_kernel_release/kernel/include/linux/device.h"
	.file	11 "/mnt/disk/jenkins/ci/workspace/chipset_pipeline_release/opensource/component_code/vendor/huawei/extra/build/build_script/kirin_kernel_release/kernel/include/linux/pm.h"
	.file	12 "/mnt/disk/jenkins/ci/workspace/chipset_pipeline_release/opensource/component_code/vendor/huawei/extra/build/build_script/kirin_kernel_release/kernel/include/linux/rcu_sync.h"
	.file	13 "/mnt/disk/jenkins/ci/workspace/chipset_pipeline_release/opensource/component_code/vendor/huawei/extra/build/build_script/kirin_kernel_release/kernel/include/linux/migrate_mode.h"
	.file	14 "/mnt/disk/jenkins/ci/workspace/chipset_pipeline_release/opensource/component_code/vendor/huawei/extra/build/build_script/kirin_kernel_release/kernel/include/linux/memremap.h"
	.file	15 "/mnt/disk/jenkins/ci/workspace/chipset_pipeline_release/opensource/component_code/vendor/huawei/extra/build/build_script/kirin_kernel_release/kernel/include/linux/mm.h"
	.file	16 "/mnt/disk/jenkins/ci/workspace/chipset_pipeline_release/opensource/component_code/vendor/huawei/extra/build/build_script/kirin_kernel_release/kernel/include/linux/restart_block.h"
	.file	17 "/mnt/disk/jenkins/ci/workspace/chipset_pipeline_release/opensource/component_code/vendor/huawei/extra/build/build_script/kirin_kernel_release/kernel/include/linux/elevator.h"
	.file	18 "/mnt/disk/jenkins/ci/workspace/chipset_pipeline_release/opensource/component_code/vendor/huawei/extra/build/build_script/kirin_kernel_release/kernel/block/mas_blk.h"
	.file	19 "/mnt/disk/jenkins/ci/workspace/chipset_pipeline_release/opensource/component_code/vendor/huawei/extra/build/build_script/kirin_kernel_release/kernel/include/linux/stddef.h"
	.file	20 "/mnt/disk/jenkins/ci/workspace/chipset_pipeline_release/opensource/component_code/vendor/huawei/extra/build/build_script/kirin_kernel_release/kernel/include/linux/workqueue.h"
	.file	21 "/mnt/disk/jenkins/ci/workspace/chipset_pipeline_release/opensource/component_code/vendor/huawei/extra/build/build_script/kirin_kernel_release/kernel/include/linux/slab.h"
	.file	22 "/mnt/disk/jenkins/ci/workspace/chipset_pipeline_release/opensource/component_code/vendor/huawei/extra/build/build_script/kirin_kernel_release/kernel/include/linux/types.h"
	.file	23 "/mnt/disk/jenkins/ci/workspace/chipset_pipeline_release/opensource/component_code/vendor/huawei/extra/build/build_script/kirin_kernel_release/kernel/block/mas_blk_busy_idle_notify.h"
	.file	24 "/mnt/disk/jenkins/ci/workspace/chipset_pipeline_release/opensource/component_code/vendor/huawei/extra/build/build_script/kirin_kernel_release/kernel/include/linux/timer.h"
	.file	25 "/mnt/disk/jenkins/ci/workspace/chipset_pipeline_release/opensource/component_code/vendor/huawei/extra/build/build_script/kirin_kernel_release/kernel/include/asm-generic/int-ll64.h"
	.file	26 "/mnt/disk/jenkins/ci/workspace/chipset_pipeline_release/opensource/component_code/vendor/huawei/extra/build/build_script/kirin_kernel_release/kernel/include/linux/notifier.h"
	.file	27 "/mnt/disk/jenkins/ci/workspace/chipset_pipeline_release/opensource/component_code/vendor/huawei/extra/build/build_script/kirin_kernel_release/kernel/include/linux/llist.h"
	.file	28 "/mnt/disk/jenkins/ci/workspace/chipset_pipeline_release/opensource/component_code/vendor/huawei/extra/build/build_script/kirin_kernel_release/kernel/include/linux/smp.h"
	.file	29 "/mnt/disk/jenkins/ci/workspace/chipset_pipeline_release/opensource/component_code/vendor/huawei/extra/build/build_script/kirin_kernel_release/kernel/arch/arm64/include/asm/spinlock_types.h"
	.file	30 "/mnt/disk/jenkins/ci/workspace/chipset_pipeline_release/opensource/component_code/vendor/huawei/extra/build/build_script/kirin_kernel_release/kernel/include/linux/spinlock_types.h"
	.file	31 "/mnt/disk/jenkins/ci/workspace/chipset_pipeline_release/opensource/component_code/vendor/huawei/extra/build/build_script/kirin_kernel_release/kernel/block/blk-mq.h"
	.file	32 "/mnt/disk/jenkins/ci/workspace/chipset_pipeline_release/opensource/component_code/vendor/huawei/extra/build/build_script/kirin_kernel_release/kernel/include/linux/kobject.h"
	.file	33 "/mnt/disk/jenkins/ci/workspace/chipset_pipeline_release/opensource/component_code/vendor/huawei/extra/build/build_script/kirin_kernel_release/kernel/include/uapi/asm-generic/posix_types.h"
	.file	34 "/mnt/disk/jenkins/ci/workspace/chipset_pipeline_release/opensource/component_code/vendor/huawei/extra/build/build_script/kirin_kernel_release/kernel/include/linux/sysfs.h"
	.file	35 "/mnt/disk/jenkins/ci/workspace/chipset_pipeline_release/opensource/component_code/vendor/huawei/extra/build/build_script/kirin_kernel_release/kernel/include/linux/kernfs.h"
	.file	36 "/mnt/disk/jenkins/ci/workspace/chipset_pipeline_release/opensource/component_code/vendor/huawei/extra/build/build_script/kirin_kernel_release/kernel/include/linux/rbtree.h"
	.file	37 "/mnt/disk/jenkins/ci/workspace/chipset_pipeline_release/opensource/component_code/vendor/huawei/extra/build/build_script/kirin_kernel_release/kernel/include/linux/radix-tree.h"
	.file	38 "/mnt/disk/jenkins/ci/workspace/chipset_pipeline_release/opensource/component_code/vendor/huawei/extra/build/build_script/kirin_kernel_release/kernel/include/linux/idr.h"
	.file	39 "/mnt/disk/jenkins/ci/workspace/chipset_pipeline_release/opensource/component_code/vendor/huawei/extra/build/build_script/kirin_kernel_release/kernel/include/linux/seq_file.h"
	.file	40 "/mnt/disk/jenkins/ci/workspace/chipset_pipeline_release/opensource/component_code/vendor/huawei/extra/build/build_script/kirin_kernel_release/kernel/include/asm-generic/atomic-long.h"
	.file	41 "/mnt/disk/jenkins/ci/workspace/chipset_pipeline_release/opensource/component_code/vendor/huawei/extra/build/build_script/kirin_kernel_release/kernel/include/linux/mutex.h"
	.file	42 "/mnt/disk/jenkins/ci/workspace/chipset_pipeline_release/opensource/component_code/vendor/huawei/extra/build/build_script/kirin_kernel_release/kernel/include/linux/osq_lock.h"
	.file	43 "/mnt/disk/jenkins/ci/workspace/chipset_pipeline_release/opensource/component_code/vendor/huawei/extra/build/build_script/kirin_kernel_release/kernel/arch/arm64/include/asm/thread_info.h"
	.file	44 "/mnt/disk/jenkins/ci/workspace/chipset_pipeline_release/opensource/component_code/vendor/huawei/extra/build/build_script/kirin_kernel_release/kernel/include/linux/sched.h"
	.file	45 "/mnt/disk/jenkins/ci/workspace/chipset_pipeline_release/opensource/component_code/vendor/huawei/extra/build/build_script/kirin_kernel_release/kernel/include/linux/cpumask.h"
	.file	46 "/mnt/disk/jenkins/ci/workspace/chipset_pipeline_release/opensource/component_code/vendor/huawei/extra/build/build_script/kirin_kernel_release/kernel/include/linux/timerqueue.h"
	.file	47 "/mnt/disk/jenkins/ci/workspace/chipset_pipeline_release/opensource/component_code/vendor/huawei/extra/build/build_script/kirin_kernel_release/kernel/include/linux/ktime.h"
	.file	48 "/mnt/disk/jenkins/ci/workspace/chipset_pipeline_release/opensource/component_code/vendor/huawei/extra/build/build_script/kirin_kernel_release/kernel/include/linux/seqlock.h"
	.file	49 "/mnt/disk/jenkins/ci/workspace/chipset_pipeline_release/opensource/component_code/vendor/huawei/extra/build/build_script/kirin_kernel_release/kernel/include/linux/plist.h"
	.file	50 "/mnt/disk/jenkins/ci/workspace/chipset_pipeline_release/opensource/component_code/vendor/huawei/extra/build/build_script/kirin_kernel_release/kernel/include/linux/mm_types.h"
	.file	51 "/mnt/disk/jenkins/ci/workspace/chipset_pipeline_release/opensource/component_code/vendor/huawei/extra/build/build_script/kirin_kernel_release/kernel/arch/arm64/include/asm/pgtable-types.h"
	.file	52 "/mnt/disk/jenkins/ci/workspace/chipset_pipeline_release/opensource/component_code/vendor/huawei/extra/build/build_script/kirin_kernel_release/kernel/include/asm-generic/pgtable-nop4d-hack.h"
	.file	53 "/mnt/disk/jenkins/ci/workspace/chipset_pipeline_release/opensource/component_code/vendor/huawei/extra/build/build_script/kirin_kernel_release/kernel/include/linux/uidgid.h"
	.file	54 "/mnt/disk/jenkins/ci/workspace/chipset_pipeline_release/opensource/component_code/vendor/huawei/extra/build/build_script/kirin_kernel_release/kernel/include/linux/dcache.h"
	.file	55 "/mnt/disk/jenkins/ci/workspace/chipset_pipeline_release/opensource/component_code/vendor/huawei/extra/build/build_script/kirin_kernel_release/kernel/include/linux/list_bl.h"
	.file	56 "/mnt/disk/jenkins/ci/workspace/chipset_pipeline_release/opensource/component_code/vendor/huawei/extra/build/build_script/kirin_kernel_release/kernel/include/linux/lockref.h"
	.file	57 "/mnt/disk/jenkins/ci/workspace/chipset_pipeline_release/opensource/component_code/vendor/huawei/extra/build/build_script/kirin_kernel_release/kernel/include/linux/path.h"
	.file	58 "/mnt/disk/jenkins/ci/workspace/chipset_pipeline_release/opensource/component_code/vendor/huawei/extra/build/build_script/kirin_kernel_release/kernel/include/uapi/asm-generic/int-ll64.h"
	.file	59 "/mnt/disk/jenkins/ci/workspace/chipset_pipeline_release/opensource/component_code/vendor/huawei/extra/build/build_script/kirin_kernel_release/kernel/include/linux/completion.h"
	.file	60 "/mnt/disk/jenkins/ci/workspace/chipset_pipeline_release/opensource/component_code/vendor/huawei/extra/build/build_script/kirin_kernel_release/kernel/include/linux/wait.h"
	.file	61 "/mnt/disk/jenkins/ci/workspace/chipset_pipeline_release/opensource/component_code/vendor/huawei/extra/build/build_script/kirin_kernel_release/kernel/include/linux/export.h"
	.file	62 "/mnt/disk/jenkins/ci/workspace/chipset_pipeline_release/opensource/component_code/vendor/huawei/extra/build/build_script/kirin_kernel_release/kernel/include/linux/cfi.h"
	.file	63 "/mnt/disk/jenkins/ci/workspace/chipset_pipeline_release/opensource/component_code/vendor/huawei/extra/build/build_script/kirin_kernel_release/kernel/include/linux/moduleparam.h"
	.file	64 "/mnt/disk/jenkins/ci/workspace/chipset_pipeline_release/opensource/component_code/vendor/huawei/extra/build/build_script/kirin_kernel_release/kernel/arch/arm64/include/asm/extable.h"
	.file	65 "/mnt/disk/jenkins/ci/workspace/chipset_pipeline_release/opensource/component_code/vendor/huawei/extra/build/build_script/kirin_kernel_release/kernel/include/linux/rbtree_latch.h"
	.file	66 "/mnt/disk/jenkins/ci/workspace/chipset_pipeline_release/opensource/component_code/vendor/huawei/extra/build/build_script/kirin_kernel_release/kernel/include/uapi/linux/elf.h"
	.file	67 "/mnt/disk/jenkins/ci/workspace/chipset_pipeline_release/opensource/component_code/vendor/huawei/extra/build/build_script/kirin_kernel_release/kernel/arch/arm64/include/asm/module.h"
	.file	68 "/mnt/disk/jenkins/ci/workspace/chipset_pipeline_release/opensource/component_code/vendor/huawei/extra/build/build_script/kirin_kernel_release/kernel/include/uapi/linux/types.h"
	.file	69 "/mnt/disk/jenkins/ci/workspace/chipset_pipeline_release/opensource/component_code/vendor/huawei/extra/build/build_script/kirin_kernel_release/kernel/include/asm-generic/bug.h"
	.file	70 "/mnt/disk/jenkins/ci/workspace/chipset_pipeline_release/opensource/component_code/vendor/huawei/extra/build/build_script/kirin_kernel_release/kernel/include/linux/tracepoint-defs.h"
	.file	71 "/mnt/disk/jenkins/ci/workspace/chipset_pipeline_release/opensource/component_code/vendor/huawei/extra/build/build_script/kirin_kernel_release/kernel/include/linux/jump_label.h"
	.file	72 "/mnt/disk/jenkins/ci/workspace/chipset_pipeline_release/opensource/component_code/vendor/huawei/extra/build/build_script/kirin_kernel_release/kernel/include/linux/tracepoint.h"
	.file	73 "/mnt/disk/jenkins/ci/workspace/chipset_pipeline_release/opensource/component_code/vendor/huawei/extra/build/build_script/kirin_kernel_release/kernel/include/linux/projid.h"
	.file	74 "/mnt/disk/jenkins/ci/workspace/chipset_pipeline_release/opensource/component_code/vendor/huawei/extra/build/build_script/kirin_kernel_release/kernel/include/linux/time64.h"
	.file	75 "/mnt/disk/jenkins/ci/workspace/chipset_pipeline_release/opensource/component_code/vendor/huawei/extra/build/build_script/kirin_kernel_release/kernel/include/linux/shrinker.h"
	.file	76 "/mnt/disk/jenkins/ci/workspace/chipset_pipeline_release/opensource/component_code/vendor/huawei/extra/build/build_script/kirin_kernel_release/kernel/include/linux/rwsem.h"
	.file	77 "/mnt/disk/jenkins/ci/workspace/chipset_pipeline_release/opensource/component_code/vendor/huawei/extra/build/build_script/kirin_kernel_release/kernel/include/linux/genhd.h"
	.file	78 "/mnt/disk/jenkins/ci/workspace/chipset_pipeline_release/opensource/component_code/vendor/huawei/extra/build/build_script/kirin_kernel_release/kernel/include/linux/uio.h"
	.file	79 "/mnt/disk/jenkins/ci/workspace/chipset_pipeline_release/opensource/component_code/vendor/huawei/extra/build/build_script/kirin_kernel_release/kernel/include/uapi/linux/uio.h"
	.file	80 "/mnt/disk/jenkins/ci/workspace/chipset_pipeline_release/opensource/component_code/vendor/huawei/extra/build/build_script/kirin_kernel_release/kernel/include/linux/bvec.h"
	.file	81 "/mnt/disk/jenkins/ci/workspace/chipset_pipeline_release/opensource/component_code/vendor/huawei/extra/build/build_script/kirin_kernel_release/kernel/include/linux/poll.h"
	.file	82 "/mnt/disk/jenkins/ci/workspace/chipset_pipeline_release/opensource/component_code/vendor/huawei/extra/build/build_script/kirin_kernel_release/kernel/include/linux/nfs_fs_i.h"
	.file	83 "/mnt/disk/jenkins/ci/workspace/chipset_pipeline_release/opensource/component_code/vendor/huawei/extra/build/build_script/kirin_kernel_release/kernel/include/linux/rwlock_types.h"
	.file	84 "/mnt/disk/jenkins/ci/workspace/chipset_pipeline_release/opensource/component_code/vendor/huawei/extra/build/build_script/kirin_kernel_release/kernel/include/linux/cred.h"
	.file	85 "/mnt/disk/jenkins/ci/workspace/chipset_pipeline_release/opensource/component_code/vendor/huawei/extra/build/build_script/kirin_kernel_release/kernel/include/linux/capability.h"
	.file	86 "/mnt/disk/jenkins/ci/workspace/chipset_pipeline_release/opensource/component_code/vendor/huawei/extra/build/build_script/kirin_kernel_release/kernel/include/linux/refcount.h"
	.file	87 "/mnt/disk/jenkins/ci/workspace/chipset_pipeline_release/opensource/component_code/vendor/huawei/extra/build/build_script/kirin_kernel_release/kernel/include/linux/key.h"
	.file	88 "/mnt/disk/jenkins/ci/workspace/chipset_pipeline_release/opensource/component_code/vendor/huawei/extra/build/build_script/kirin_kernel_release/kernel/include/linux/assoc_array.h"
	.file	89 "/mnt/disk/jenkins/ci/workspace/chipset_pipeline_release/opensource/component_code/vendor/huawei/extra/build/build_script/kirin_kernel_release/kernel/include/linux/sched/user.h"
	.file	90 "/mnt/disk/jenkins/ci/workspace/chipset_pipeline_release/opensource/component_code/vendor/huawei/extra/build/build_script/kirin_kernel_release/kernel/include/linux/errseq.h"
	.file	91 "/mnt/disk/jenkins/ci/workspace/chipset_pipeline_release/opensource/component_code/vendor/huawei/extra/build/build_script/kirin_kernel_release/kernel/include/linux/pm_wakeup.h"
	.file	92 "/mnt/disk/jenkins/ci/workspace/chipset_pipeline_release/opensource/component_code/vendor/huawei/extra/build/build_script/kirin_kernel_release/kernel/include/linux/pinctrl/devinfo.h"
	.file	93 "/mnt/disk/jenkins/ci/workspace/chipset_pipeline_release/opensource/component_code/vendor/huawei/extra/build/build_script/kirin_kernel_release/kernel/arch/arm64/include/asm/device.h"
	.file	94 "/mnt/disk/jenkins/ci/workspace/chipset_pipeline_release/opensource/component_code/vendor/huawei/extra/build/build_script/kirin_kernel_release/kernel/include/linux/klist.h"
	.file	95 "/mnt/disk/jenkins/ci/workspace/chipset_pipeline_release/opensource/component_code/vendor/huawei/extra/build/build_script/kirin_kernel_release/kernel/include/linux/kref.h"
	.file	96 "/mnt/disk/jenkins/ci/workspace/chipset_pipeline_release/opensource/component_code/vendor/huawei/extra/build/build_script/kirin_kernel_release/kernel/include/linux/percpu-refcount.h"
	.file	97 "/mnt/disk/jenkins/ci/workspace/chipset_pipeline_release/opensource/component_code/vendor/huawei/extra/build/build_script/kirin_kernel_release/kernel/include/linux/backing-dev-defs.h"
	.file	98 "/mnt/disk/jenkins/ci/workspace/chipset_pipeline_release/opensource/component_code/vendor/huawei/extra/build/build_script/kirin_kernel_release/kernel/include/linux/percpu_counter.h"
	.file	99 "/mnt/disk/jenkins/ci/workspace/chipset_pipeline_release/opensource/component_code/vendor/huawei/extra/build/build_script/kirin_kernel_release/kernel/include/linux/flex_proportions.h"
	.file	100 "/mnt/disk/jenkins/ci/workspace/chipset_pipeline_release/opensource/component_code/vendor/huawei/extra/build/build_script/kirin_kernel_release/kernel/include/linux/percpu-rwsem.h"
	.file	101 "/mnt/disk/jenkins/ci/workspace/chipset_pipeline_release/opensource/component_code/vendor/huawei/extra/build/build_script/kirin_kernel_release/kernel/include/linux/rcuwait.h"
	.file	102 "/mnt/disk/jenkins/ci/workspace/chipset_pipeline_release/opensource/component_code/vendor/huawei/extra/build/build_script/kirin_kernel_release/kernel/include/linux/uuid.h"
	.file	103 "/mnt/disk/jenkins/ci/workspace/chipset_pipeline_release/opensource/component_code/vendor/huawei/extra/build/build_script/kirin_kernel_release/kernel/include/linux/list_lru.h"
	.file	104 "/mnt/disk/jenkins/ci/workspace/chipset_pipeline_release/opensource/component_code/vendor/huawei/extra/build/build_script/kirin_kernel_release/kernel/include/linux/delayed_call.h"
	.file	105 "/mnt/disk/jenkins/ci/workspace/chipset_pipeline_release/opensource/component_code/vendor/huawei/extra/build/build_script/kirin_kernel_release/kernel/include/uapi/linux/time.h"
	.file	106 "/mnt/disk/jenkins/ci/workspace/chipset_pipeline_release/opensource/component_code/vendor/huawei/extra/build/build_script/kirin_kernel_release/kernel/include/linux/stat.h"
	.file	107 "/mnt/disk/jenkins/ci/workspace/chipset_pipeline_release/opensource/component_code/vendor/huawei/extra/build/build_script/kirin_kernel_release/kernel/include/uapi/linux/fiemap.h"
	.file	108 "/mnt/disk/jenkins/ci/workspace/chipset_pipeline_release/opensource/component_code/vendor/huawei/extra/build/build_script/kirin_kernel_release/kernel/include/linux/mmzone.h"
	.file	109 "/mnt/disk/jenkins/ci/workspace/chipset_pipeline_release/opensource/component_code/vendor/huawei/extra/build/build_script/kirin_kernel_release/kernel/include/linux/ioport.h"
	.file	110 "/mnt/disk/jenkins/ci/workspace/chipset_pipeline_release/opensource/component_code/vendor/huawei/extra/build/build_script/kirin_kernel_release/kernel/arch/arm64/include/asm/page.h"
	.file	111 "/mnt/disk/jenkins/ci/workspace/chipset_pipeline_release/opensource/component_code/vendor/huawei/extra/build/build_script/kirin_kernel_release/kernel/include/linux/mm_types_task.h"
	.file	112 "/mnt/disk/jenkins/ci/workspace/chipset_pipeline_release/opensource/component_code/vendor/huawei/extra/build/build_script/kirin_kernel_release/kernel/arch/arm64/include/asm/mmu.h"
	.file	113 "/mnt/disk/jenkins/ci/workspace/chipset_pipeline_release/opensource/component_code/vendor/huawei/extra/build/build_script/kirin_kernel_release/kernel/include/linux/uprobes.h"
	.file	114 "/mnt/disk/jenkins/ci/workspace/chipset_pipeline_release/opensource/component_code/vendor/huawei/extra/build/build_script/kirin_kernel_release/kernel/include/linux/xreclaimer_types.h"
	.file	115 "/mnt/disk/jenkins/ci/workspace/chipset_pipeline_release/opensource/component_code/vendor/huawei/extra/build/build_script/kirin_kernel_release/kernel/arch/arm64/include/asm/compat.h"
	.file	116 "/mnt/disk/jenkins/ci/workspace/chipset_pipeline_release/opensource/component_code/vendor/huawei/extra/build/build_script/kirin_kernel_release/kernel/include/uapi/asm-generic/poll.h"
	.file	117 "/mnt/disk/jenkins/ci/workspace/chipset_pipeline_release/opensource/component_code/vendor/huawei/extra/build/build_script/kirin_kernel_release/kernel/include/uapi/asm-generic/signal.h"
	.file	118 "/mnt/disk/jenkins/ci/workspace/chipset_pipeline_release/opensource/component_code/vendor/huawei/extra/build/build_script/kirin_kernel_release/kernel/include/linux/signal_types.h"
	.file	119 "/mnt/disk/jenkins/ci/workspace/chipset_pipeline_release/opensource/component_code/vendor/huawei/extra/build/build_script/kirin_kernel_release/kernel/include/linux/seccomp.h"
	.file	120 "/mnt/disk/jenkins/ci/workspace/chipset_pipeline_release/opensource/component_code/vendor/huawei/extra/build/build_script/kirin_kernel_release/kernel/include/linux/blk_types.h"
	.file	121 "/mnt/disk/jenkins/ci/workspace/chipset_pipeline_release/opensource/component_code/vendor/huawei/extra/build/build_script/kirin_kernel_release/kernel/include/linux/iocontext.h"
	.file	122 "/mnt/disk/jenkins/ci/workspace/chipset_pipeline_release/opensource/component_code/vendor/huawei/extra/build/build_script/kirin_kernel_release/kernel/include/linux/bio.h"
	.file	123 "/mnt/disk/jenkins/ci/workspace/chipset_pipeline_release/opensource/component_code/vendor/huawei/extra/build/build_script/kirin_kernel_release/kernel/include/linux/mempool.h"
	.file	124 "/mnt/disk/jenkins/ci/workspace/chipset_pipeline_release/opensource/component_code/vendor/huawei/extra/build/build_script/kirin_kernel_release/kernel/include/uapi/asm-generic/siginfo.h"
	.file	125 "/mnt/disk/jenkins/ci/workspace/chipset_pipeline_release/opensource/component_code/vendor/huawei/extra/build/build_script/kirin_kernel_release/kernel/include/linux/task_io_accounting.h"
	.file	126 "/mnt/disk/jenkins/ci/workspace/chipset_pipeline_release/opensource/component_code/vendor/huawei/extra/build/build_script/kirin_kernel_release/kernel/include/linux/nodemask.h"
	.file	127 "/mnt/disk/jenkins/ci/workspace/chipset_pipeline_release/opensource/component_code/vendor/huawei/extra/build/build_script/kirin_kernel_release/kernel/include/linux/compat.h"
	.file	128 "/mnt/disk/jenkins/ci/workspace/chipset_pipeline_release/opensource/component_code/vendor/huawei/extra/build/build_script/kirin_kernel_release/kernel/arch/arm64/include/asm/processor.h"
	.file	129 "/mnt/disk/jenkins/ci/workspace/chipset_pipeline_release/opensource/component_code/vendor/huawei/extra/build/build_script/kirin_kernel_release/kernel/block/mas_blk_busy_idle_notify.c"
	.file	130 "/mnt/disk/jenkins/ci/workspace/chipset_pipeline_release/opensource/component_code/vendor/huawei/extra/build/build_script/kirin_kernel_release/kernel/arch/arm64/include/uapi/asm/ptrace.h"
	.file	131 "/mnt/disk/jenkins/ci/workspace/chipset_pipeline_release/opensource/component_code/vendor/huawei/extra/build/build_script/kirin_kernel_release/kernel/arch/arm64/include/asm/fpsimd.h"
	.file	132 "/mnt/disk/jenkins/ci/workspace/chipset_pipeline_release/opensource/component_code/vendor/huawei/extra/build/build_script/kirin_kernel_release/kernel/include/linux/blk-mq.h"
	.file	133 "/mnt/disk/jenkins/ci/workspace/chipset_pipeline_release/opensource/component_code/vendor/huawei/extra/build/build_script/kirin_kernel_release/kernel/block/blk.h"
	.file	134 "/mnt/disk/jenkins/ci/workspace/chipset_pipeline_release/opensource/component_code/vendor/huawei/extra/build/build_script/kirin_kernel_release/kernel/include/linux/sbitmap.h"
	.file	135 "/mnt/disk/jenkins/ci/workspace/chipset_pipeline_release/opensource/component_code/vendor/huawei/extra/build/build_script/kirin_kernel_release/kernel/include/linux/srcutree.h"
	.file	136 "/mnt/disk/jenkins/ci/workspace/chipset_pipeline_release/opensource/component_code/vendor/huawei/extra/build/build_script/kirin_kernel_release/kernel/include/linux/rcu_segcblist.h"
	.file	137 "/mnt/disk/jenkins/ci/workspace/chipset_pipeline_release/opensource/component_code/vendor/huawei/extra/build/build_script/kirin_kernel_release/kernel/block/blk-stat.h"
	.file	138 "/mnt/disk/jenkins/ci/workspace/chipset_pipeline_release/opensource/component_code/vendor/huawei/extra/build/build_script/kirin_kernel_release/kernel/include/linux/bsg.h"
	.section	.text.mas_blk_busyidle_handler_latency_check_timer_expire,"ax",@progbits
	.hidden	mas_blk_busyidle_handler_latency_check_timer_expire // -- Begin function mas_blk_busyidle_handler_latency_check_timer_expire
	.globl	mas_blk_busyidle_handler_latency_check_timer_expire
	.p2align	2
	.type	mas_blk_busyidle_handler_latency_check_timer_expire,@function
mas_blk_busyidle_handler_latency_check_timer_expire: // @mas_blk_busyidle_handler_latency_check_timer_expire
.Lfunc_begin0:
	.loc	2 50 0                  // kernel/block/mas_blk_busy_idle_notify.c:50:0
	.cfi_sections .debug_frame
	.cfi_startproc
// %bb.0:
	//DEBUG_VALUE: mas_blk_busyidle_handler_latency_check_timer_expire:data <- $x0
	//DEBUG_VALUE: mas_blk_busyidle_handler_latency_check_timer_expire:data <- $x0
	stp	x29, x30, [sp, #-16]!   // 16-byte Folded Spill
	mov	x29, sp
	.cfi_def_cfa w29, 16
	.cfi_offset w30, -8
	.cfi_offset w29, -16
.Ltmp0:
	//DEBUG_VALUE: mas_blk_busyidle_handler_latency_check_timer_expire:nb <- $x0
	.loc	2 53 2 prologue_end     // kernel/block/mas_blk_busy_idle_notify.c:53:2
	add	x2, x0, #88             // =88
	adrp	x0, .L.str
.Ltmp1:
	adrp	x1, .L__func__.mas_blk_busyidle_handler_latency_check_timer_expire
	add	x0, x0, :lo12:.L.str
	add	x1, x1, :lo12:.L__func__.mas_blk_busyidle_handler_latency_check_timer_expire
	mov	w3, #1000
	bl	printk
	.loc	2 55 1                  // kernel/block/mas_blk_busy_idle_notify.c:55:1
	ldp	x29, x30, [sp], #16     // 16-byte Folded Reload
	ret
.Ltmp2:
.Lfunc_end0:
	.size	mas_blk_busyidle_handler_latency_check_timer_expire, .Lfunc_end0-mas_blk_busyidle_handler_latency_check_timer_expire
	.cfi_endproc
                                        // -- End function
	.section	.text.mas_blk_busyidle_notify_handler,"ax",@progbits
	.hidden	mas_blk_busyidle_notify_handler // -- Begin function mas_blk_busyidle_notify_handler
	.globl	mas_blk_busyidle_notify_handler
	.p2align	2
	.type	mas_blk_busyidle_notify_handler,@function
mas_blk_busyidle_notify_handler:        // @mas_blk_busyidle_notify_handler
.Lfunc_begin1:
	.loc	2 140 0                 // kernel/block/mas_blk_busy_idle_notify.c:140:0
	.cfi_startproc
// %bb.0:
	//DEBUG_VALUE: mas_blk_busyidle_notify_handler:nb <- $x0
	//DEBUG_VALUE: mas_blk_busyidle_notify_handler:event <- $x1
	//DEBUG_VALUE: mas_blk_busyidle_notify_handler:v <- $x2
	//DEBUG_VALUE: mas_blk_busyidle_notify_handler:nb <- $x0
	str	x23, [sp, #-64]!        // 8-byte Folded Spill
	stp	x22, x21, [sp, #16]     // 16-byte Folded Spill
	stp	x20, x19, [sp, #32]     // 16-byte Folded Spill
	stp	x29, x30, [sp, #48]     // 16-byte Folded Spill
	add	x29, sp, #48            // =48
	.cfi_def_cfa w29, 16
	.cfi_offset w30, -8
	.cfi_offset w29, -16
	.cfi_offset w19, -24
	.cfi_offset w20, -32
	.cfi_offset w21, -40
	.cfi_offset w22, -48
	.cfi_offset w23, -64
.Ltmp3:
	//DEBUG_VALUE: __mptr <- $x0
	//DEBUG_VALUE: mas_blk_busyidle_notify_handler:handler_result <- 0
	//DEBUG_VALUE: __mptr <- $x0
	.loc	2 147 6 prologue_end    // kernel/block/mas_blk_busy_idle_notify.c:147:6
	ldr	x8, [x0, #56]
.Ltmp4:
	.loc	2 145 56                // kernel/block/mas_blk_busy_idle_notify.c:145:56
	add	x19, x0, #24            // =24
.Ltmp5:
	//DEBUG_VALUE: mas_blk_busyidle_notify_handler:node <- $x19
	//DEBUG_VALUE: handle_busyidle_event:node <- $x19
	//DEBUG_VALUE: handle_fg_idle_event:node <- $x19
	//DEBUG_VALUE: handle_fg_busy_event:node <- $x19
	.loc	2 147 6                 // kernel/block/mas_blk_busy_idle_notify.c:147:6
	cbz	x8, .LBB1_19
.Ltmp6:
// %bb.1:
	//DEBUG_VALUE: handle_fg_busy_event:node <- $x19
	//DEBUG_VALUE: handle_fg_idle_event:node <- $x19
	//DEBUG_VALUE: handle_busyidle_event:node <- $x19
	//DEBUG_VALUE: mas_blk_busyidle_notify_handler:node <- $x19
	//DEBUG_VALUE: mas_blk_busyidle_notify_handler:v <- $x2
	//DEBUG_VALUE: mas_blk_busyidle_notify_handler:event <- $x1
	//DEBUG_VALUE: mas_blk_busyidle_notify_handler:nb <- $x0
	.loc	2 0 6 is_stmt 0         // kernel/block/mas_blk_busy_idle_notify.c:0:6
	mov	x22, x1
.Ltmp7:
	//DEBUG_VALUE: mas_blk_busyidle_notify_handler:event <- $x22
	sub	x23, x0, #64            // =64
.Ltmp8:
	//DEBUG_VALUE: mas_blk_busyidle_notify_handler:busyidle_nb <- $x23
	//DEBUG_VALUE: handle_fg_idle_event:nb <- $x23
	//DEBUG_VALUE: handle_fg_busy_event:nb <- $x23
	.loc	2 156 16 is_stmt 1      // kernel/block/mas_blk_busy_idle_notify.c:156:16
	bl	ktime_get
.Ltmp9:
	.loc	2 158 3                 // kernel/block/mas_blk_busy_idle_notify.c:158:3
	adrp	x8, jiffies
	ldr	x8, [x8, :lo12:jiffies]
	.loc	2 157 26                // kernel/block/mas_blk_busy_idle_notify.c:157:26
	add	x21, x23, #16           // =16
	.loc	2 156 16                // kernel/block/mas_blk_busy_idle_notify.c:156:16
	mov	x20, x0
.Ltmp10:
	//DEBUG_VALUE: mas_blk_busyidle_notify_handler:start_ktime <- $x20
	//DEBUG_VALUE: ktime_add_ms:kt <- $x20
	.loc	2 157 2                 // kernel/block/mas_blk_busy_idle_notify.c:157:2
	mov	x0, x21
	.loc	2 158 11                // kernel/block/mas_blk_busy_idle_notify.c:158:11
	add	x1, x8, #250            // =250
	.loc	2 157 2                 // kernel/block/mas_blk_busy_idle_notify.c:157:2
	bl	mod_timer
.Ltmp11:
	//DEBUG_VALUE: handle_busyidle_event:ret <- 0
	//DEBUG_VALUE: handle_busyidle_event:event <- $x22
	//DEBUG_VALUE: handle_busyidle_event:nb <- $x23
	.loc	2 103 2                 // kernel/block/mas_blk_busy_idle_notify.c:103:2
	cmp	x22, #3                 // =3
	b.hi	.LBB1_16
.Ltmp12:
// %bb.2:
	//DEBUG_VALUE: handle_busyidle_event:nb <- $x23
	//DEBUG_VALUE: handle_busyidle_event:event <- $x22
	//DEBUG_VALUE: ktime_add_ms:kt <- $x20
	//DEBUG_VALUE: mas_blk_busyidle_notify_handler:start_ktime <- $x20
	//DEBUG_VALUE: handle_fg_busy_event:nb <- $x23
	//DEBUG_VALUE: handle_fg_idle_event:nb <- $x23
	//DEBUG_VALUE: mas_blk_busyidle_notify_handler:busyidle_nb <- $x23
	//DEBUG_VALUE: mas_blk_busyidle_notify_handler:event <- $x22
	//DEBUG_VALUE: handle_fg_busy_event:node <- $x19
	//DEBUG_VALUE: handle_fg_idle_event:node <- $x19
	//DEBUG_VALUE: handle_busyidle_event:node <- $x19
	//DEBUG_VALUE: mas_blk_busyidle_notify_handler:node <- $x19
	.loc	2 0 2 is_stmt 0         // kernel/block/mas_blk_busy_idle_notify.c:0:2
	adrp	x8, .LJTI1_0
	add	x8, x8, :lo12:.LJTI1_0
	adr	x9, .LBB1_3
	ldrb	w10, [x8, x22]
	add	x9, x9, x10, lsl #2
	br	x9
.Ltmp13:
.LBB1_3:
	//DEBUG_VALUE: handle_busyidle_event:nb <- $x23
	//DEBUG_VALUE: handle_busyidle_event:event <- $x22
	//DEBUG_VALUE: mas_blk_busyidle_notify_handler:start_ktime <- $x20
	//DEBUG_VALUE: mas_blk_busyidle_notify_handler:busyidle_nb <- $x23
	//DEBUG_VALUE: mas_blk_busyidle_notify_handler:event <- $x22
	//DEBUG_VALUE: handle_busyidle_event:node <- $x19
	//DEBUG_VALUE: mas_blk_busyidle_notify_handler:node <- $x19
	.loc	2 115 7 is_stmt 1       // kernel/block/mas_blk_busy_idle_notify.c:115:7
	ldr	w8, [x23, #144]
.Ltmp14:
	.loc	2 115 7 is_stmt 0       // kernel/block/mas_blk_busy_idle_notify.c:115:7
	cmp	w8, #1                  // =1
	b.ne	.LBB1_16
.Ltmp15:
// %bb.4:
	//DEBUG_VALUE: handle_busyidle_event:nb <- $x23
	//DEBUG_VALUE: handle_busyidle_event:event <- $x22
	//DEBUG_VALUE: mas_blk_busyidle_notify_handler:start_ktime <- $x20
	//DEBUG_VALUE: mas_blk_busyidle_notify_handler:busyidle_nb <- $x23
	//DEBUG_VALUE: mas_blk_busyidle_notify_handler:event <- $x22
	//DEBUG_VALUE: handle_busyidle_event:node <- $x19
	//DEBUG_VALUE: mas_blk_busyidle_notify_handler:node <- $x19
	.loc	2 116 16 is_stmt 1      // kernel/block/mas_blk_busy_idle_notify.c:116:16
	ldr	x8, [x23, #120]
	.loc	2 116 10 is_stmt 0      // kernel/block/mas_blk_busy_idle_notify.c:116:10
	mov	x0, x19
	mov	w1, wzr
	blr	x8
.Ltmp16:
	//DEBUG_VALUE: handle_busyidle_event:ret <- $w0
	.loc	2 119 19 is_stmt 1      // kernel/block/mas_blk_busy_idle_notify.c:119:19
	str	wzr, [x23, #144]
.Ltmp17:
	//DEBUG_VALUE: handle_busyidle_event:ret <- $w0
	.loc	2 160 6                 // kernel/block/mas_blk_busy_idle_notify.c:160:6
	cmp	w0, #2                  // =2
	b.ne	.LBB1_16
	b	.LBB1_15
.Ltmp18:
.LBB1_5:
	//DEBUG_VALUE: handle_busyidle_event:nb <- $x23
	//DEBUG_VALUE: handle_busyidle_event:event <- $x22
	//DEBUG_VALUE: mas_blk_busyidle_notify_handler:start_ktime <- $x20
	//DEBUG_VALUE: mas_blk_busyidle_notify_handler:busyidle_nb <- $x23
	//DEBUG_VALUE: mas_blk_busyidle_notify_handler:event <- $x22
	//DEBUG_VALUE: handle_busyidle_event:node <- $x19
	//DEBUG_VALUE: mas_blk_busyidle_notify_handler:node <- $x19
	.loc	2 105 7                 // kernel/block/mas_blk_busy_idle_notify.c:105:7
	ldr	w8, [x23, #144]
.Ltmp19:
	.loc	2 105 7 is_stmt 0       // kernel/block/mas_blk_busy_idle_notify.c:105:7
	cbnz	w8, .LBB1_16
.Ltmp20:
// %bb.6:
	//DEBUG_VALUE: handle_busyidle_event:nb <- $x23
	//DEBUG_VALUE: handle_busyidle_event:event <- $x22
	//DEBUG_VALUE: mas_blk_busyidle_notify_handler:start_ktime <- $x20
	//DEBUG_VALUE: mas_blk_busyidle_notify_handler:busyidle_nb <- $x23
	//DEBUG_VALUE: mas_blk_busyidle_notify_handler:event <- $x22
	//DEBUG_VALUE: handle_busyidle_event:node <- $x19
	//DEBUG_VALUE: mas_blk_busyidle_notify_handler:node <- $x19
	.loc	2 106 16 is_stmt 1      // kernel/block/mas_blk_busy_idle_notify.c:106:16
	ldr	x8, [x23, #120]
	.loc	2 106 10 is_stmt 0      // kernel/block/mas_blk_busy_idle_notify.c:106:10
	orr	w1, wzr, #0x1
	mov	x0, x19
	orr	w22, wzr, #0x1
.Ltmp21:
	blr	x8
.Ltmp22:
	//DEBUG_VALUE: handle_busyidle_event:ret <- $w0
	.loc	2 110 8 is_stmt 1       // kernel/block/mas_blk_busy_idle_notify.c:110:8
	cmp	w0, #1                  // =1
	.loc	2 109 19                // kernel/block/mas_blk_busy_idle_notify.c:109:19
	str	w22, [x23, #144]
	.loc	2 110 8                 // kernel/block/mas_blk_busy_idle_notify.c:110:8
	b.ne	.LBB1_14
.Ltmp23:
.LBB1_7:
	//DEBUG_VALUE: handle_busyidle_event:nb <- $x23
	//DEBUG_VALUE: mas_blk_busyidle_notify_handler:start_ktime <- $x20
	//DEBUG_VALUE: mas_blk_busyidle_notify_handler:busyidle_nb <- $x23
	//DEBUG_VALUE: handle_busyidle_event:node <- $x19
	//DEBUG_VALUE: mas_blk_busyidle_notify_handler:node <- $x19
	.loc	2 0 8 is_stmt 0         // kernel/block/mas_blk_busy_idle_notify.c:0:8
	mov	w22, #32769
	b	.LBB1_17
.Ltmp24:
.LBB1_8:
	//DEBUG_VALUE: handle_busyidle_event:nb <- $x23
	//DEBUG_VALUE: handle_busyidle_event:event <- $x22
	//DEBUG_VALUE: mas_blk_busyidle_notify_handler:start_ktime <- $x20
	//DEBUG_VALUE: handle_fg_busy_event:nb <- $x23
	//DEBUG_VALUE: mas_blk_busyidle_notify_handler:busyidle_nb <- $x23
	//DEBUG_VALUE: mas_blk_busyidle_notify_handler:event <- $x22
	//DEBUG_VALUE: handle_fg_busy_event:node <- $x19
	//DEBUG_VALUE: handle_busyidle_event:node <- $x19
	//DEBUG_VALUE: mas_blk_busyidle_notify_handler:node <- $x19
	//DEBUG_VALUE: handle_fg_busy_event:ret <- 0
	.loc	2 83 34 is_stmt 1       // kernel/block/mas_blk_busy_idle_notify.c:83:34
	ldr	x8, [x23, #136]
.Ltmp25:
	//DEBUG_VALUE: handle_fg_busy_event:lld <- $x8
	.loc	2 85 48                 // kernel/block/mas_blk_busy_idle_notify.c:85:48
	ldrb	w8, [x8, #25]
.Ltmp26:
	tbz	w8, #0, .LBB1_16
.Ltmp27:
// %bb.9:
	//DEBUG_VALUE: handle_busyidle_event:nb <- $x23
	//DEBUG_VALUE: handle_busyidle_event:event <- $x22
	//DEBUG_VALUE: mas_blk_busyidle_notify_handler:start_ktime <- $x20
	//DEBUG_VALUE: handle_fg_busy_event:nb <- $x23
	//DEBUG_VALUE: mas_blk_busyidle_notify_handler:busyidle_nb <- $x23
	//DEBUG_VALUE: mas_blk_busyidle_notify_handler:event <- $x22
	//DEBUG_VALUE: handle_fg_busy_event:node <- $x19
	//DEBUG_VALUE: handle_busyidle_event:node <- $x19
	//DEBUG_VALUE: mas_blk_busyidle_notify_handler:node <- $x19
	.loc	2 86 9                  // kernel/block/mas_blk_busy_idle_notify.c:86:9
	ldr	w8, [x23, #148]
.Ltmp28:
	.loc	2 85 6                  // kernel/block/mas_blk_busy_idle_notify.c:85:6
	cmp	w8, #1                  // =1
	b.ne	.LBB1_16
.Ltmp29:
// %bb.10:
	//DEBUG_VALUE: handle_busyidle_event:nb <- $x23
	//DEBUG_VALUE: handle_busyidle_event:event <- $x22
	//DEBUG_VALUE: mas_blk_busyidle_notify_handler:start_ktime <- $x20
	//DEBUG_VALUE: handle_fg_busy_event:nb <- $x23
	//DEBUG_VALUE: mas_blk_busyidle_notify_handler:busyidle_nb <- $x23
	//DEBUG_VALUE: mas_blk_busyidle_notify_handler:event <- $x22
	//DEBUG_VALUE: handle_fg_busy_event:node <- $x19
	//DEBUG_VALUE: handle_busyidle_event:node <- $x19
	//DEBUG_VALUE: mas_blk_busyidle_notify_handler:node <- $x19
	.loc	2 87 15                 // kernel/block/mas_blk_busy_idle_notify.c:87:15
	ldr	x8, [x23, #120]
	.loc	2 87 9 is_stmt 0        // kernel/block/mas_blk_busy_idle_notify.c:87:9
	orr	w1, wzr, #0x2
	mov	x0, x19
	blr	x8
.Ltmp30:
	//DEBUG_VALUE: handle_fg_busy_event:ret <- $w0
	.loc	2 90 24 is_stmt 1       // kernel/block/mas_blk_busy_idle_notify.c:90:24
	str	wzr, [x23, #148]
.Ltmp31:
	//DEBUG_VALUE: handle_busyidle_event:ret <- $w0
	.loc	2 160 6                 // kernel/block/mas_blk_busy_idle_notify.c:160:6
	cmp	w0, #2                  // =2
	b.ne	.LBB1_16
	b	.LBB1_15
.Ltmp32:
.LBB1_11:
	//DEBUG_VALUE: handle_busyidle_event:nb <- $x23
	//DEBUG_VALUE: handle_busyidle_event:event <- $x22
	//DEBUG_VALUE: mas_blk_busyidle_notify_handler:start_ktime <- $x20
	//DEBUG_VALUE: handle_fg_idle_event:nb <- $x23
	//DEBUG_VALUE: mas_blk_busyidle_notify_handler:busyidle_nb <- $x23
	//DEBUG_VALUE: mas_blk_busyidle_notify_handler:event <- $x22
	//DEBUG_VALUE: handle_fg_idle_event:node <- $x19
	//DEBUG_VALUE: handle_busyidle_event:node <- $x19
	//DEBUG_VALUE: mas_blk_busyidle_notify_handler:node <- $x19
	//DEBUG_VALUE: handle_fg_idle_event:ret <- 0
	.loc	2 64 34                 // kernel/block/mas_blk_busy_idle_notify.c:64:34
	ldr	x8, [x23, #136]
.Ltmp33:
	//DEBUG_VALUE: handle_fg_idle_event:lld <- $x8
	.loc	2 66 48                 // kernel/block/mas_blk_busy_idle_notify.c:66:48
	ldrb	w8, [x8, #25]
.Ltmp34:
	tbz	w8, #0, .LBB1_16
.Ltmp35:
// %bb.12:
	//DEBUG_VALUE: handle_busyidle_event:nb <- $x23
	//DEBUG_VALUE: handle_busyidle_event:event <- $x22
	//DEBUG_VALUE: mas_blk_busyidle_notify_handler:start_ktime <- $x20
	//DEBUG_VALUE: handle_fg_idle_event:nb <- $x23
	//DEBUG_VALUE: mas_blk_busyidle_notify_handler:busyidle_nb <- $x23
	//DEBUG_VALUE: mas_blk_busyidle_notify_handler:event <- $x22
	//DEBUG_VALUE: handle_fg_idle_event:node <- $x19
	//DEBUG_VALUE: handle_busyidle_event:node <- $x19
	//DEBUG_VALUE: mas_blk_busyidle_notify_handler:node <- $x19
	.loc	2 67 9                  // kernel/block/mas_blk_busy_idle_notify.c:67:9
	ldr	w8, [x23, #148]
.Ltmp36:
	.loc	2 66 6                  // kernel/block/mas_blk_busy_idle_notify.c:66:6
	cbnz	w8, .LBB1_16
.Ltmp37:
// %bb.13:
	//DEBUG_VALUE: handle_busyidle_event:nb <- $x23
	//DEBUG_VALUE: handle_busyidle_event:event <- $x22
	//DEBUG_VALUE: mas_blk_busyidle_notify_handler:start_ktime <- $x20
	//DEBUG_VALUE: handle_fg_idle_event:nb <- $x23
	//DEBUG_VALUE: mas_blk_busyidle_notify_handler:busyidle_nb <- $x23
	//DEBUG_VALUE: mas_blk_busyidle_notify_handler:event <- $x22
	//DEBUG_VALUE: handle_fg_idle_event:node <- $x19
	//DEBUG_VALUE: handle_busyidle_event:node <- $x19
	//DEBUG_VALUE: mas_blk_busyidle_notify_handler:node <- $x19
	.loc	2 68 15                 // kernel/block/mas_blk_busy_idle_notify.c:68:15
	ldr	x8, [x23, #120]
	.loc	2 68 9 is_stmt 0        // kernel/block/mas_blk_busy_idle_notify.c:68:9
	orr	w1, wzr, #0x3
	mov	x0, x19
	blr	x8
.Ltmp38:
	//DEBUG_VALUE: handle_fg_idle_event:ret <- $w0
	.loc	2 0 9                   // kernel/block/mas_blk_busy_idle_notify.c:0:9
	orr	w8, wzr, #0x1
	.loc	2 72 7 is_stmt 1        // kernel/block/mas_blk_busy_idle_notify.c:72:7
	cmp	w0, #1                  // =1
	.loc	2 71 24                 // kernel/block/mas_blk_busy_idle_notify.c:71:24
	str	w8, [x23, #148]
	.loc	2 72 7                  // kernel/block/mas_blk_busy_idle_notify.c:72:7
	b.eq	.LBB1_7
.Ltmp39:
.LBB1_14:
	//DEBUG_VALUE: handle_busyidle_event:nb <- $x23
	//DEBUG_VALUE: mas_blk_busyidle_notify_handler:start_ktime <- $x20
	//DEBUG_VALUE: mas_blk_busyidle_notify_handler:busyidle_nb <- $x23
	//DEBUG_VALUE: handle_busyidle_event:node <- $x19
	//DEBUG_VALUE: mas_blk_busyidle_notify_handler:node <- $x19
	//DEBUG_VALUE: handle_busyidle_event:ret <- $w0
	.loc	2 160 6                 // kernel/block/mas_blk_busy_idle_notify.c:160:6
	cmp	w0, #2                  // =2
	b.ne	.LBB1_16
.Ltmp40:
.LBB1_15:
	//DEBUG_VALUE: mas_blk_busyidle_notify_handler:start_ktime <- $x20
	//DEBUG_VALUE: mas_blk_busyidle_notify_handler:busyidle_nb <- $x23
	//DEBUG_VALUE: mas_blk_busyidle_notify_handler:node <- $x19
	.loc	2 162 3                 // kernel/block/mas_blk_busy_idle_notify.c:162:3
	adrp	x0, .L.str.2
	adrp	x1, .L__func__.mas_blk_busyidle_notify_handler
	add	x0, x0, :lo12:.L.str.2
	add	x1, x1, :lo12:.L__func__.mas_blk_busyidle_notify_handler
	mov	x2, x19
	bl	printk
.Ltmp41:
.LBB1_16:
	//DEBUG_VALUE: mas_blk_busyidle_notify_handler:start_ktime <- $x20
	//DEBUG_VALUE: mas_blk_busyidle_notify_handler:busyidle_nb <- $x23
	//DEBUG_VALUE: mas_blk_busyidle_notify_handler:node <- $x19
	.loc	2 0 3 is_stmt 0         // kernel/block/mas_blk_busy_idle_notify.c:0:3
	mov	w22, wzr
.Ltmp42:
.LBB1_17:
	//DEBUG_VALUE: mas_blk_busyidle_notify_handler:start_ktime <- $x20
	//DEBUG_VALUE: mas_blk_busyidle_notify_handler:busyidle_nb <- $x23
	//DEBUG_VALUE: mas_blk_busyidle_notify_handler:node <- $x19
	.loc	2 168 2 is_stmt 1       // kernel/block/mas_blk_busy_idle_notify.c:168:2
	mov	x0, x21
	bl	del_timer_sync
.Ltmp43:
	.loc	2 169 6                 // kernel/block/mas_blk_busy_idle_notify.c:169:6
	bl	ktime_get
.Ltmp44:
	//DEBUG_VALUE: ktime_after:cmp1 <- $x0
	//DEBUG_VALUE: ktime_compare:cmp1 <- $x0
	.loc	2 0 6 is_stmt 0         // kernel/block/mas_blk_busy_idle_notify.c:0:6
	mov	w8, #38528
	movk	w8, #152, lsl #16
.Ltmp45:
	//DEBUG_VALUE: ktime_add_ms:msec <- 10
	.loc	47 200 9 is_stmt 1      // kernel/include/linux/ktime.h:200:9
	add	x8, x20, x8
.Ltmp46:
	//DEBUG_VALUE: ktime_compare:cmp2 <- $x8
	//DEBUG_VALUE: ktime_after:cmp2 <- $x8
	.loc	2 169 6                 // kernel/block/mas_blk_busy_idle_notify.c:169:6
	cmp	x0, x8
	b.gt	.LBB1_20
.Ltmp47:
.LBB1_18:
	//DEBUG_VALUE: mas_blk_busyidle_notify_handler:node <- $x19
	.loc	2 176 1                 // kernel/block/mas_blk_busy_idle_notify.c:176:1
	mov	w0, w22
	ldp	x29, x30, [sp, #48]     // 16-byte Folded Reload
	ldp	x20, x19, [sp, #32]     // 16-byte Folded Reload
.Ltmp48:
	ldp	x22, x21, [sp, #16]     // 16-byte Folded Reload
	ldr	x23, [sp], #64          // 8-byte Folded Reload
	ret
.LBB1_19:
.Ltmp49:
	//DEBUG_VALUE: mas_blk_busyidle_notify_handler:node <- $x19
	//DEBUG_VALUE: mas_blk_busyidle_notify_handler:v <- $x2
	//DEBUG_VALUE: mas_blk_busyidle_notify_handler:event <- $x1
	//DEBUG_VALUE: mas_blk_busyidle_notify_handler:nb <- $x0
	.loc	2 148 3                 // kernel/block/mas_blk_busy_idle_notify.c:148:3
	adrp	x0, .L.str.1
.Ltmp50:
	adrp	x1, .L__func__.mas_blk_busyidle_notify_handler
.Ltmp51:
	add	x0, x0, :lo12:.L.str.1
	add	x1, x1, :lo12:.L__func__.mas_blk_busyidle_notify_handler
	mov	x2, x19
.Ltmp52:
	bl	printk
.Ltmp53:
	.loc	2 0 0 is_stmt 0         // kernel/block/mas_blk_busy_idle_notify.c:0:0
	mov	w22, wzr
	b	.LBB1_18
.Ltmp54:
.LBB1_20:
	//DEBUG_VALUE: mas_blk_busyidle_notify_handler:start_ktime <- $x20
	//DEBUG_VALUE: mas_blk_busyidle_notify_handler:busyidle_nb <- $x23
	//DEBUG_VALUE: mas_blk_busyidle_notify_handler:node <- $x19
	.loc	2 171 3 is_stmt 1       // kernel/block/mas_blk_busy_idle_notify.c:171:3
	bl	ktime_get
	mov	x9, #13531
	movk	x9, #55222, lsl #16
	movk	x9, #56962, lsl #32
	sub	x8, x0, x20
	movk	x9, #17179, lsl #48
.Ltmp55:
	//DEBUG_VALUE: ktime_divns:div <- 1000000
	//DEBUG_VALUE: ktime_divns:kt <- $x8
	//DEBUG_VALUE: ktime_to_ms:kt <- $x8
	.loc	47 169 12               // kernel/include/linux/ktime.h:169:12
	smulh	x8, x8, x9
.Ltmp56:
	asr	x9, x8, #18
.Ltmp57:
	.loc	2 171 3                 // kernel/block/mas_blk_busy_idle_notify.c:171:3
	adrp	x0, .L.str.3
	adrp	x1, .L__func__.mas_blk_busyidle_notify_handler
.Ltmp58:
	.loc	47 169 12               // kernel/include/linux/ktime.h:169:12
	add	x3, x9, x8, lsr #63
.Ltmp59:
	.loc	2 171 3                 // kernel/block/mas_blk_busy_idle_notify.c:171:3
	add	x0, x0, :lo12:.L.str.3
	add	x1, x1, :lo12:.L__func__.mas_blk_busyidle_notify_handler
	mov	x2, x19
	bl	printk
	b	.LBB1_18
.Ltmp60:
.Lfunc_end1:
	.size	mas_blk_busyidle_notify_handler, .Lfunc_end1-mas_blk_busyidle_notify_handler
	.cfi_endproc
	.section	.rodata.mas_blk_busyidle_notify_handler,"a",@progbits
.LJTI1_0:
	.byte	(.LBB1_3-.LBB1_3)>>2
	.byte	(.LBB1_5-.LBB1_3)>>2
	.byte	(.LBB1_8-.LBB1_3)>>2
	.byte	(.LBB1_11-.LBB1_3)>>2
                                        // -- End function
	.section	.text.blk_lld_fg_io_idle_notify,"ax",@progbits
	.hidden	blk_lld_fg_io_idle_notify // -- Begin function blk_lld_fg_io_idle_notify
	.globl	blk_lld_fg_io_idle_notify
	.p2align	2
	.type	blk_lld_fg_io_idle_notify,@function
blk_lld_fg_io_idle_notify:              // @blk_lld_fg_io_idle_notify
.Lfunc_begin2:
	.loc	2 369 0                 // kernel/block/mas_blk_busy_idle_notify.c:369:0
	.cfi_startproc
// %bb.0:
	//DEBUG_VALUE: blk_lld_fg_io_idle_notify:lld <- $x0
	//DEBUG_VALUE: blk_lld_fg_io_idle_notify:lld <- $x0
	.loc	2 370 6 prologue_end    // kernel/block/mas_blk_busy_idle_notify.c:370:6
	ldr	w8, [x0]
.Ltmp61:
	.loc	2 370 6 is_stmt 0       // kernel/block/mas_blk_busy_idle_notify.c:370:6
	cmp	w8, #122                // =122
	b.ne	.LBB2_2
.Ltmp62:
// %bb.1:
	//DEBUG_VALUE: blk_lld_fg_io_idle_notify:lld <- $x0
	stp	x20, x19, [sp, #-32]!   // 16-byte Folded Spill
	stp	x29, x30, [sp, #16]     // 16-byte Folded Spill
	add	x29, sp, #16            // =16
	.cfi_def_cfa w29, 16
	.cfi_offset w30, -8
	.cfi_offset w29, -16
	.cfi_offset w19, -24
	.cfi_offset w20, -32
.Ltmp63:
	.loc	2 371 22 is_stmt 1      // kernel/block/mas_blk_busy_idle_notify.c:371:22
	adrp	x8, blk_fg_io_idle_notify_workqueue
	ldr	x19, [x8, :lo12:blk_fg_io_idle_notify_workqueue]
	.loc	2 373 35                // kernel/block/mas_blk_busy_idle_notify.c:373:35
	ldr	w8, [x0, #1424]
	.loc	2 372 19                // kernel/block/mas_blk_busy_idle_notify.c:372:19
	add	x20, x0, #1328          // =1328
.Ltmp64:
	//DEBUG_VALUE: msecs_to_jiffies:m <- $w8
	.file	139 "/mnt/disk/jenkins/ci/workspace/chipset_pipeline_release/opensource/component_code/vendor/huawei/extra/build/build_script/kirin_kernel_release/kernel/include/linux/jiffies.h"
	.loc	139 370 10              // kernel/include/linux/jiffies.h:370:10
	mov	w0, w8
.Ltmp65:
	bl	__msecs_to_jiffies
.Ltmp66:
	mov	x3, x0
.Ltmp67:
	//DEBUG_VALUE: queue_delayed_work:delay <- $x3
	//DEBUG_VALUE: queue_delayed_work:dwork <- $x20
	//DEBUG_VALUE: queue_delayed_work:wq <- $x19
	.loc	20 506 9                // kernel/include/linux/workqueue.h:506:9
	orr	w0, wzr, #0x8
	mov	x1, x19
	mov	x2, x20
	bl	queue_delayed_work_on
.Ltmp68:
	.loc	20 0 9 is_stmt 0        // kernel/include/linux/workqueue.h:0:9
	ldp	x29, x30, [sp, #16]     // 16-byte Folded Reload
	ldp	x20, x19, [sp], #32     // 16-byte Folded Reload
.Ltmp69:
.LBB2_2:
	.loc	2 374 1 is_stmt 1       // kernel/block/mas_blk_busy_idle_notify.c:374:1
	ret
.Ltmp70:
.Lfunc_end2:
	.size	blk_lld_fg_io_idle_notify, .Lfunc_end2-blk_lld_fg_io_idle_notify
	.cfi_endproc
                                        // -- End function
	.section	.text.mas_blk_idle_notify_work,"ax",@progbits
	.hidden	mas_blk_idle_notify_work // -- Begin function mas_blk_idle_notify_work
	.globl	mas_blk_idle_notify_work
	.p2align	2
	.type	mas_blk_idle_notify_work,@function
mas_blk_idle_notify_work:               // @mas_blk_idle_notify_work
.Lfunc_begin3:
	.loc	2 424 0                 // kernel/block/mas_blk_busy_idle_notify.c:424:0
	.cfi_startproc
// %bb.0:
	//DEBUG_VALUE: mas_blk_idle_notify_work:work <- $x0
	stp	x20, x19, [sp, #-32]!   // 16-byte Folded Spill
	stp	x29, x30, [sp, #16]     // 16-byte Folded Spill
	add	x29, sp, #16            // =16
	.cfi_def_cfa w29, 16
	.cfi_offset w30, -8
	.cfi_offset w29, -16
	.cfi_offset w19, -24
	.cfi_offset w20, -32
.Ltmp71:
	//DEBUG_VALUE: __mptr <- $x0
	mov	x20, x0
.Ltmp72:
	//DEBUG_VALUE: mas_blk_idle_notify_work:blk_idle <- $x20
	//DEBUG_VALUE: blk_busy_to_idle:blk_idle <- $x20
	//DEBUG_VALUE: __mptr <- $x20
	//DEBUG_VALUE: mas_blk_idle_notify_work:work <- $x20
	.loc	2 429 16 prologue_end   // kernel/block/mas_blk_busy_idle_notify.c:429:16
	ldrb	w8, [x20, #-8]!
.Ltmp73:
	.loc	2 429 6 is_stmt 0       // kernel/block/mas_blk_busy_idle_notify.c:429:6
	cbz	w8, .LBB3_2
// %bb.1:
.Ltmp74:
	//DEBUG_VALUE: __write_once_size:res <- undef
	//DEBUG_VALUE: __write_once_size:size <- 4
	//DEBUG_VALUE: __write_once_size:p <- [DW_OP_plus_uconst 208, DW_OP_stack_value] $x20
	.file	140 "/mnt/disk/jenkins/ci/workspace/chipset_pipeline_release/opensource/component_code/vendor/huawei/extra/build/build_script/kirin_kernel_release/kernel/include/linux/compiler.h"
	.loc	140 209 31 is_stmt 1    // kernel/include/linux/compiler.h:209:31
	str	wzr, [x20, #208]
.Ltmp75:
.LBB3_2:
	.loc	2 432 24                // kernel/block/mas_blk_busy_idle_notify.c:432:24
	add	x19, x20, #216          // =216
	.loc	2 432 2 is_stmt 0       // kernel/block/mas_blk_busy_idle_notify.c:432:2
	mov	x0, x19
	bl	mutex_lock
.Ltmp76:
	//DEBUG_VALUE: __read_once_size:p <- [DW_OP_plus_uconst 208, DW_OP_stack_value] $x20
	//DEBUG_VALUE: __read_once_size:size <- 4
	//DEBUG_VALUE: __read_once_size:res <- undef
	.loc	140 183 2 is_stmt 1     // kernel/include/linux/compiler.h:183:2
	ldr	w8, [x20, #208]
.Ltmp77:
	.loc	2 433 40                // kernel/block/mas_blk_busy_idle_notify.c:433:40
	cbnz	w8, .LBB3_5
.Ltmp78:
// %bb.3:
	.loc	2 434 14                // kernel/block/mas_blk_busy_idle_notify.c:434:14
	ldr	w8, [x20, #280]
.Ltmp79:
	.loc	2 433 6                 // kernel/block/mas_blk_busy_idle_notify.c:433:6
	cmp	w8, #1                  // =1
	b.eq	.LBB3_5
// %bb.4:
	.loc	2 0 6 is_stmt 0         // kernel/block/mas_blk_busy_idle_notify.c:0:6
	orr	w8, wzr, #0x1
.Ltmp80:
	.loc	2 343 42 is_stmt 1      // kernel/block/mas_blk_busy_idle_notify.c:343:42
	add	x0, x20, #128           // =128
	.loc	2 343 2 is_stmt 0       // kernel/block/mas_blk_busy_idle_notify.c:343:2
	orr	w1, wzr, #0x1
	mov	x2, xzr
	.loc	2 333 23 is_stmt 1      // kernel/block/mas_blk_busy_idle_notify.c:333:23
	str	w8, [x20, #280]
	.loc	2 343 2                 // kernel/block/mas_blk_busy_idle_notify.c:343:2
	bl	blocking_notifier_call_chain
.Ltmp81:
.LBB3_5:
	.loc	2 436 2                 // kernel/block/mas_blk_busy_idle_notify.c:436:2
	mov	x0, x19
	bl	mutex_unlock
	.loc	2 437 1                 // kernel/block/mas_blk_busy_idle_notify.c:437:1
	ldp	x29, x30, [sp, #16]     // 16-byte Folded Reload
	ldp	x20, x19, [sp], #32     // 16-byte Folded Reload
	ret
.Ltmp82:
.Lfunc_end3:
	.size	mas_blk_idle_notify_work, .Lfunc_end3-mas_blk_idle_notify_work
	.cfi_endproc
                                        // -- End function
	.section	.text.blk_lld_idle_notify,"ax",@progbits
	.hidden	blk_lld_idle_notify     // -- Begin function blk_lld_idle_notify
	.globl	blk_lld_idle_notify
	.p2align	2
	.type	blk_lld_idle_notify,@function
blk_lld_idle_notify:                    // @blk_lld_idle_notify
.Lfunc_begin4:
	.loc	2 440 0                 // kernel/block/mas_blk_busy_idle_notify.c:440:0
	.cfi_startproc
// %bb.0:
	//DEBUG_VALUE: blk_lld_idle_notify:lld <- $x0
	//DEBUG_VALUE: blk_lld_idle_notify:lld <- $x0
	.loc	2 441 6 prologue_end    // kernel/block/mas_blk_busy_idle_notify.c:441:6
	ldr	w8, [x0]
.Ltmp83:
	.loc	2 441 6 is_stmt 0       // kernel/block/mas_blk_busy_idle_notify.c:441:6
	cmp	w8, #122                // =122
	b.ne	.LBB4_2
.Ltmp84:
// %bb.1:
	//DEBUG_VALUE: blk_lld_idle_notify:lld <- $x0
	stp	x20, x19, [sp, #-32]!   // 16-byte Folded Spill
	stp	x29, x30, [sp, #16]     // 16-byte Folded Spill
	add	x29, sp, #16            // =16
	.cfi_def_cfa w29, 16
	.cfi_offset w30, -8
	.cfi_offset w29, -16
	.cfi_offset w19, -24
	.cfi_offset w20, -32
.Ltmp85:
	.loc	2 442 22 is_stmt 1      // kernel/block/mas_blk_busy_idle_notify.c:442:22
	adrp	x8, blk_idle_notify_workqueue
	ldr	x19, [x8, :lo12:blk_idle_notify_workqueue]
	.loc	2 445 35                // kernel/block/mas_blk_busy_idle_notify.c:445:35
	ldr	w8, [x0, #1144]
	.loc	2 444 6                 // kernel/block/mas_blk_busy_idle_notify.c:444:6
	add	x20, x0, #1048          // =1048
.Ltmp86:
	//DEBUG_VALUE: msecs_to_jiffies:m <- $w8
	.loc	139 370 10              // kernel/include/linux/jiffies.h:370:10
	mov	w0, w8
.Ltmp87:
	bl	__msecs_to_jiffies
.Ltmp88:
	mov	x3, x0
.Ltmp89:
	//DEBUG_VALUE: queue_delayed_work:delay <- $x3
	//DEBUG_VALUE: queue_delayed_work:dwork <- $x20
	//DEBUG_VALUE: queue_delayed_work:wq <- $x19
	.loc	20 506 9                // kernel/include/linux/workqueue.h:506:9
	orr	w0, wzr, #0x8
	mov	x1, x19
	mov	x2, x20
	bl	queue_delayed_work_on
.Ltmp90:
	.loc	20 0 9 is_stmt 0        // kernel/include/linux/workqueue.h:0:9
	ldp	x29, x30, [sp, #16]     // 16-byte Folded Reload
	ldp	x20, x19, [sp], #32     // 16-byte Folded Reload
.Ltmp91:
.LBB4_2:
	.loc	2 446 1 is_stmt 1       // kernel/block/mas_blk_busy_idle_notify.c:446:1
	ret
.Ltmp92:
.Lfunc_end4:
	.size	blk_lld_idle_notify, .Lfunc_end4-blk_lld_idle_notify
	.cfi_endproc
                                        // -- End function
	.section	.text.mas_blk_busyidle_check_bio,"ax",@progbits
	.hidden	mas_blk_busyidle_check_bio // -- Begin function mas_blk_busyidle_check_bio
	.globl	mas_blk_busyidle_check_bio
	.p2align	2
	.type	mas_blk_busyidle_check_bio,@function
mas_blk_busyidle_check_bio:             // @mas_blk_busyidle_check_bio
.Lfunc_begin5:
	.loc	2 739 0                 // kernel/block/mas_blk_busy_idle_notify.c:739:0
	.cfi_startproc
// %bb.0:
	//DEBUG_VALUE: mas_blk_busyidle_check_bio:q <- $x0
	//DEBUG_VALUE: mas_blk_busyidle_check_bio:bio <- $x1
	stp	x22, x21, [sp, #-48]!   // 16-byte Folded Spill
	stp	x20, x19, [sp, #16]     // 16-byte Folded Spill
	stp	x29, x30, [sp, #32]     // 16-byte Folded Spill
	add	x29, sp, #32            // =32
	.cfi_def_cfa w29, 16
	.cfi_offset w30, -8
	.cfi_offset w29, -16
	.cfi_offset w19, -24
	.cfi_offset w20, -32
	.cfi_offset w21, -40
	.cfi_offset w22, -48
	mov	x21, x1
	mov	x19, x0
.Ltmp93:
	//DEBUG_VALUE: mas_blk_busyidle_check_bio:bio <- $x21
	//DEBUG_VALUE: mas_blk_busyidle_check_bio:q <- $x19
	.loc	2 740 28 prologue_end   // kernel/block/mas_blk_busy_idle_notify.c:740:28
	bl	mas_blk_get_lld
.Ltmp94:
	.loc	2 744 6                 // kernel/block/mas_blk_busy_idle_notify.c:744:6
	ldrb	w8, [x21, #144]
.Ltmp95:
	.loc	2 742 17                // kernel/block/mas_blk_busy_idle_notify.c:742:17
	str	x19, [x21, #96]
	.loc	2 744 6                 // kernel/block/mas_blk_busy_idle_notify.c:744:6
	tbnz	w8, #0, .LBB5_10
.Ltmp96:
// %bb.1:
	//DEBUG_VALUE: mas_blk_busyidle_check_bio:q <- $x19
	//DEBUG_VALUE: mas_blk_busyidle_check_bio:bio <- $x21
	.file	141 "/mnt/disk/jenkins/ci/workspace/chipset_pipeline_release/opensource/component_code/vendor/huawei/extra/build/build_script/kirin_kernel_release/kernel/include/linux/spinlock.h"
	.loc	141 306 16              // kernel/include/linux/spinlock.h:306:16
	add	x22, x0, #1552          // =1552
.Ltmp97:
	.loc	2 0 0 is_stmt 0         // kernel/block/mas_blk_busy_idle_notify.c:0:0
	mov	x20, x0
.Ltmp98:
	//DEBUG_VALUE: atomic_add:v <- [DW_OP_plus_uconst 1428, DW_OP_stack_value] $x20
	//DEBUG_VALUE: blk_fg_io_busy_count:blk_idle <- [DW_OP_plus_uconst 1040, DW_OP_stack_value] $x20
	//DEBUG_VALUE: blk_fg_io_busy_count:lld <- $x20
	//DEBUG_VALUE: mas_blk_fg_io_check_busy:lld <- $x20
	//DEBUG_VALUE: atomic_add:v <- [DW_OP_plus_uconst 1248, DW_OP_stack_value] $x20
	//DEBUG_VALUE: blk_idle_to_busy:blk_idle <- [DW_OP_plus_uconst 1040, DW_OP_stack_value] $x20
	//DEBUG_VALUE: blk_busy_count:blk_idle <- [DW_OP_plus_uconst 1040, DW_OP_stack_value] $x20
	//DEBUG_VALUE: blk_busy_count:lld <- $x20
	//DEBUG_VALUE: spin_unlock_irqrestore:lock <- [DW_OP_plus_uconst 1552, DW_OP_stack_value] $x20
	//DEBUG_VALUE: spinlock_check:lock <- [DW_OP_plus_uconst 1552, DW_OP_stack_value] $x20
	//DEBUG_VALUE: mas_blk_add_bio_to_counted_list:lld <- $x20
	//DEBUG_VALUE: mas_blk_busyidle_check_bio:lld <- $x20
	.loc	2 746 27 is_stmt 1      // kernel/block/mas_blk_busy_idle_notify.c:746:27
	orr	w8, w8, #0x1
.Ltmp99:
	.loc	2 660 2                 // kernel/block/mas_blk_busy_idle_notify.c:660:2
	mov	x0, x22
.Ltmp100:
	.loc	2 746 27                // kernel/block/mas_blk_busy_idle_notify.c:746:27
	strb	w8, [x21, #144]
.Ltmp101:
	//DEBUG_VALUE: mas_blk_add_bio_to_counted_list:bio <- $x21
	.loc	2 660 2                 // kernel/block/mas_blk_busy_idle_notify.c:660:2
	bl	_raw_spin_lock_irqsave
.Ltmp102:
	.loc	2 661 25                // kernel/block/mas_blk_busy_idle_notify.c:661:25
	ldr	x8, [x20, #1504]
.Ltmp103:
	.file	142 "/mnt/disk/jenkins/ci/workspace/chipset_pipeline_release/opensource/component_code/vendor/huawei/extra/build/build_script/kirin_kernel_release/kernel/include/linux/list.h"
	.loc	142 93 24               // kernel/include/linux/list.h:93:24
	ldr	x11, [x20, #1528]
.Ltmp104:
	//DEBUG_VALUE: __list_add:prev <- $x11
	//DEBUG_VALUE: __list_add:next <- $x10
	//DEBUG_VALUE: __list_add:new <- $x9
	.loc	2 660 2                 // kernel/block/mas_blk_busy_idle_notify.c:660:2
	mov	x1, x0
.Ltmp105:
	//DEBUG_VALUE: mas_blk_add_bio_to_counted_list:flags <- $x1
	.loc	2 662 22                // kernel/block/mas_blk_busy_idle_notify.c:662:22
	add	x9, x21, #296           // =296
.Ltmp106:
	.loc	2 662 47 is_stmt 0      // kernel/block/mas_blk_busy_idle_notify.c:662:47
	add	x10, x20, #1520         // =1520
.Ltmp107:
	//DEBUG_VALUE: list_add_tail:head <- $x10
	//DEBUG_VALUE: list_add_tail:new <- $x9
	.loc	2 661 25 is_stmt 1      // kernel/block/mas_blk_busy_idle_notify.c:661:25
	add	x8, x8, #1              // =1
.Ltmp108:
	.loc	141 372 2               // kernel/include/linux/spinlock.h:372:2
	mov	x0, x22
.Ltmp109:
	.loc	142 63 13               // kernel/include/linux/list.h:63:13
	str	x9, [x20, #1528]
.Ltmp110:
	.loc	2 661 25                // kernel/block/mas_blk_busy_idle_notify.c:661:25
	str	x8, [x20, #1504]
.Ltmp111:
	.loc	142 64 12               // kernel/include/linux/list.h:64:12
	stp	x10, x11, [x21, #296]
	//DEBUG_VALUE: __list_add:prev <- $x11
	//DEBUG_VALUE: list_add_tail:head <- $x10
.Ltmp112:
	//DEBUG_VALUE: __list_add:next <- $x10
	//DEBUG_VALUE: list_add_tail:new <- $x9
	//DEBUG_VALUE: __list_add:new <- $x9
	//DEBUG_VALUE: __write_once_size:p <- $x11
	//DEBUG_VALUE: __write_once_size:size <- 8
	//DEBUG_VALUE: __write_once_size:res <- undef
	.loc	140 210 31              // kernel/include/linux/compiler.h:210:31
	str	x9, [x11]
.Ltmp113:
	//DEBUG_VALUE: spin_unlock_irqrestore:flags <- $x1
	.loc	141 372 2               // kernel/include/linux/spinlock.h:372:2
	bl	_raw_spin_unlock_irqrestore
.Ltmp114:
	.loc	2 633 6                 // kernel/block/mas_blk_busy_idle_notify.c:633:6
	ldr	x8, [x20, #24]
.Ltmp115:
	.loc	2 633 6 is_stmt 0       // kernel/block/mas_blk_busy_idle_notify.c:633:6
	tbz	w8, #3, .LBB5_4
.Ltmp116:
// %bb.2:
	//DEBUG_VALUE: mas_blk_busyidle_check_bio:lld <- $x20
	//DEBUG_VALUE: blk_busy_count:lld <- $x20
	//DEBUG_VALUE: blk_busy_count:blk_idle <- [DW_OP_plus_uconst 1040, DW_OP_stack_value] $x20
	//DEBUG_VALUE: mas_blk_busyidle_check_bio:q <- $x19
	//DEBUG_VALUE: mas_blk_busyidle_check_bio:bio <- $x21
	//DEBUG_VALUE: __read_once_size:res <- undef
	//DEBUG_VALUE: __read_once_size:size <- 4
	//DEBUG_VALUE: __read_once_size:p <- [DW_OP_plus_uconst 1248, DW_OP_stack_value] $x20
	.loc	140 183 2 is_stmt 1     // kernel/include/linux/compiler.h:183:2
	ldr	w8, [x20, #1248]
.Ltmp117:
	.loc	2 636 6                 // kernel/block/mas_blk_busy_idle_notify.c:636:6
	cbz	w8, .LBB5_11
.Ltmp118:
.LBB5_3:
	//DEBUG_VALUE: mas_blk_busyidle_check_bio:lld <- $x20
	//DEBUG_VALUE: blk_busy_count:lld <- $x20
	//DEBUG_VALUE: blk_busy_count:blk_idle <- [DW_OP_plus_uconst 1040, DW_OP_stack_value] $x20
	//DEBUG_VALUE: mas_blk_busyidle_check_bio:q <- $x19
	//DEBUG_VALUE: mas_blk_busyidle_check_bio:bio <- $x21
	//DEBUG_VALUE: atomic_add:i <- 1
	//DEBUG_LABEL: blk_busy_count:inc_iocount
	.file	143 "/mnt/disk/jenkins/ci/workspace/chipset_pipeline_release/opensource/component_code/vendor/huawei/extra/build/build_script/kirin_kernel_release/kernel/arch/arm64/include/asm/atomic_ll_sc.h"
	.loc	143 113 1               // kernel/arch/arm64/include/asm/atomic_ll_sc.h:113:1
	add	x8, x20, #1248          // =1248
	//APP
	// atomic_add
	prfm	pstl1strm, [x8]
1:	ldxr	w9, [x8]
	add	w9, w9, #1
	stxr	w10, w9, [x8]
	cbnz	w10, 1b
	//NO_APP
.Ltmp119:
	//DEBUG_VALUE: atomic_add:tmp <- undef
	//DEBUG_VALUE: atomic_add:result <- undef
	.loc	2 717 12                // kernel/block/mas_blk_busy_idle_notify.c:717:12
	ldr	x8, [x20, #24]
.Ltmp120:
.LBB5_4:
	//DEBUG_VALUE: mas_blk_busyidle_check_bio:lld <- $x20
	//DEBUG_VALUE: mas_blk_busyidle_check_bio:q <- $x19
	//DEBUG_VALUE: mas_blk_busyidle_check_bio:bio <- $x21
	//DEBUG_VALUE: mas_blk_fg_io_check_busy:q <- $x19
	//DEBUG_VALUE: mas_blk_fg_io_check_busy:bio <- $x21
	.loc	2 717 48 is_stmt 0      // kernel/block/mas_blk_busy_idle_notify.c:717:48
	tbz	w8, #8, .LBB5_10
.Ltmp121:
// %bb.5:
	//DEBUG_VALUE: mas_blk_fg_io_check_busy:bio <- $x21
	//DEBUG_VALUE: mas_blk_fg_io_check_busy:q <- $x19
	//DEBUG_VALUE: mas_blk_busyidle_check_bio:lld <- $x20
	//DEBUG_VALUE: mas_blk_busyidle_check_bio:q <- $x19
	//DEBUG_VALUE: mas_blk_busyidle_check_bio:bio <- $x21
	.loc	2 717 64                // kernel/block/mas_blk_busy_idle_notify.c:717:64
	ldrb	w8, [x21, #290]
	.loc	2 717 70                // kernel/block/mas_blk_busy_idle_notify.c:717:70
	cbz	w8, .LBB5_10
.Ltmp122:
// %bb.6:
	//DEBUG_VALUE: mas_blk_fg_io_check_busy:bio <- $x21
	//DEBUG_VALUE: mas_blk_fg_io_check_busy:q <- $x19
	//DEBUG_VALUE: mas_blk_busyidle_check_bio:lld <- $x20
	//DEBUG_VALUE: mas_blk_busyidle_check_bio:q <- $x19
	//DEBUG_VALUE: mas_blk_busyidle_check_bio:bio <- $x21
	.loc	2 718 20 is_stmt 1      // kernel/block/mas_blk_busy_idle_notify.c:718:20
	ldrb	w8, [x21, #144]
.Ltmp123:
	.loc	2 717 6                 // kernel/block/mas_blk_busy_idle_notify.c:717:6
	tbnz	w8, #5, .LBB5_10
.Ltmp124:
// %bb.7:
	//DEBUG_VALUE: mas_blk_fg_io_check_busy:bio <- $x21
	//DEBUG_VALUE: mas_blk_fg_io_check_busy:q <- $x19
	//DEBUG_VALUE: mas_blk_busyidle_check_bio:lld <- $x20
	//DEBUG_VALUE: mas_blk_busyidle_check_bio:q <- $x19
	//DEBUG_VALUE: mas_blk_busyidle_check_bio:bio <- $x21
	.loc	2 719 28                // kernel/block/mas_blk_busy_idle_notify.c:719:28
	orr	w8, w8, #0x20
	strb	w8, [x21, #144]
.Ltmp125:
	//DEBUG_VALUE: blk_fg_io_busy_count:q <- $x19
	.loc	2 403 6                 // kernel/block/mas_blk_busy_idle_notify.c:403:6
	ldr	w8, [x20, #24]
	mov	w9, #264
	mvn	w8, w8
.Ltmp126:
	.loc	2 403 6 is_stmt 0       // kernel/block/mas_blk_busy_idle_notify.c:403:6
	tst	x8, x9
	b.ne	.LBB5_10
.Ltmp127:
// %bb.8:
	//DEBUG_VALUE: blk_fg_io_busy_count:q <- $x19
	//DEBUG_VALUE: mas_blk_fg_io_check_busy:bio <- $x21
	//DEBUG_VALUE: mas_blk_fg_io_check_busy:q <- $x19
	//DEBUG_VALUE: mas_blk_busyidle_check_bio:lld <- $x20
	//DEBUG_VALUE: mas_blk_busyidle_check_bio:q <- $x19
	//DEBUG_VALUE: mas_blk_busyidle_check_bio:bio <- $x21
	//DEBUG_VALUE: __read_once_size:res <- undef
	//DEBUG_VALUE: __read_once_size:size <- 4
	.loc	140 183 2 is_stmt 1     // kernel/include/linux/compiler.h:183:2
	ldr	w8, [x20, #1428]
	add	x22, x20, #1428         // =1428
.Ltmp128:
	//DEBUG_VALUE: __read_once_size:p <- $x22
	.loc	2 409 6                 // kernel/block/mas_blk_busy_idle_notify.c:409:6
	cbz	w8, .LBB5_14
.Ltmp129:
.LBB5_9:
	//DEBUG_VALUE: blk_fg_io_busy_count:q <- $x19
	//DEBUG_VALUE: mas_blk_fg_io_check_busy:q <- $x19
	//DEBUG_VALUE: mas_blk_busyidle_check_bio:lld <- $x20
	//DEBUG_VALUE: mas_blk_busyidle_check_bio:q <- $x19
	//DEBUG_VALUE: atomic_add:i <- 1
	.loc	143 113 1               // kernel/arch/arm64/include/asm/atomic_ll_sc.h:113:1
	//APP
	// atomic_add
	prfm	pstl1strm, [x22]
1:	ldxr	w8, [x22]
	add	w8, w8, #1
	stxr	w9, w8, [x22]
	cbnz	w9, 1b
	//NO_APP
.Ltmp130:
	//DEBUG_VALUE: atomic_add:tmp <- undef
	//DEBUG_VALUE: atomic_add:result <- undef
.LBB5_10:
	//DEBUG_VALUE: mas_blk_busyidle_check_bio:q <- $x19
	.loc	2 752 1                 // kernel/block/mas_blk_busy_idle_notify.c:752:1
	ldp	x29, x30, [sp, #32]     // 16-byte Folded Reload
	ldp	x20, x19, [sp, #16]     // 16-byte Folded Reload
.Ltmp131:
	ldp	x22, x21, [sp], #48     // 16-byte Folded Reload
	ret
.LBB5_11:
.Ltmp132:
	//DEBUG_VALUE: mas_blk_busyidle_check_bio:lld <- $x20
	//DEBUG_VALUE: blk_busy_count:lld <- $x20
	//DEBUG_VALUE: blk_busy_count:blk_idle <- [DW_OP_plus_uconst 1040, DW_OP_stack_value] $x20
	//DEBUG_VALUE: mas_blk_busyidle_check_bio:q <- $x19
	//DEBUG_VALUE: mas_blk_busyidle_check_bio:bio <- $x21
	.loc	2 639 24                // kernel/block/mas_blk_busy_idle_notify.c:639:24
	add	x22, x20, #1256         // =1256
	.loc	2 639 2 is_stmt 0       // kernel/block/mas_blk_busy_idle_notify.c:639:2
	mov	x0, x22
	bl	mutex_lock
	.loc	2 640 33 is_stmt 1      // kernel/block/mas_blk_busy_idle_notify.c:640:33
	add	x0, x20, #1048          // =1048
	.loc	2 640 2 is_stmt 0       // kernel/block/mas_blk_busy_idle_notify.c:640:2
	bl	cancel_delayed_work
.Ltmp133:
	.loc	2 646 16 is_stmt 1      // kernel/block/mas_blk_busy_idle_notify.c:646:16
	ldr	w8, [x20, #1320]
.Ltmp134:
	.loc	2 646 6 is_stmt 0       // kernel/block/mas_blk_busy_idle_notify.c:646:6
	cmp	w8, #1                  // =1
	b.ne	.LBB5_13
.Ltmp135:
// %bb.12:
	//DEBUG_VALUE: mas_blk_busyidle_check_bio:lld <- $x20
	//DEBUG_VALUE: blk_busy_count:lld <- $x20
	//DEBUG_VALUE: blk_busy_count:blk_idle <- [DW_OP_plus_uconst 1040, DW_OP_stack_value] $x20
	//DEBUG_VALUE: mas_blk_busyidle_check_bio:q <- $x19
	//DEBUG_VALUE: mas_blk_busyidle_check_bio:bio <- $x21
	.loc	2 626 42 is_stmt 1      // kernel/block/mas_blk_busy_idle_notify.c:626:42
	add	x0, x20, #1168          // =1168
	.loc	2 626 2 is_stmt 0       // kernel/block/mas_blk_busy_idle_notify.c:626:2
	mov	x1, xzr
	mov	x2, xzr
	.loc	2 615 23 is_stmt 1      // kernel/block/mas_blk_busy_idle_notify.c:615:23
	str	wzr, [x20, #1320]
	.loc	2 626 2                 // kernel/block/mas_blk_busy_idle_notify.c:626:2
	bl	blocking_notifier_call_chain
.Ltmp136:
.LBB5_13:
	//DEBUG_VALUE: mas_blk_busyidle_check_bio:lld <- $x20
	//DEBUG_VALUE: blk_busy_count:lld <- $x20
	//DEBUG_VALUE: blk_busy_count:blk_idle <- [DW_OP_plus_uconst 1040, DW_OP_stack_value] $x20
	//DEBUG_VALUE: mas_blk_busyidle_check_bio:q <- $x19
	//DEBUG_VALUE: mas_blk_busyidle_check_bio:bio <- $x21
	.loc	2 649 2                 // kernel/block/mas_blk_busy_idle_notify.c:649:2
	mov	x0, x22
	bl	mutex_unlock
	b	.LBB5_3
.Ltmp137:
.LBB5_14:
	//DEBUG_VALUE: blk_fg_io_busy_count:q <- $x19
	//DEBUG_VALUE: mas_blk_fg_io_check_busy:bio <- $x21
	//DEBUG_VALUE: mas_blk_fg_io_check_busy:q <- $x19
	//DEBUG_VALUE: mas_blk_busyidle_check_bio:lld <- $x20
	//DEBUG_VALUE: mas_blk_busyidle_check_bio:q <- $x19
	//DEBUG_VALUE: mas_blk_busyidle_check_bio:bio <- $x21
	.loc	2 410 25                // kernel/block/mas_blk_busy_idle_notify.c:410:25
	add	x21, x20, #1432         // =1432
.Ltmp138:
	.loc	2 410 3 is_stmt 0       // kernel/block/mas_blk_busy_idle_notify.c:410:3
	mov	x0, x21
	bl	mutex_lock
	.loc	2 411 34 is_stmt 1      // kernel/block/mas_blk_busy_idle_notify.c:411:34
	add	x0, x20, #1328          // =1328
	.loc	2 411 3 is_stmt 0       // kernel/block/mas_blk_busy_idle_notify.c:411:3
	bl	cancel_delayed_work
.Ltmp139:
	.loc	2 412 17 is_stmt 1      // kernel/block/mas_blk_busy_idle_notify.c:412:17
	ldr	w8, [x20, #1496]
.Ltmp140:
	.loc	2 412 7 is_stmt 0       // kernel/block/mas_blk_busy_idle_notify.c:412:7
	cmp	w8, #1                  // =1
	b.ne	.LBB5_16
.Ltmp141:
// %bb.15:
	//DEBUG_VALUE: blk_fg_io_busy_count:q <- $x19
	//DEBUG_VALUE: mas_blk_fg_io_check_busy:q <- $x19
	//DEBUG_VALUE: mas_blk_busyidle_check_bio:lld <- $x20
	//DEBUG_VALUE: mas_blk_busyidle_check_bio:q <- $x19
	.loc	2 415 16 is_stmt 1      // kernel/block/mas_blk_busy_idle_notify.c:415:16
	add	x0, x20, #1168          // =1168
	.loc	2 414 4                 // kernel/block/mas_blk_busy_idle_notify.c:414:4
	orr	w1, wzr, #0x2
	mov	x2, x19
	.loc	2 413 31                // kernel/block/mas_blk_busy_idle_notify.c:413:31
	str	wzr, [x20, #1496]
	.loc	2 414 4                 // kernel/block/mas_blk_busy_idle_notify.c:414:4
	bl	blocking_notifier_call_chain
.Ltmp142:
.LBB5_16:
	//DEBUG_VALUE: blk_fg_io_busy_count:q <- $x19
	//DEBUG_VALUE: mas_blk_fg_io_check_busy:q <- $x19
	//DEBUG_VALUE: mas_blk_busyidle_check_bio:lld <- $x20
	//DEBUG_VALUE: mas_blk_busyidle_check_bio:q <- $x19
	.loc	2 417 3                 // kernel/block/mas_blk_busy_idle_notify.c:417:3
	mov	x0, x21
	bl	mutex_unlock
	b	.LBB5_9
.Ltmp143:
.Lfunc_end5:
	.size	mas_blk_busyidle_check_bio, .Lfunc_end5-mas_blk_busyidle_check_bio
	.cfi_endproc
                                        // -- End function
	.section	.text.mas_blk_busyidle_check_request_bio,"ax",@progbits
	.hidden	mas_blk_busyidle_check_request_bio // -- Begin function mas_blk_busyidle_check_request_bio
	.globl	mas_blk_busyidle_check_request_bio
	.p2align	2
	.type	mas_blk_busyidle_check_request_bio,@function
mas_blk_busyidle_check_request_bio:     // @mas_blk_busyidle_check_request_bio
.Lfunc_begin6:
	.loc	2 759 0                 // kernel/block/mas_blk_busy_idle_notify.c:759:0
	.cfi_startproc
// %bb.0:
	//DEBUG_VALUE: mas_blk_busyidle_check_request_bio:q <- $x0
	//DEBUG_VALUE: mas_blk_busyidle_check_request_bio:rq <- $x1
	//DEBUG_VALUE: mas_blk_busyidle_check_request_bio:rq <- $x1
	stp	x20, x19, [sp, #-32]!   // 16-byte Folded Spill
	stp	x29, x30, [sp, #16]     // 16-byte Folded Spill
	add	x29, sp, #16            // =16
	.cfi_def_cfa w29, 16
	.cfi_offset w30, -8
	.cfi_offset w29, -16
	.cfi_offset w19, -24
	.cfi_offset w20, -32
.Ltmp144:
	.loc	2 760 24 prologue_end   // kernel/block/mas_blk_busy_idle_notify.c:760:24
	ldr	x19, [x1, #120]
.Ltmp145:
	//DEBUG_VALUE: mas_blk_busyidle_check_request_bio:bio <- $x19
	.loc	2 762 6                 // kernel/block/mas_blk_busy_idle_notify.c:762:6
	cbz	x19, .LBB6_4
.Ltmp146:
// %bb.1:
	//DEBUG_VALUE: mas_blk_busyidle_check_request_bio:bio <- $x19
	//DEBUG_VALUE: mas_blk_busyidle_check_request_bio:rq <- $x1
	//DEBUG_VALUE: mas_blk_busyidle_check_request_bio:q <- $x0
	.loc	2 0 6 is_stmt 0         // kernel/block/mas_blk_busy_idle_notify.c:0:6
	mov	x20, x0
.Ltmp147:
	//DEBUG_VALUE: mas_blk_busyidle_check_request_bio:q <- $x20
.LBB6_2:                                // =>This Inner Loop Header: Depth=1
	//DEBUG_VALUE: mas_blk_busyidle_check_request_bio:q <- $x20
	//DEBUG_VALUE: mas_blk_busyidle_check_request_bio:bio <- $x19
	//DEBUG_VALUE: mas_blk_busyidle_check_request_bio:rq <- $x1
	//DEBUG_VALUE: mas_blk_busyidle_check_request_bio:bio <- $x19
	.loc	2 764 4 is_stmt 1       // kernel/block/mas_blk_busy_idle_notify.c:764:4
	mov	x0, x20
	mov	x1, x19
.Ltmp148:
	bl	mas_blk_busyidle_check_bio
	.loc	2 765 15                // kernel/block/mas_blk_busy_idle_notify.c:765:15
	ldr	x19, [x19]
.Ltmp149:
	//DEBUG_VALUE: mas_blk_busyidle_check_request_bio:bio <- $x19
	.loc	2 766 3                 // kernel/block/mas_blk_busy_idle_notify.c:766:3
	cbnz	x19, .LBB6_2
.Ltmp150:
// %bb.3:
	//DEBUG_VALUE: mas_blk_busyidle_check_request_bio:q <- $x20
	//DEBUG_VALUE: mas_blk_busyidle_check_request_bio:bio <- $x19
	.loc	2 0 3 is_stmt 0         // kernel/block/mas_blk_busy_idle_notify.c:0:3
	orr	w0, wzr, #0x1
	b	.LBB6_5
.Ltmp151:
.LBB6_4:
	//DEBUG_VALUE: mas_blk_busyidle_check_request_bio:bio <- $x19
	//DEBUG_VALUE: mas_blk_busyidle_check_request_bio:rq <- $x1
	//DEBUG_VALUE: mas_blk_busyidle_check_request_bio:q <- $x0
	mov	w0, wzr
.Ltmp152:
.LBB6_5:
	//DEBUG_VALUE: mas_blk_busyidle_check_request_bio:bio <- $x19
	.loc	2 770 1 is_stmt 1       // kernel/block/mas_blk_busy_idle_notify.c:770:1
	ldp	x29, x30, [sp, #16]     // 16-byte Folded Reload
	ldp	x20, x19, [sp], #32     // 16-byte Folded Reload
.Ltmp153:
	ret
.Ltmp154:
.Lfunc_end6:
	.size	mas_blk_busyidle_check_request_bio, .Lfunc_end6-mas_blk_busyidle_check_request_bio
	.cfi_endproc
                                        // -- End function
	.section	.text.mas_blk_busyidle_end_rq,"ax",@progbits
	.hidden	mas_blk_busyidle_end_rq // -- Begin function mas_blk_busyidle_end_rq
	.globl	mas_blk_busyidle_end_rq
	.p2align	2
	.type	mas_blk_busyidle_end_rq,@function
mas_blk_busyidle_end_rq:                // @mas_blk_busyidle_end_rq
.Lfunc_begin7:
	.loc	2 773 0                 // kernel/block/mas_blk_busy_idle_notify.c:773:0
	.cfi_startproc
// %bb.0:
	//DEBUG_VALUE: mas_blk_busyidle_end_rq:rq <- $x0
	//DEBUG_VALUE: mas_blk_busyidle_end_rq:error <- $w1
	stp	x22, x21, [sp, #-48]!   // 16-byte Folded Spill
	stp	x20, x19, [sp, #16]     // 16-byte Folded Spill
	stp	x29, x30, [sp, #32]     // 16-byte Folded Spill
	add	x29, sp, #32            // =32
	.cfi_def_cfa w29, 16
	.cfi_offset w30, -8
	.cfi_offset w29, -16
	.cfi_offset w19, -24
	.cfi_offset w20, -32
	.cfi_offset w21, -40
	.cfi_offset w22, -48
	mov	x19, x0
.Ltmp155:
	//DEBUG_VALUE: mas_blk_busyidle_end_rq:rq <- $x19
	.loc	2 774 48 prologue_end   // kernel/block/mas_blk_busy_idle_notify.c:774:48
	ldr	x0, [x0, #64]
	mov	w20, w1
.Ltmp156:
	//DEBUG_VALUE: mas_blk_busyidle_end_rq:error <- $w20
	.loc	2 774 28 is_stmt 0      // kernel/block/mas_blk_busy_idle_notify.c:774:28
	bl	mas_blk_get_lld
.Ltmp157:
	.loc	2 700 6 is_stmt 1       // kernel/block/mas_blk_busy_idle_notify.c:700:6
	ldr	x8, [x0, #1512]
.Ltmp158:
	.loc	2 774 28                // kernel/block/mas_blk_busy_idle_notify.c:774:28
	mov	x21, x0
.Ltmp159:
	//DEBUG_VALUE: mas_blk_remove_rq_from_counted_list:lld <- $x21
	//DEBUG_VALUE: mas_blk_busyidle_end_rq:lld <- $x21
	//DEBUG_VALUE: spinlock_check:lock <- [DW_OP_plus_uconst 1552, DW_OP_stack_value] $x21
	//DEBUG_VALUE: spin_unlock_irqrestore:lock <- [DW_OP_plus_uconst 1552, DW_OP_stack_value] $x21
	//DEBUG_VALUE: blk_idle_count:lld <- $x21
	//DEBUG_VALUE: blk_idle_count:blk_idle <- [DW_OP_plus_uconst 1040, DW_OP_stack_value] $x21
	//DEBUG_VALUE: atomic_sub_return:v <- [DW_OP_plus_uconst 1248, DW_OP_stack_value] $x21
	//DEBUG_VALUE: blk_lld_idle_notify:lld <- $x21
	//DEBUG_VALUE: mas_blk_remove_rq_from_counted_list:rq <- $x19
	.loc	2 700 6                 // kernel/block/mas_blk_busy_idle_notify.c:700:6
	cbz	x8, .LBB7_2
.Ltmp160:
// %bb.1:
	//DEBUG_VALUE: mas_blk_remove_rq_from_counted_list:rq <- $x19
	//DEBUG_VALUE: spin_unlock_irqrestore:lock <- [DW_OP_plus_uconst 1552, DW_OP_stack_value] $x21
	//DEBUG_VALUE: spinlock_check:lock <- [DW_OP_plus_uconst 1552, DW_OP_stack_value] $x21
	//DEBUG_VALUE: mas_blk_busyidle_end_rq:lld <- $x21
	//DEBUG_VALUE: mas_blk_remove_rq_from_counted_list:lld <- $x21
	//DEBUG_VALUE: mas_blk_busyidle_end_rq:error <- $w20
	//DEBUG_VALUE: mas_blk_busyidle_end_rq:rq <- $x19
	.loc	141 306 16              // kernel/include/linux/spinlock.h:306:16
	add	x22, x21, #1552         // =1552
.Ltmp161:
	.loc	2 707 2                 // kernel/block/mas_blk_busy_idle_notify.c:707:2
	mov	x0, x22
	bl	_raw_spin_lock_irqsave
.Ltmp162:
	.loc	2 708 25                // kernel/block/mas_blk_busy_idle_notify.c:708:25
	ldr	x8, [x21, #1512]
.Ltmp163:
	.loc	2 707 2                 // kernel/block/mas_blk_busy_idle_notify.c:707:2
	mov	x1, x0
.Ltmp164:
	//DEBUG_VALUE: mas_blk_remove_rq_from_counted_list:flags <- $x1
	.loc	2 709 21                // kernel/block/mas_blk_busy_idle_notify.c:709:21
	add	x10, x19, #480          // =480
.Ltmp165:
	//DEBUG_VALUE: __list_del_entry:entry <- $x10
	//DEBUG_VALUE: list_del_init:entry <- $x10
	//DEBUG_VALUE: __list_del:prev <- $x9
	//DEBUG_VALUE: __list_del:next <- $x8
	.loc	141 372 2               // kernel/include/linux/spinlock.h:372:2
	mov	x0, x22
.Ltmp166:
	.loc	2 708 25                // kernel/block/mas_blk_busy_idle_notify.c:708:25
	sub	x8, x8, #1              // =1
.Ltmp167:
	str	x8, [x21, #1512]
.Ltmp168:
	.loc	142 120 33              // kernel/include/linux/list.h:120:33
	ldp	x8, x9, [x19, #480]
.Ltmp169:
	.loc	142 105 13              // kernel/include/linux/list.h:105:13
	str	x9, [x8, #8]
.Ltmp170:
	//DEBUG_VALUE: __write_once_size:p <- $x9
	//DEBUG_VALUE: __write_once_size:size <- 8
	//DEBUG_VALUE: __write_once_size:res <- undef
	.loc	140 210 31              // kernel/include/linux/compiler.h:210:31
	str	x8, [x9]
.Ltmp171:
	//DEBUG_VALUE: __write_once_size:p <- $x10
	//DEBUG_VALUE: __write_once_size:size <- 8
	//DEBUG_VALUE: __write_once_size:res <- undef
	//DEBUG_VALUE: INIT_LIST_HEAD:list <- $x10
	.loc	140 210 31 is_stmt 0    // kernel/include/linux/compiler.h:210:31
	str	x10, [x19, #480]
.Ltmp172:
	.loc	142 29 13 is_stmt 1     // kernel/include/linux/list.h:29:13
	str	x10, [x19, #488]
.Ltmp173:
	//DEBUG_VALUE: spin_unlock_irqrestore:flags <- $x1
	.loc	141 372 2               // kernel/include/linux/spinlock.h:372:2
	bl	_raw_spin_unlock_irqrestore
.Ltmp174:
.LBB7_2:
	//DEBUG_VALUE: mas_blk_busyidle_end_rq:lld <- $x21
	//DEBUG_VALUE: mas_blk_busyidle_end_rq:error <- $w20
	//DEBUG_VALUE: mas_blk_busyidle_end_rq:rq <- $x19
	.loc	2 596 6                 // kernel/block/mas_blk_busy_idle_notify.c:596:6
	ldrb	w8, [x21, #24]
	tbz	w8, #3, .LBB7_6
.Ltmp175:
// %bb.3:
	//DEBUG_VALUE: mas_blk_busyidle_end_rq:lld <- $x21
	//DEBUG_VALUE: mas_blk_busyidle_end_rq:error <- $w20
	//DEBUG_VALUE: mas_blk_busyidle_end_rq:rq <- $x19
	.loc	2 599 16                // kernel/block/mas_blk_busy_idle_notify.c:599:16
	ldrb	w8, [x21, #1040]
.Ltmp176:
	.loc	2 599 6 is_stmt 0       // kernel/block/mas_blk_busy_idle_notify.c:599:6
	cbnz	w8, .LBB7_6
.Ltmp177:
// %bb.4:
	//DEBUG_VALUE: mas_blk_busyidle_end_rq:lld <- $x21
	//DEBUG_VALUE: mas_blk_busyidle_end_rq:error <- $w20
	//DEBUG_VALUE: mas_blk_busyidle_end_rq:rq <- $x19
	//DEBUG_VALUE: __read_once_size:res <- undef
	//DEBUG_VALUE: __read_once_size:size <- 4
	//DEBUG_VALUE: __read_once_size:p <- [DW_OP_plus_uconst 1248, DW_OP_stack_value] $x21
	.loc	140 183 2 is_stmt 1     // kernel/include/linux/compiler.h:183:2
	ldr	w8, [x21, #1248]
.Ltmp178:
	.loc	2 601 6                 // kernel/block/mas_blk_busy_idle_notify.c:601:6
	cbz	w8, .LBB7_9
.Ltmp179:
// %bb.5:
	//DEBUG_VALUE: mas_blk_busyidle_end_rq:lld <- $x21
	//DEBUG_VALUE: mas_blk_busyidle_end_rq:error <- $w20
	//DEBUG_VALUE: mas_blk_busyidle_end_rq:rq <- $x19
	//DEBUG_VALUE: atomic_sub_return:i <- 1
	.loc	143 114 1               // kernel/arch/arm64/include/asm/atomic_ll_sc.h:114:1
	add	x8, x21, #1248          // =1248
	//APP
	// atomic_sub_return
	prfm	pstl1strm, [x8]
1:	ldxr	w9, [x8]
	sub	w9, w9, #1
	stlxr	w10, w9, [x8]
	cbnz	w10, 1b
	dmb ish
	//NO_APP
.Ltmp180:
	//DEBUG_VALUE: atomic_sub_return:tmp <- undef
	//DEBUG_VALUE: atomic_sub_return:result <- $w9
	.loc	2 609 6                 // kernel/block/mas_blk_busy_idle_notify.c:609:6
	cbz	w9, .LBB7_10
.Ltmp181:
.LBB7_6:
	//DEBUG_VALUE: mas_blk_busyidle_end_rq:lld <- $x21
	//DEBUG_VALUE: mas_blk_busyidle_end_rq:error <- $w20
	//DEBUG_VALUE: mas_blk_busyidle_end_rq:rq <- $x19
	.loc	2 779 18                // kernel/block/mas_blk_busy_idle_notify.c:779:18
	ldr	x8, [x19, #296]
.Ltmp182:
	.loc	2 779 6 is_stmt 0       // kernel/block/mas_blk_busy_idle_notify.c:779:6
	cbz	x8, .LBB7_8
.Ltmp183:
.LBB7_7:
	//DEBUG_VALUE: mas_blk_busyidle_end_rq:error <- $w20
	//DEBUG_VALUE: mas_blk_busyidle_end_rq:rq <- $x19
	//DEBUG_VALUE: mas_blk_busyidle_end_rq:error <- $w20
	.loc	2 780 3 is_stmt 1       // kernel/block/mas_blk_busy_idle_notify.c:780:3
	mov	x0, x19
	mov	w1, w20
	blr	x8
.Ltmp184:
.LBB7_8:
	//DEBUG_VALUE: mas_blk_busyidle_end_rq:error <- $w20
	//DEBUG_VALUE: mas_blk_busyidle_end_rq:rq <- $x19
	.loc	2 781 1                 // kernel/block/mas_blk_busy_idle_notify.c:781:1
	ldp	x29, x30, [sp, #32]     // 16-byte Folded Reload
	ldp	x20, x19, [sp, #16]     // 16-byte Folded Reload
.Ltmp185:
	ldp	x22, x21, [sp], #48     // 16-byte Folded Reload
	ret
.LBB7_9:
.Ltmp186:
	//DEBUG_VALUE: mas_blk_busyidle_end_rq:lld <- $x21
	//DEBUG_VALUE: mas_blk_busyidle_end_rq:error <- $w20
	//DEBUG_VALUE: mas_blk_busyidle_end_rq:rq <- $x19
	.loc	2 602 3                 // kernel/block/mas_blk_busy_idle_notify.c:602:3
	adrp	x0, .L.str.12
	adrp	x1, .L__func__.blk_idle_count
	add	x0, x0, :lo12:.L.str.12
	add	x1, x1, :lo12:.L__func__.blk_idle_count
	bl	printk
.Ltmp187:
	.loc	2 779 18                // kernel/block/mas_blk_busy_idle_notify.c:779:18
	ldr	x8, [x19, #296]
.Ltmp188:
	.loc	2 779 6 is_stmt 0       // kernel/block/mas_blk_busy_idle_notify.c:779:6
	cbnz	x8, .LBB7_7
	b	.LBB7_8
.Ltmp189:
.LBB7_10:
	//DEBUG_VALUE: mas_blk_busyidle_end_rq:lld <- $x21
	//DEBUG_VALUE: mas_blk_busyidle_end_rq:error <- $w20
	//DEBUG_VALUE: mas_blk_busyidle_end_rq:rq <- $x19
	.loc	2 441 6 is_stmt 1       // kernel/block/mas_blk_busy_idle_notify.c:441:6
	ldr	w8, [x21]
.Ltmp190:
	.loc	2 441 6 is_stmt 0       // kernel/block/mas_blk_busy_idle_notify.c:441:6
	cmp	w8, #122                // =122
	b.ne	.LBB7_6
.Ltmp191:
// %bb.11:
	//DEBUG_VALUE: mas_blk_busyidle_end_rq:lld <- $x21
	//DEBUG_VALUE: mas_blk_busyidle_end_rq:error <- $w20
	//DEBUG_VALUE: mas_blk_busyidle_end_rq:rq <- $x19
	.loc	2 442 22 is_stmt 1      // kernel/block/mas_blk_busy_idle_notify.c:442:22
	adrp	x8, blk_idle_notify_workqueue
	.loc	2 445 35                // kernel/block/mas_blk_busy_idle_notify.c:445:35
	ldr	w0, [x21, #1144]
	.loc	2 442 22                // kernel/block/mas_blk_busy_idle_notify.c:442:22
	ldr	x22, [x8, :lo12:blk_idle_notify_workqueue]
	.loc	2 444 6                 // kernel/block/mas_blk_busy_idle_notify.c:444:6
	add	x21, x21, #1048         // =1048
.Ltmp192:
	//DEBUG_VALUE: msecs_to_jiffies:m <- $w0
	.loc	139 370 10              // kernel/include/linux/jiffies.h:370:10
	bl	__msecs_to_jiffies
.Ltmp193:
	mov	x3, x0
.Ltmp194:
	//DEBUG_VALUE: queue_delayed_work:delay <- $x3
	//DEBUG_VALUE: queue_delayed_work:dwork <- $x21
	//DEBUG_VALUE: queue_delayed_work:wq <- $x22
	.loc	20 506 9                // kernel/include/linux/workqueue.h:506:9
	orr	w0, wzr, #0x8
	mov	x1, x22
	mov	x2, x21
	bl	queue_delayed_work_on
.Ltmp195:
	.loc	2 779 18                // kernel/block/mas_blk_busy_idle_notify.c:779:18
	ldr	x8, [x19, #296]
.Ltmp196:
	.loc	2 779 6 is_stmt 0       // kernel/block/mas_blk_busy_idle_notify.c:779:6
	cbnz	x8, .LBB7_7
	b	.LBB7_8
.Ltmp197:
.Lfunc_end7:
	.size	mas_blk_busyidle_end_rq, .Lfunc_end7-mas_blk_busyidle_end_rq
	.cfi_endproc
                                        // -- End function
	.section	.text.mas_blk_busyidle_check_execute_request,"ax",@progbits
	.hidden	mas_blk_busyidle_check_execute_request // -- Begin function mas_blk_busyidle_check_execute_request
	.globl	mas_blk_busyidle_check_execute_request
	.p2align	2
	.type	mas_blk_busyidle_check_execute_request,@function
mas_blk_busyidle_check_execute_request: // @mas_blk_busyidle_check_execute_request
.Lfunc_begin8:
	.loc	2 789 0 is_stmt 1       // kernel/block/mas_blk_busy_idle_notify.c:789:0
	.cfi_startproc
// %bb.0:
	//DEBUG_VALUE: mas_blk_busyidle_check_execute_request:q <- $x0
	//DEBUG_VALUE: mas_blk_busyidle_check_execute_request:rq <- $x1
	//DEBUG_VALUE: mas_blk_busyidle_check_execute_request:done <- $x2
	//DEBUG_VALUE: mas_blk_busyidle_check_request_bio:q <- $x0
	//DEBUG_VALUE: mas_blk_busyidle_check_request_bio:rq <- $x1
	stp	x22, x21, [sp, #-48]!   // 16-byte Folded Spill
	stp	x20, x19, [sp, #16]     // 16-byte Folded Spill
	stp	x29, x30, [sp, #32]     // 16-byte Folded Spill
	add	x29, sp, #32            // =32
	.cfi_def_cfa w29, 16
	.cfi_offset w30, -8
	.cfi_offset w29, -16
	.cfi_offset w19, -24
	.cfi_offset w20, -32
	.cfi_offset w21, -40
	.cfi_offset w22, -48
.Ltmp198:
	.loc	2 760 24 prologue_end   // kernel/block/mas_blk_busy_idle_notify.c:760:24
	ldr	x21, [x1, #120]
.Ltmp199:
	//DEBUG_VALUE: mas_blk_busyidle_check_request_bio:bio <- $x21
	.loc	2 0 24 is_stmt 0        // kernel/block/mas_blk_busy_idle_notify.c:0:24
	mov	x19, x2
	mov	x20, x1
.Ltmp200:
	//DEBUG_VALUE: mas_blk_busyidle_check_request_bio:rq <- $x20
	//DEBUG_VALUE: mas_blk_busyidle_check_execute_request:done <- $x19
	//DEBUG_VALUE: mas_blk_busyidle_check_execute_request:rq <- $x20
	.loc	2 762 6 is_stmt 1       // kernel/block/mas_blk_busy_idle_notify.c:762:6
	cbz	x21, .LBB8_4
.Ltmp201:
// %bb.1:
	//DEBUG_VALUE: mas_blk_busyidle_check_execute_request:rq <- $x20
	//DEBUG_VALUE: mas_blk_busyidle_check_execute_request:done <- $x19
	//DEBUG_VALUE: mas_blk_busyidle_check_request_bio:rq <- $x20
	//DEBUG_VALUE: mas_blk_busyidle_check_request_bio:bio <- $x21
	//DEBUG_VALUE: mas_blk_busyidle_check_request_bio:q <- $x0
	//DEBUG_VALUE: mas_blk_busyidle_check_execute_request:q <- $x0
	.loc	2 0 6 is_stmt 0         // kernel/block/mas_blk_busy_idle_notify.c:0:6
	mov	x22, x0
.Ltmp202:
	//DEBUG_VALUE: mas_blk_busyidle_check_execute_request:q <- $x22
	//DEBUG_VALUE: mas_blk_busyidle_check_request_bio:q <- $x22
.LBB8_2:                                // =>This Inner Loop Header: Depth=1
	//DEBUG_VALUE: mas_blk_busyidle_check_request_bio:q <- $x22
	//DEBUG_VALUE: mas_blk_busyidle_check_execute_request:q <- $x22
	//DEBUG_VALUE: mas_blk_busyidle_check_execute_request:rq <- $x20
	//DEBUG_VALUE: mas_blk_busyidle_check_execute_request:done <- $x19
	//DEBUG_VALUE: mas_blk_busyidle_check_request_bio:rq <- $x20
	//DEBUG_VALUE: mas_blk_busyidle_check_request_bio:bio <- $x21
	//DEBUG_VALUE: mas_blk_busyidle_check_request_bio:bio <- $x21
	.loc	2 764 4 is_stmt 1       // kernel/block/mas_blk_busy_idle_notify.c:764:4
	mov	x0, x22
	mov	x1, x21
	bl	mas_blk_busyidle_check_bio
	.loc	2 765 15                // kernel/block/mas_blk_busy_idle_notify.c:765:15
	ldr	x21, [x21]
.Ltmp203:
	//DEBUG_VALUE: mas_blk_busyidle_check_request_bio:bio <- $x21
	.loc	2 766 3                 // kernel/block/mas_blk_busy_idle_notify.c:766:3
	cbnz	x21, .LBB8_2
.Ltmp204:
// %bb.3:
	//DEBUG_VALUE: mas_blk_busyidle_check_execute_request:q <- $x22
	//DEBUG_VALUE: mas_blk_busyidle_check_execute_request:rq <- $x20
	//DEBUG_VALUE: mas_blk_busyidle_check_execute_request:done <- $x19
	.loc	2 798 7                 // kernel/block/mas_blk_busy_idle_notify.c:798:7
	add	x8, x20, #608           // =608
	b	.LBB8_8
.Ltmp205:
.LBB8_4:
	//DEBUG_VALUE: mas_blk_busyidle_check_execute_request:rq <- $x20
	//DEBUG_VALUE: mas_blk_busyidle_check_execute_request:done <- $x19
	//DEBUG_VALUE: mas_blk_busyidle_check_execute_request:q <- $x0
	.loc	2 791 49                // kernel/block/mas_blk_busy_idle_notify.c:791:49
	ldr	x0, [x20, #64]
.Ltmp206:
	.loc	2 791 29 is_stmt 0      // kernel/block/mas_blk_busy_idle_notify.c:791:29
	bl	mas_blk_get_lld
.Ltmp207:
	.loc	141 306 16 is_stmt 1    // kernel/include/linux/spinlock.h:306:16
	add	x22, x0, #1552          // =1552
.Ltmp208:
	.loc	2 791 29                // kernel/block/mas_blk_busy_idle_notify.c:791:29
	mov	x21, x0
.Ltmp209:
	//DEBUG_VALUE: mas_blk_add_rq_to_counted_list:rq <- $x20
	//DEBUG_VALUE: spinlock_check:lock <- [DW_OP_plus_uconst 1552, DW_OP_stack_value] $x21
	//DEBUG_VALUE: mas_blk_add_rq_to_counted_list:lld <- $x21
	//DEBUG_VALUE: lld <- $x21
	//DEBUG_VALUE: blk_idle_to_busy:blk_idle <- [DW_OP_plus_uconst 1040, DW_OP_stack_value] $x21
	//DEBUG_VALUE: atomic_add:v <- [DW_OP_plus_uconst 1248, DW_OP_stack_value] $x21
	.loc	2 689 2                 // kernel/block/mas_blk_busy_idle_notify.c:689:2
	mov	x0, x22
	bl	_raw_spin_lock_irqsave
.Ltmp210:
	.loc	2 690 25                // kernel/block/mas_blk_busy_idle_notify.c:690:25
	ldr	x8, [x21, #1512]
.Ltmp211:
	.loc	142 93 24               // kernel/include/linux/list.h:93:24
	ldr	x11, [x21, #1544]
.Ltmp212:
	//DEBUG_VALUE: __list_add:prev <- $x11
	//DEBUG_VALUE: __list_add:next <- $x10
	//DEBUG_VALUE: __list_add:new <- $x9
	.loc	2 689 2                 // kernel/block/mas_blk_busy_idle_notify.c:689:2
	mov	x1, x0
.Ltmp213:
	//DEBUG_VALUE: mas_blk_add_rq_to_counted_list:flags <- $x1
	.loc	2 691 21                // kernel/block/mas_blk_busy_idle_notify.c:691:21
	add	x9, x20, #480           // =480
.Ltmp214:
	.loc	2 691 46 is_stmt 0      // kernel/block/mas_blk_busy_idle_notify.c:691:46
	add	x10, x21, #1536         // =1536
.Ltmp215:
	//DEBUG_VALUE: list_add_tail:head <- $x10
	//DEBUG_VALUE: list_add_tail:new <- $x9
	.loc	2 690 25 is_stmt 1      // kernel/block/mas_blk_busy_idle_notify.c:690:25
	add	x8, x8, #1              // =1
.Ltmp216:
	.loc	141 372 2               // kernel/include/linux/spinlock.h:372:2
	mov	x0, x22
.Ltmp217:
	.loc	142 63 13               // kernel/include/linux/list.h:63:13
	str	x9, [x21, #1544]
.Ltmp218:
	.loc	2 690 25                // kernel/block/mas_blk_busy_idle_notify.c:690:25
	str	x8, [x21, #1512]
.Ltmp219:
	.loc	142 64 12               // kernel/include/linux/list.h:64:12
	stp	x10, x11, [x20, #480]
	//DEBUG_VALUE: __list_add:prev <- $x11
	//DEBUG_VALUE: list_add_tail:head <- $x10
.Ltmp220:
	//DEBUG_VALUE: __list_add:next <- $x10
	//DEBUG_VALUE: list_add_tail:new <- $x9
	//DEBUG_VALUE: __list_add:new <- $x9
	//DEBUG_VALUE: __write_once_size:p <- $x11
	//DEBUG_VALUE: __write_once_size:size <- 8
	//DEBUG_VALUE: __write_once_size:res <- undef
	.loc	140 210 31              // kernel/include/linux/compiler.h:210:31
	str	x9, [x11]
.Ltmp221:
	//DEBUG_VALUE: spin_unlock_irqrestore:flags <- $x1
	//DEBUG_VALUE: spin_unlock_irqrestore:lock <- [DW_OP_plus_uconst 1552, DW_OP_stack_value] $x21
	.loc	141 372 2               // kernel/include/linux/spinlock.h:372:2
	bl	_raw_spin_unlock_irqrestore
.Ltmp222:
	//DEBUG_VALUE: blk_busy_count:lld <- $x21
	//DEBUG_VALUE: blk_busy_count:blk_idle <- [DW_OP_plus_uconst 1040, DW_OP_stack_value] $x21
	.loc	2 633 6                 // kernel/block/mas_blk_busy_idle_notify.c:633:6
	ldrb	w8, [x21, #24]
	tbz	w8, #3, .LBB8_7
.Ltmp223:
// %bb.5:
	//DEBUG_VALUE: blk_busy_count:blk_idle <- [DW_OP_plus_uconst 1040, DW_OP_stack_value] $x21
	//DEBUG_VALUE: blk_busy_count:lld <- $x21
	//DEBUG_VALUE: lld <- $x21
	//DEBUG_VALUE: mas_blk_busyidle_check_execute_request:rq <- $x20
	//DEBUG_VALUE: mas_blk_busyidle_check_execute_request:done <- $x19
	//DEBUG_VALUE: __read_once_size:res <- undef
	//DEBUG_VALUE: __read_once_size:size <- 4
	//DEBUG_VALUE: __read_once_size:p <- [DW_OP_plus_uconst 1248, DW_OP_stack_value] $x21
	.loc	140 183 2               // kernel/include/linux/compiler.h:183:2
	ldr	w8, [x21, #1248]
.Ltmp224:
	.loc	2 636 6                 // kernel/block/mas_blk_busy_idle_notify.c:636:6
	cbz	w8, .LBB8_9
.Ltmp225:
.LBB8_6:
	//DEBUG_VALUE: blk_busy_count:blk_idle <- [DW_OP_plus_uconst 1040, DW_OP_stack_value] $x21
	//DEBUG_VALUE: blk_busy_count:lld <- $x21
	//DEBUG_VALUE: lld <- $x21
	//DEBUG_VALUE: mas_blk_busyidle_check_execute_request:rq <- $x20
	//DEBUG_VALUE: mas_blk_busyidle_check_execute_request:done <- $x19
	//DEBUG_VALUE: atomic_add:i <- 1
	//DEBUG_LABEL: blk_busy_count:inc_iocount
	.loc	143 113 1               // kernel/arch/arm64/include/asm/atomic_ll_sc.h:113:1
	add	x8, x21, #1248          // =1248
	//APP
	// atomic_add
	prfm	pstl1strm, [x8]
1:	ldxr	w9, [x8]
	add	w9, w9, #1
	stxr	w10, w9, [x8]
	cbnz	w10, 1b
	//NO_APP
.Ltmp226:
	//DEBUG_VALUE: atomic_add:tmp <- undef
	//DEBUG_VALUE: atomic_add:result <- undef
.LBB8_7:
	//DEBUG_VALUE: lld <- $x21
	//DEBUG_VALUE: mas_blk_busyidle_check_execute_request:rq <- $x20
	//DEBUG_VALUE: mas_blk_busyidle_check_execute_request:done <- $x19
	.loc	2 795 14                // kernel/block/mas_blk_busy_idle_notify.c:795:14
	adrp	x8, __cfi_mas_blk_busyidle_end_rq
	add	x8, x8, :lo12:__cfi_mas_blk_busyidle_end_rq
	str	x8, [x20, #608]
	.loc	2 796 15                // kernel/block/mas_blk_busy_idle_notify.c:796:15
	add	x8, x20, #296           // =296
.Ltmp227:
.LBB8_8:
	//DEBUG_VALUE: mas_blk_busyidle_check_execute_request:rq <- $x20
	//DEBUG_VALUE: mas_blk_busyidle_check_execute_request:done <- $x19
	.loc	2 0 0 is_stmt 0         // kernel/block/mas_blk_busy_idle_notify.c:0:0
	str	x19, [x8]
.Ltmp228:
	.loc	2 800 1 is_stmt 1       // kernel/block/mas_blk_busy_idle_notify.c:800:1
	ldp	x29, x30, [sp, #32]     // 16-byte Folded Reload
	ldp	x20, x19, [sp, #16]     // 16-byte Folded Reload
.Ltmp229:
	ldp	x22, x21, [sp], #48     // 16-byte Folded Reload
	ret
.LBB8_9:
.Ltmp230:
	//DEBUG_VALUE: blk_busy_count:blk_idle <- [DW_OP_plus_uconst 1040, DW_OP_stack_value] $x21
	//DEBUG_VALUE: blk_busy_count:lld <- $x21
	//DEBUG_VALUE: lld <- $x21
	//DEBUG_VALUE: mas_blk_busyidle_check_execute_request:rq <- $x20
	//DEBUG_VALUE: mas_blk_busyidle_check_execute_request:done <- $x19
	.loc	2 639 24                // kernel/block/mas_blk_busy_idle_notify.c:639:24
	add	x22, x21, #1256         // =1256
	.loc	2 639 2 is_stmt 0       // kernel/block/mas_blk_busy_idle_notify.c:639:2
	mov	x0, x22
	bl	mutex_lock
	.loc	2 640 33 is_stmt 1      // kernel/block/mas_blk_busy_idle_notify.c:640:33
	add	x0, x21, #1048          // =1048
	.loc	2 640 2 is_stmt 0       // kernel/block/mas_blk_busy_idle_notify.c:640:2
	bl	cancel_delayed_work
.Ltmp231:
	.loc	2 646 16 is_stmt 1      // kernel/block/mas_blk_busy_idle_notify.c:646:16
	ldr	w8, [x21, #1320]
.Ltmp232:
	.loc	2 646 6 is_stmt 0       // kernel/block/mas_blk_busy_idle_notify.c:646:6
	cmp	w8, #1                  // =1
	b.ne	.LBB8_11
.Ltmp233:
// %bb.10:
	//DEBUG_VALUE: blk_busy_count:blk_idle <- [DW_OP_plus_uconst 1040, DW_OP_stack_value] $x21
	//DEBUG_VALUE: blk_busy_count:lld <- $x21
	//DEBUG_VALUE: lld <- $x21
	//DEBUG_VALUE: mas_blk_busyidle_check_execute_request:rq <- $x20
	//DEBUG_VALUE: mas_blk_busyidle_check_execute_request:done <- $x19
	.loc	2 626 42 is_stmt 1      // kernel/block/mas_blk_busy_idle_notify.c:626:42
	add	x0, x21, #1168          // =1168
	.loc	2 626 2 is_stmt 0       // kernel/block/mas_blk_busy_idle_notify.c:626:2
	mov	x1, xzr
	mov	x2, xzr
	.loc	2 615 23 is_stmt 1      // kernel/block/mas_blk_busy_idle_notify.c:615:23
	str	wzr, [x21, #1320]
	.loc	2 626 2                 // kernel/block/mas_blk_busy_idle_notify.c:626:2
	bl	blocking_notifier_call_chain
.Ltmp234:
.LBB8_11:
	//DEBUG_VALUE: blk_busy_count:blk_idle <- [DW_OP_plus_uconst 1040, DW_OP_stack_value] $x21
	//DEBUG_VALUE: blk_busy_count:lld <- $x21
	//DEBUG_VALUE: lld <- $x21
	//DEBUG_VALUE: mas_blk_busyidle_check_execute_request:rq <- $x20
	//DEBUG_VALUE: mas_blk_busyidle_check_execute_request:done <- $x19
	.loc	2 649 2                 // kernel/block/mas_blk_busy_idle_notify.c:649:2
	mov	x0, x22
	bl	mutex_unlock
	b	.LBB8_6
.Ltmp235:
.Lfunc_end8:
	.size	mas_blk_busyidle_check_execute_request, .Lfunc_end8-mas_blk_busyidle_check_execute_request
	.cfi_endproc
                                        // -- End function
	.section	.text.mas_blk_busyidle_check_bio_endio,"ax",@progbits
	.hidden	mas_blk_busyidle_check_bio_endio // -- Begin function mas_blk_busyidle_check_bio_endio
	.globl	mas_blk_busyidle_check_bio_endio
	.p2align	2
	.type	mas_blk_busyidle_check_bio_endio,@function
mas_blk_busyidle_check_bio_endio:       // @mas_blk_busyidle_check_bio_endio
.Lfunc_begin9:
	.loc	2 806 0                 // kernel/block/mas_blk_busy_idle_notify.c:806:0
	.cfi_startproc
// %bb.0:
	//DEBUG_VALUE: mas_blk_busyidle_check_bio_endio:bio <- $x0
	stp	x22, x21, [sp, #-48]!   // 16-byte Folded Spill
	stp	x20, x19, [sp, #16]     // 16-byte Folded Spill
	stp	x29, x30, [sp, #32]     // 16-byte Folded Spill
	add	x29, sp, #32            // =32
	.cfi_def_cfa w29, 16
	.cfi_offset w30, -8
	.cfi_offset w29, -16
	.cfi_offset w19, -24
	.cfi_offset w20, -32
	.cfi_offset w21, -40
	.cfi_offset w22, -48
.Ltmp236:
	.loc	2 808 8 prologue_end    // kernel/block/mas_blk_busy_idle_notify.c:808:8
	ldr	x8, [x0, #8]
	.loc	2 808 3 is_stmt 0       // kernel/block/mas_blk_busy_idle_notify.c:808:3
	add	x9, x0, #96             // =96
	mov	x20, x0
.Ltmp237:
	//DEBUG_VALUE: mas_blk_busyidle_check_bio_endio:bio <- $x20
	add	x10, x8, #1120          // =1120
	cmp	x8, #0                  // =0
	csel	x8, x9, x10, eq
	ldr	x0, [x8]
.Ltmp238:
	//DEBUG_VALUE: mas_blk_busyidle_check_bio_endio:q <- $x0
	.loc	2 809 28 is_stmt 1      // kernel/block/mas_blk_busy_idle_notify.c:809:28
	bl	mas_blk_get_lld
.Ltmp239:
	.loc	2 726 48                // kernel/block/mas_blk_busy_idle_notify.c:726:48
	ldrb	w8, [x0, #25]
.Ltmp240:
	.loc	2 809 28                // kernel/block/mas_blk_busy_idle_notify.c:809:28
	mov	x19, x0
.Ltmp241:
	//DEBUG_VALUE: mas_blk_fg_io_check_idle:bio <- $x20
	//DEBUG_VALUE: mas_blk_fg_io_check_idle:q <- undef
	//DEBUG_VALUE: mas_blk_fg_io_check_idle:lld <- $x19
	//DEBUG_VALUE: mas_blk_busyidle_check_bio_endio:lld <- $x19
	//DEBUG_VALUE: blk_fg_io_idle_count:lld <- $x19
	//DEBUG_VALUE: atomic_sub_return:v <- [DW_OP_plus_uconst 1428, DW_OP_stack_value] $x19
	//DEBUG_VALUE: blk_lld_fg_io_idle_notify:lld <- $x19
	//DEBUG_VALUE: mas_blk_remove_bio_from_counted_list:lld <- $x19
	//DEBUG_VALUE: spinlock_check:lock <- [DW_OP_plus_uconst 1552, DW_OP_stack_value] $x19
	//DEBUG_VALUE: spin_unlock_irqrestore:lock <- [DW_OP_plus_uconst 1552, DW_OP_stack_value] $x19
	//DEBUG_VALUE: blk_idle_count:lld <- $x19
	//DEBUG_VALUE: blk_idle_count:blk_idle <- [DW_OP_plus_uconst 1040, DW_OP_stack_value] $x19
	//DEBUG_VALUE: atomic_sub_return:v <- [DW_OP_plus_uconst 1248, DW_OP_stack_value] $x19
	//DEBUG_VALUE: blk_lld_idle_notify:lld <- $x19
	.loc	2 726 48                // kernel/block/mas_blk_busy_idle_notify.c:726:48
	tbz	w8, #0, .LBB9_6
.Ltmp242:
// %bb.1:
	//DEBUG_VALUE: mas_blk_busyidle_check_bio_endio:lld <- $x19
	//DEBUG_VALUE: mas_blk_fg_io_check_idle:lld <- $x19
	//DEBUG_VALUE: mas_blk_fg_io_check_idle:bio <- $x20
	//DEBUG_VALUE: mas_blk_busyidle_check_bio_endio:bio <- $x20
	.loc	2 726 64 is_stmt 0      // kernel/block/mas_blk_busy_idle_notify.c:726:64
	ldrb	w8, [x20, #290]
	.loc	2 726 70                // kernel/block/mas_blk_busy_idle_notify.c:726:70
	cbz	w8, .LBB9_6
.Ltmp243:
// %bb.2:
	//DEBUG_VALUE: mas_blk_busyidle_check_bio_endio:lld <- $x19
	//DEBUG_VALUE: mas_blk_fg_io_check_idle:lld <- $x19
	//DEBUG_VALUE: mas_blk_fg_io_check_idle:bio <- $x20
	//DEBUG_VALUE: mas_blk_busyidle_check_bio_endio:bio <- $x20
	.loc	2 727 18 is_stmt 1      // kernel/block/mas_blk_busy_idle_notify.c:727:18
	ldrb	w8, [x20, #144]
.Ltmp244:
	.loc	2 726 6                 // kernel/block/mas_blk_busy_idle_notify.c:726:6
	tbz	w8, #5, .LBB9_6
.Ltmp245:
// %bb.3:
	//DEBUG_VALUE: mas_blk_busyidle_check_bio_endio:lld <- $x19
	//DEBUG_VALUE: mas_blk_fg_io_check_idle:lld <- $x19
	//DEBUG_VALUE: mas_blk_fg_io_check_idle:bio <- $x20
	//DEBUG_VALUE: mas_blk_busyidle_check_bio_endio:bio <- $x20
	.loc	2 728 28                // kernel/block/mas_blk_busy_idle_notify.c:728:28
	and	w8, w8, #0xffffffdf
	strb	w8, [x20, #144]
.Ltmp246:
	//DEBUG_VALUE: blk_fg_io_idle_count:q <- undef
	.loc	2 379 6                 // kernel/block/mas_blk_busy_idle_notify.c:379:6
	ldr	w8, [x19, #24]
	mov	w9, #264
	mvn	w8, w8
.Ltmp247:
	.loc	2 379 6 is_stmt 0       // kernel/block/mas_blk_busy_idle_notify.c:379:6
	tst	x8, x9
	b.ne	.LBB9_6
.Ltmp248:
// %bb.4:
	//DEBUG_VALUE: mas_blk_busyidle_check_bio_endio:lld <- $x19
	//DEBUG_VALUE: mas_blk_fg_io_check_idle:lld <- $x19
	//DEBUG_VALUE: mas_blk_fg_io_check_idle:bio <- $x20
	//DEBUG_VALUE: mas_blk_busyidle_check_bio_endio:bio <- $x20
	//DEBUG_VALUE: __read_once_size:res <- undef
	//DEBUG_VALUE: __read_once_size:size <- 4
	.loc	140 183 2 is_stmt 1     // kernel/include/linux/compiler.h:183:2
	ldr	w8, [x19, #1428]
.Ltmp249:
	.loc	2 385 6                 // kernel/block/mas_blk_busy_idle_notify.c:385:6
	cbz	w8, .LBB9_17
.Ltmp250:
// %bb.5:
	//DEBUG_VALUE: mas_blk_busyidle_check_bio_endio:lld <- $x19
	//DEBUG_VALUE: mas_blk_fg_io_check_idle:lld <- $x19
	//DEBUG_VALUE: mas_blk_fg_io_check_idle:bio <- $x20
	//DEBUG_VALUE: mas_blk_busyidle_check_bio_endio:bio <- $x20
	.loc	2 0 0 is_stmt 0         // kernel/block/mas_blk_busy_idle_notify.c:0:0
	add	x8, x19, #1428          // =1428
.Ltmp251:
	//DEBUG_VALUE: atomic_sub_return:i <- 1
	//DEBUG_VALUE: __read_once_size:p <- $x8
	.loc	143 114 1 is_stmt 1     // kernel/arch/arm64/include/asm/atomic_ll_sc.h:114:1
	//APP
	// atomic_sub_return
	prfm	pstl1strm, [x8]
1:	ldxr	w9, [x8]
	sub	w9, w9, #1
	stlxr	w10, w9, [x8]
	cbnz	w10, 1b
	dmb ish
	//NO_APP
.Ltmp252:
	//DEBUG_VALUE: atomic_sub_return:tmp <- undef
	//DEBUG_VALUE: atomic_sub_return:result <- $w9
	.loc	2 394 6                 // kernel/block/mas_blk_busy_idle_notify.c:394:6
	cbz	w9, .LBB9_18
.Ltmp253:
.LBB9_6:
	//DEBUG_VALUE: mas_blk_busyidle_check_bio_endio:lld <- $x19
	//DEBUG_VALUE: mas_blk_busyidle_check_bio_endio:bio <- $x20
	.loc	2 814 6                 // kernel/block/mas_blk_busy_idle_notify.c:814:6
	ldrb	w8, [x20, #144]
.Ltmp254:
	.loc	2 814 6 is_stmt 0       // kernel/block/mas_blk_busy_idle_notify.c:814:6
	tbz	w8, #0, .LBB9_13
.Ltmp255:
.LBB9_7:
	//DEBUG_VALUE: mas_blk_busyidle_check_bio_endio:lld <- $x19
	//DEBUG_VALUE: mas_blk_busyidle_check_bio_endio:bio <- $x20
	//DEBUG_VALUE: mas_blk_remove_bio_from_counted_list:bio <- $x20
	.loc	2 671 6 is_stmt 1       // kernel/block/mas_blk_busy_idle_notify.c:671:6
	ldr	x8, [x19, #1504]
.Ltmp256:
	.loc	2 671 6 is_stmt 0       // kernel/block/mas_blk_busy_idle_notify.c:671:6
	cbz	x8, .LBB9_9
.Ltmp257:
// %bb.8:
	//DEBUG_VALUE: mas_blk_remove_bio_from_counted_list:bio <- $x20
	//DEBUG_VALUE: mas_blk_busyidle_check_bio_endio:lld <- $x19
	//DEBUG_VALUE: mas_blk_busyidle_check_bio_endio:bio <- $x20
	.loc	141 306 16 is_stmt 1    // kernel/include/linux/spinlock.h:306:16
	add	x21, x19, #1552         // =1552
.Ltmp258:
	.loc	2 678 2                 // kernel/block/mas_blk_busy_idle_notify.c:678:2
	mov	x0, x21
	bl	_raw_spin_lock_irqsave
.Ltmp259:
	.loc	2 679 25                // kernel/block/mas_blk_busy_idle_notify.c:679:25
	ldr	x8, [x19, #1504]
.Ltmp260:
	.loc	2 678 2                 // kernel/block/mas_blk_busy_idle_notify.c:678:2
	mov	x1, x0
.Ltmp261:
	//DEBUG_VALUE: mas_blk_remove_bio_from_counted_list:flags <- $x1
	.loc	2 680 22                // kernel/block/mas_blk_busy_idle_notify.c:680:22
	add	x10, x20, #296          // =296
.Ltmp262:
	//DEBUG_VALUE: __list_del_entry:entry <- $x10
	//DEBUG_VALUE: list_del_init:entry <- $x10
	//DEBUG_VALUE: __list_del:prev <- $x9
	//DEBUG_VALUE: __list_del:next <- $x8
	.loc	141 372 2               // kernel/include/linux/spinlock.h:372:2
	mov	x0, x21
.Ltmp263:
	.loc	2 679 25                // kernel/block/mas_blk_busy_idle_notify.c:679:25
	sub	x8, x8, #1              // =1
.Ltmp264:
	str	x8, [x19, #1504]
.Ltmp265:
	.loc	142 120 33              // kernel/include/linux/list.h:120:33
	ldp	x8, x9, [x20, #296]
.Ltmp266:
	.loc	142 105 13              // kernel/include/linux/list.h:105:13
	str	x9, [x8, #8]
.Ltmp267:
	//DEBUG_VALUE: __write_once_size:p <- $x9
	//DEBUG_VALUE: __write_once_size:size <- 8
	//DEBUG_VALUE: __write_once_size:res <- undef
	.loc	140 210 31              // kernel/include/linux/compiler.h:210:31
	str	x8, [x9]
.Ltmp268:
	//DEBUG_VALUE: __write_once_size:p <- $x10
	//DEBUG_VALUE: __write_once_size:size <- 8
	//DEBUG_VALUE: __write_once_size:res <- undef
	//DEBUG_VALUE: INIT_LIST_HEAD:list <- $x10
	.loc	140 210 31 is_stmt 0    // kernel/include/linux/compiler.h:210:31
	str	x10, [x20, #296]
.Ltmp269:
	.loc	142 29 13 is_stmt 1     // kernel/include/linux/list.h:29:13
	str	x10, [x20, #304]
.Ltmp270:
	//DEBUG_VALUE: spin_unlock_irqrestore:flags <- $x1
	.loc	141 372 2               // kernel/include/linux/spinlock.h:372:2
	bl	_raw_spin_unlock_irqrestore
.Ltmp271:
.LBB9_9:
	//DEBUG_VALUE: mas_blk_busyidle_check_bio_endio:lld <- $x19
	//DEBUG_VALUE: mas_blk_busyidle_check_bio_endio:bio <- $x20
	.loc	2 819 27                // kernel/block/mas_blk_busy_idle_notify.c:819:27
	strb	wzr, [x20, #144]
.Ltmp272:
	.loc	2 596 6                 // kernel/block/mas_blk_busy_idle_notify.c:596:6
	ldrb	w8, [x19, #24]
	tbz	w8, #3, .LBB9_13
.Ltmp273:
// %bb.10:
	//DEBUG_VALUE: mas_blk_busyidle_check_bio_endio:lld <- $x19
	//DEBUG_VALUE: mas_blk_busyidle_check_bio_endio:bio <- $x20
	.loc	2 599 16                // kernel/block/mas_blk_busy_idle_notify.c:599:16
	ldrb	w8, [x19, #1040]
.Ltmp274:
	.loc	2 599 6 is_stmt 0       // kernel/block/mas_blk_busy_idle_notify.c:599:6
	cbnz	w8, .LBB9_13
.Ltmp275:
// %bb.11:
	//DEBUG_VALUE: mas_blk_busyidle_check_bio_endio:lld <- $x19
	//DEBUG_VALUE: mas_blk_busyidle_check_bio_endio:bio <- $x20
	//DEBUG_VALUE: __read_once_size:res <- undef
	//DEBUG_VALUE: __read_once_size:size <- 4
	//DEBUG_VALUE: __read_once_size:p <- [DW_OP_plus_uconst 1248, DW_OP_stack_value] $x19
	.loc	140 183 2 is_stmt 1     // kernel/include/linux/compiler.h:183:2
	ldr	w8, [x19, #1248]
.Ltmp276:
	.loc	2 601 6                 // kernel/block/mas_blk_busy_idle_notify.c:601:6
	cbz	w8, .LBB9_14
.Ltmp277:
// %bb.12:
	//DEBUG_VALUE: mas_blk_busyidle_check_bio_endio:lld <- $x19
	//DEBUG_VALUE: mas_blk_busyidle_check_bio_endio:bio <- $x20
	//DEBUG_VALUE: atomic_sub_return:i <- 1
	.loc	143 114 1               // kernel/arch/arm64/include/asm/atomic_ll_sc.h:114:1
	add	x8, x19, #1248          // =1248
	//APP
	// atomic_sub_return
	prfm	pstl1strm, [x8]
1:	ldxr	w9, [x8]
	sub	w9, w9, #1
	stlxr	w10, w9, [x8]
	cbnz	w10, 1b
	dmb ish
	//NO_APP
.Ltmp278:
	//DEBUG_VALUE: atomic_sub_return:tmp <- undef
	//DEBUG_VALUE: atomic_sub_return:result <- $w9
	.loc	2 609 6                 // kernel/block/mas_blk_busy_idle_notify.c:609:6
	cbz	w9, .LBB9_15
.Ltmp279:
.LBB9_13:
	.loc	2 822 1                 // kernel/block/mas_blk_busy_idle_notify.c:822:1
	ldp	x29, x30, [sp, #32]     // 16-byte Folded Reload
	ldp	x20, x19, [sp, #16]     // 16-byte Folded Reload
	ldp	x22, x21, [sp], #48     // 16-byte Folded Reload
	ret
.LBB9_14:
.Ltmp280:
	//DEBUG_VALUE: mas_blk_busyidle_check_bio_endio:lld <- $x19
	//DEBUG_VALUE: mas_blk_busyidle_check_bio_endio:bio <- $x20
	.loc	2 602 3                 // kernel/block/mas_blk_busy_idle_notify.c:602:3
	adrp	x0, .L.str.12
	adrp	x1, .L__func__.blk_idle_count
	add	x0, x0, :lo12:.L.str.12
	add	x1, x1, :lo12:.L__func__.blk_idle_count
	bl	printk
	b	.LBB9_13
.Ltmp281:
.LBB9_15:
	//DEBUG_VALUE: mas_blk_busyidle_check_bio_endio:lld <- $x19
	//DEBUG_VALUE: mas_blk_busyidle_check_bio_endio:bio <- $x20
	.loc	2 441 6                 // kernel/block/mas_blk_busy_idle_notify.c:441:6
	ldr	w8, [x19]
.Ltmp282:
	.loc	2 441 6 is_stmt 0       // kernel/block/mas_blk_busy_idle_notify.c:441:6
	cmp	w8, #122                // =122
	b.ne	.LBB9_13
.Ltmp283:
// %bb.16:
	//DEBUG_VALUE: mas_blk_busyidle_check_bio_endio:lld <- $x19
	//DEBUG_VALUE: mas_blk_busyidle_check_bio_endio:bio <- $x20
	.loc	2 442 22 is_stmt 1      // kernel/block/mas_blk_busy_idle_notify.c:442:22
	adrp	x8, blk_idle_notify_workqueue
	.loc	2 445 35                // kernel/block/mas_blk_busy_idle_notify.c:445:35
	ldr	w0, [x19, #1144]
	.loc	2 442 22                // kernel/block/mas_blk_busy_idle_notify.c:442:22
	ldr	x20, [x8, :lo12:blk_idle_notify_workqueue]
.Ltmp284:
	.loc	2 444 6                 // kernel/block/mas_blk_busy_idle_notify.c:444:6
	add	x19, x19, #1048         // =1048
.Ltmp285:
	//DEBUG_VALUE: msecs_to_jiffies:m <- $w0
	.loc	139 370 10              // kernel/include/linux/jiffies.h:370:10
	bl	__msecs_to_jiffies
.Ltmp286:
	mov	x3, x0
.Ltmp287:
	//DEBUG_VALUE: queue_delayed_work:delay <- $x3
	//DEBUG_VALUE: queue_delayed_work:dwork <- $x19
	//DEBUG_VALUE: queue_delayed_work:wq <- $x20
	.loc	20 506 9                // kernel/include/linux/workqueue.h:506:9
	orr	w0, wzr, #0x8
	mov	x1, x20
	mov	x2, x19
	bl	queue_delayed_work_on
.Ltmp288:
	.loc	20 0 9 is_stmt 0        // kernel/include/linux/workqueue.h:0:9
	b	.LBB9_13
.Ltmp289:
.LBB9_17:
	//DEBUG_VALUE: mas_blk_busyidle_check_bio_endio:lld <- $x19
	//DEBUG_VALUE: mas_blk_fg_io_check_idle:lld <- $x19
	//DEBUG_VALUE: mas_blk_fg_io_check_idle:bio <- $x20
	//DEBUG_VALUE: mas_blk_busyidle_check_bio_endio:bio <- $x20
	.loc	2 386 3 is_stmt 1       // kernel/block/mas_blk_busy_idle_notify.c:386:3
	adrp	x0, .L.str.13
	adrp	x1, .L__func__.blk_fg_io_idle_count
	add	x0, x0, :lo12:.L.str.13
	add	x1, x1, :lo12:.L__func__.blk_fg_io_idle_count
	bl	printk
.Ltmp290:
	.loc	2 814 6                 // kernel/block/mas_blk_busy_idle_notify.c:814:6
	ldrb	w8, [x20, #144]
.Ltmp291:
	.loc	2 814 6 is_stmt 0       // kernel/block/mas_blk_busy_idle_notify.c:814:6
	tbnz	w8, #0, .LBB9_7
	b	.LBB9_13
.Ltmp292:
.LBB9_18:
	//DEBUG_VALUE: mas_blk_busyidle_check_bio_endio:lld <- $x19
	//DEBUG_VALUE: mas_blk_fg_io_check_idle:lld <- $x19
	//DEBUG_VALUE: mas_blk_fg_io_check_idle:bio <- $x20
	//DEBUG_VALUE: mas_blk_busyidle_check_bio_endio:bio <- $x20
	.loc	2 370 6 is_stmt 1       // kernel/block/mas_blk_busy_idle_notify.c:370:6
	ldr	w8, [x19]
.Ltmp293:
	.loc	2 370 6 is_stmt 0       // kernel/block/mas_blk_busy_idle_notify.c:370:6
	cmp	w8, #122                // =122
	b.ne	.LBB9_6
.Ltmp294:
// %bb.19:
	//DEBUG_VALUE: mas_blk_busyidle_check_bio_endio:lld <- $x19
	//DEBUG_VALUE: mas_blk_fg_io_check_idle:lld <- $x19
	//DEBUG_VALUE: mas_blk_fg_io_check_idle:bio <- $x20
	//DEBUG_VALUE: mas_blk_busyidle_check_bio_endio:bio <- $x20
	.loc	2 371 22 is_stmt 1      // kernel/block/mas_blk_busy_idle_notify.c:371:22
	adrp	x8, blk_fg_io_idle_notify_workqueue
	.loc	2 373 35                // kernel/block/mas_blk_busy_idle_notify.c:373:35
	ldr	w0, [x19, #1424]
	.loc	2 371 22                // kernel/block/mas_blk_busy_idle_notify.c:371:22
	ldr	x21, [x8, :lo12:blk_fg_io_idle_notify_workqueue]
	.loc	2 372 19                // kernel/block/mas_blk_busy_idle_notify.c:372:19
	add	x22, x19, #1328         // =1328
.Ltmp295:
	//DEBUG_VALUE: msecs_to_jiffies:m <- $w0
	.loc	139 370 10              // kernel/include/linux/jiffies.h:370:10
	bl	__msecs_to_jiffies
.Ltmp296:
	mov	x3, x0
.Ltmp297:
	//DEBUG_VALUE: queue_delayed_work:delay <- $x3
	//DEBUG_VALUE: queue_delayed_work:dwork <- $x22
	//DEBUG_VALUE: queue_delayed_work:wq <- $x21
	.loc	20 506 9                // kernel/include/linux/workqueue.h:506:9
	orr	w0, wzr, #0x8
	mov	x1, x21
	mov	x2, x22
	bl	queue_delayed_work_on
.Ltmp298:
	.loc	2 814 6                 // kernel/block/mas_blk_busy_idle_notify.c:814:6
	ldrb	w8, [x20, #144]
.Ltmp299:
	.loc	2 814 6 is_stmt 0       // kernel/block/mas_blk_busy_idle_notify.c:814:6
	tbnz	w8, #0, .LBB9_7
	b	.LBB9_13
.Ltmp300:
.Lfunc_end9:
	.size	mas_blk_busyidle_check_bio_endio, .Lfunc_end9-mas_blk_busyidle_check_bio_endio
	.cfi_endproc
                                        // -- End function
	.section	.text.blk_busyidle_event_subscribe,"ax",@progbits
	.hidden	blk_busyidle_event_subscribe // -- Begin function blk_busyidle_event_subscribe
	.globl	blk_busyidle_event_subscribe
	.p2align	2
	.type	blk_busyidle_event_subscribe,@function
blk_busyidle_event_subscribe:           // @blk_busyidle_event_subscribe
.Lfunc_begin10:
	.loc	2 830 0 is_stmt 1       // kernel/block/mas_blk_busy_idle_notify.c:830:0
	.cfi_startproc
// %bb.0:
	//DEBUG_VALUE: blk_busyidle_event_subscribe:bdev <- $x0
	//DEBUG_VALUE: blk_busyidle_event_subscribe:event_node <- $x1
	str	x19, [sp, #-32]!        // 8-byte Folded Spill
	stp	x29, x30, [sp, #16]     // 16-byte Folded Spill
	add	x29, sp, #16            // =16
	.cfi_def_cfa w29, 16
	.cfi_offset w30, -8
	.cfi_offset w29, -16
	.cfi_offset w19, -32
	mov	x8, x0
	mov	w0, #-22
.Ltmp301:
	//DEBUG_VALUE: blk_busyidle_event_subscribe:bdev <- $x8
	.loc	2 831 12 prologue_end   // kernel/block/mas_blk_busy_idle_notify.c:831:12
	cbz	x8, .LBB10_5
.Ltmp302:
// %bb.1:
	//DEBUG_VALUE: blk_busyidle_event_subscribe:bdev <- $x8
	//DEBUG_VALUE: blk_busyidle_event_subscribe:event_node <- $x1
	.loc	2 0 12 is_stmt 0        // kernel/block/mas_blk_busy_idle_notify.c:0:12
	mov	x19, x1
.Ltmp303:
	//DEBUG_VALUE: blk_busyidle_event_subscribe:event_node <- $x19
	.loc	2 831 12                // kernel/block/mas_blk_busy_idle_notify.c:831:12
	cbz	x1, .LBB10_5
.Ltmp304:
// %bb.2:
	//DEBUG_VALUE: blk_busyidle_event_subscribe:event_node <- $x19
	//DEBUG_VALUE: blk_busyidle_event_subscribe:bdev <- $x8
	//DEBUG_VALUE: bdev_get_queue:bdev <- $x8
	.loc	3 1748 15 is_stmt 1     // kernel/include/linux/blkdev.h:1748:15
	ldr	x8, [x8, #160]
.Ltmp305:
	.loc	3 1748 24 is_stmt 0     // kernel/include/linux/blkdev.h:1748:24
	ldr	x0, [x8, #1120]
.Ltmp306:
	//DEBUG_VALUE: blk_queue_busyidle_event_subscribe:event_node <- $x19
	//DEBUG_VALUE: blk_queue_busyidle_event_subscribe:q <- $x0
	.loc	2 845 9 is_stmt 1       // kernel/block/mas_blk_busy_idle_notify.c:845:9
	cbz	x0, .LBB10_4
.Ltmp307:
// %bb.3:
	//DEBUG_VALUE: blk_queue_busyidle_event_subscribe:q <- $x0
	//DEBUG_VALUE: blk_queue_busyidle_event_subscribe:event_node <- $x19
	//DEBUG_VALUE: blk_busyidle_event_subscribe:event_node <- $x19
	.loc	2 849 3                 // kernel/block/mas_blk_busy_idle_notify.c:849:3
	bl	mas_blk_get_lld
.Ltmp308:
	.loc	2 848 9                 // kernel/block/mas_blk_busy_idle_notify.c:848:9
	mov	x1, x19
	bl	blk_lld_busyidle_event_subscribe
	b	.LBB10_5
.Ltmp309:
.LBB10_4:
	//DEBUG_VALUE: blk_queue_busyidle_event_subscribe:q <- $x0
	//DEBUG_VALUE: blk_queue_busyidle_event_subscribe:event_node <- $x19
	//DEBUG_VALUE: blk_busyidle_event_subscribe:event_node <- $x19
	.loc	2 0 9 is_stmt 0         // kernel/block/mas_blk_busy_idle_notify.c:0:9
	mov	w0, #-22
.Ltmp310:
.LBB10_5:
	.loc	2 836 1 is_stmt 1       // kernel/block/mas_blk_busy_idle_notify.c:836:1
	ldp	x29, x30, [sp, #16]     // 16-byte Folded Reload
	ldr	x19, [sp], #32          // 8-byte Folded Reload
	ret
.Ltmp311:
.Lfunc_end10:
	.size	blk_busyidle_event_subscribe, .Lfunc_end10-blk_busyidle_event_subscribe
	.cfi_endproc
                                        // -- End function
	.section	.text.blk_queue_busyidle_event_subscribe,"ax",@progbits
	.hidden	blk_queue_busyidle_event_subscribe // -- Begin function blk_queue_busyidle_event_subscribe
	.globl	blk_queue_busyidle_event_subscribe
	.p2align	2
	.type	blk_queue_busyidle_event_subscribe,@function
blk_queue_busyidle_event_subscribe:     // @blk_queue_busyidle_event_subscribe
.Lfunc_begin11:
	.loc	2 844 0                 // kernel/block/mas_blk_busy_idle_notify.c:844:0
	.cfi_startproc
// %bb.0:
	//DEBUG_VALUE: blk_queue_busyidle_event_subscribe:q <- $x0
	//DEBUG_VALUE: blk_queue_busyidle_event_subscribe:event_node <- $x1
	str	x19, [sp, #-32]!        // 8-byte Folded Spill
	stp	x29, x30, [sp, #16]     // 16-byte Folded Spill
	add	x29, sp, #16            // =16
	.cfi_def_cfa w29, 16
	.cfi_offset w30, -8
	.cfi_offset w29, -16
	.cfi_offset w19, -32
	mov	x8, x0
	mov	w0, #-22
.Ltmp312:
	//DEBUG_VALUE: blk_queue_busyidle_event_subscribe:q <- $x8
	.loc	2 845 9 prologue_end    // kernel/block/mas_blk_busy_idle_notify.c:845:9
	cbz	x8, .LBB11_3
.Ltmp313:
// %bb.1:
	//DEBUG_VALUE: blk_queue_busyidle_event_subscribe:q <- $x8
	//DEBUG_VALUE: blk_queue_busyidle_event_subscribe:event_node <- $x1
	.loc	2 0 9 is_stmt 0         // kernel/block/mas_blk_busy_idle_notify.c:0:9
	mov	x19, x1
.Ltmp314:
	//DEBUG_VALUE: blk_queue_busyidle_event_subscribe:event_node <- $x19
	.loc	2 845 9                 // kernel/block/mas_blk_busy_idle_notify.c:845:9
	cbz	x1, .LBB11_3
.Ltmp315:
// %bb.2:
	//DEBUG_VALUE: blk_queue_busyidle_event_subscribe:event_node <- $x19
	//DEBUG_VALUE: blk_queue_busyidle_event_subscribe:q <- $x8
	.loc	2 849 3 is_stmt 1       // kernel/block/mas_blk_busy_idle_notify.c:849:3
	mov	x0, x8
	bl	mas_blk_get_lld
.Ltmp316:
	.loc	2 848 9                 // kernel/block/mas_blk_busy_idle_notify.c:848:9
	mov	x1, x19
	bl	blk_lld_busyidle_event_subscribe
.Ltmp317:
.LBB11_3:
	.loc	2 851 1                 // kernel/block/mas_blk_busy_idle_notify.c:851:1
	ldp	x29, x30, [sp, #16]     // 16-byte Folded Reload
	ldr	x19, [sp], #32          // 8-byte Folded Reload
	ret
.Ltmp318:
.Lfunc_end11:
	.size	blk_queue_busyidle_event_subscribe, .Lfunc_end11-blk_queue_busyidle_event_subscribe
	.cfi_endproc
                                        // -- End function
	.section	.text.blk_lld_busyidle_event_subscribe,"ax",@progbits
	.hidden	blk_lld_busyidle_event_subscribe // -- Begin function blk_lld_busyidle_event_subscribe
	.globl	blk_lld_busyidle_event_subscribe
	.p2align	2
	.type	blk_lld_busyidle_event_subscribe,@function
blk_lld_busyidle_event_subscribe:       // @blk_lld_busyidle_event_subscribe
.Lfunc_begin12:
	.loc	2 859 0                 // kernel/block/mas_blk_busy_idle_notify.c:859:0
	.cfi_startproc
// %bb.0:
	//DEBUG_VALUE: blk_lld_busyidle_event_subscribe:lld <- $x0
	//DEBUG_VALUE: blk_lld_busyidle_event_subscribe:event_node <- $x1
	stp	x24, x23, [sp, #-64]!   // 16-byte Folded Spill
	stp	x22, x21, [sp, #16]     // 16-byte Folded Spill
	stp	x20, x19, [sp, #32]     // 16-byte Folded Spill
	stp	x29, x30, [sp, #48]     // 16-byte Folded Spill
	add	x29, sp, #48            // =48
	.cfi_def_cfa w29, 16
	.cfi_offset w30, -8
	.cfi_offset w29, -16
	.cfi_offset w19, -24
	.cfi_offset w20, -32
	.cfi_offset w21, -40
	.cfi_offset w22, -48
	.cfi_offset w23, -56
	.cfi_offset w24, -64
	mov	w22, #-22
.Ltmp319:
	.loc	2 860 11 prologue_end   // kernel/block/mas_blk_busy_idle_notify.c:860:11
	cbz	x0, .LBB12_21
.Ltmp320:
// %bb.1:
	//DEBUG_VALUE: blk_lld_busyidle_event_subscribe:event_node <- $x1
	//DEBUG_VALUE: blk_lld_busyidle_event_subscribe:lld <- $x0
	.loc	2 0 11 is_stmt 0        // kernel/block/mas_blk_busy_idle_notify.c:0:11
	mov	x21, x1
.Ltmp321:
	//DEBUG_VALUE: blk_lld_busyidle_event_subscribe:event_node <- $x21
	.loc	2 860 11                // kernel/block/mas_blk_busy_idle_notify.c:860:11
	cbz	x1, .LBB12_21
.Ltmp322:
// %bb.2:
	//DEBUG_VALUE: blk_lld_busyidle_event_subscribe:event_node <- $x21
	//DEBUG_VALUE: blk_lld_busyidle_event_subscribe:lld <- $x0
	.loc	2 863 18 is_stmt 1      // kernel/block/mas_blk_busy_idle_notify.c:863:18
	str	x0, [x21, #48]
.Ltmp323:
	//DEBUG_VALUE: index <- 2
	//DEBUG_VALUE: kmalloc:flags <- 21004480
	//DEBUG_VALUE: kmalloc:size <- 152
	//DEBUG_VALUE: kzalloc:flags <- 20971712
	//DEBUG_VALUE: kzalloc:size <- 152
	//DEBUG_VALUE: mas_blk_busyidle_event_register:blk_idle <- [DW_OP_plus_uconst 1040, DW_OP_stack_value] $x20
	//DEBUG_VALUE: mas_blk_busyidle_event_register:nb <- 0
	//DEBUG_VALUE: mas_blk_busyidle_event_register:ret <- 0
	//DEBUG_VALUE: mas_blk_busyidle_event_register:event_node <- $x21
	//DEBUG_VALUE: mas_blk_busyidle_event_register:lld <- $x20
	.loc	21 539 5                // kernel/include/linux/slab.h:539:5
	adrp	x8, kmalloc_caches+16
	mov	x20, x0
.Ltmp324:
	//DEBUG_VALUE: blk_lld_busyidle_event_subscribe:lld <- $x20
	ldr	x0, [x8, :lo12:kmalloc_caches+16]
	.loc	21 538 10               // kernel/include/linux/slab.h:538:10
	mov	w1, #32960
	movk	w1, #320, lsl #16
	mov	w2, #152
	bl	kmem_cache_alloc_trace
.Ltmp325:
	.loc	2 240 6                 // kernel/block/mas_blk_busy_idle_notify.c:240:6
	cbz	x0, .LBB12_6
.Ltmp326:
// %bb.3:
	//DEBUG_VALUE: blk_lld_busyidle_event_subscribe:lld <- $x20
	//DEBUG_VALUE: mas_blk_busyidle_event_register:event_node <- $x21
	//DEBUG_VALUE: blk_lld_busyidle_event_subscribe:event_node <- $x21
	.loc	2 243 2                 // kernel/block/mas_blk_busy_idle_notify.c:243:2
	ldp	x8, x9, [x21]
	ldr	x10, [x21, #16]
	mov	x22, x0
	.loc	2 0 0 is_stmt 0         // kernel/block/mas_blk_busy_idle_notify.c:0:0
	mov	x19, x0
.Ltmp327:
	//DEBUG_VALUE: mas_blk_busyidle_event_register:nb <- $x19
	//DEBUG_VALUE: __list_add:new <- $x19
	//DEBUG_VALUE: list_add_tail:new <- $x19
	//DEBUG_VALUE: setup_busy_idle_notify_nb:nb <- $x19
	.loc	2 243 2                 // kernel/block/mas_blk_busy_idle_notify.c:243:2
	str	x8, [x22, #88]!
.Ltmp328:
	//DEBUG_VALUE: busyidle_find_subscribed_node:node <- $x22
	stp	x9, x10, [x22, #8]
	ldp	x8, x9, [x21, #40]
	ldp	x10, x11, [x21, #24]
	stp	x8, x9, [x22, #40]
	stp	x10, x11, [x22, #24]
.Ltmp329:
	//DEBUG_VALUE: is_valid_event_node:event_node <- $x22
	.loc	2 196 6 is_stmt 1       // kernel/block/mas_blk_busy_idle_notify.c:196:6
	cbz	x11, .LBB12_7
.Ltmp330:
// %bb.4:
	//DEBUG_VALUE: is_valid_event_node:event_node <- $x22
	//DEBUG_VALUE: mas_blk_busyidle_event_register:nb <- $x19
	//DEBUG_VALUE: blk_lld_busyidle_event_subscribe:lld <- $x20
	//DEBUG_VALUE: mas_blk_busyidle_event_register:event_node <- $x21
	//DEBUG_VALUE: blk_lld_busyidle_event_subscribe:event_node <- $x21
	.loc	2 201 6                 // kernel/block/mas_blk_busy_idle_notify.c:201:6
	mov	x0, x22
	bl	strlen
	.loc	2 201 41 is_stmt 0      // kernel/block/mas_blk_busy_idle_notify.c:201:41
	sub	x8, x0, #1              // =1
	cmp	x8, #31                 // =31
	b.lo	.LBB12_9
.Ltmp331:
// %bb.5:
	//DEBUG_VALUE: is_valid_event_node:event_node <- $x22
	//DEBUG_VALUE: mas_blk_busyidle_event_register:nb <- $x19
	//DEBUG_VALUE: blk_lld_busyidle_event_subscribe:lld <- $x20
	//DEBUG_VALUE: mas_blk_busyidle_event_register:event_node <- $x21
	//DEBUG_VALUE: blk_lld_busyidle_event_subscribe:event_node <- $x21
	.loc	2 203 3 is_stmt 1       // kernel/block/mas_blk_busy_idle_notify.c:203:3
	adrp	x0, .L.str.17
	add	x0, x0, :lo12:.L.str.17
	b	.LBB12_8
.Ltmp332:
.LBB12_6:
	//DEBUG_VALUE: blk_lld_busyidle_event_subscribe:lld <- $x20
	//DEBUG_VALUE: mas_blk_busyidle_event_register:event_node <- $x21
	//DEBUG_VALUE: blk_lld_busyidle_event_subscribe:event_node <- $x21
	.loc	2 0 3 is_stmt 0         // kernel/block/mas_blk_busy_idle_notify.c:0:3
	mov	w22, #-12
	b	.LBB12_21
.Ltmp333:
.LBB12_7:
	//DEBUG_VALUE: is_valid_event_node:event_node <- $x22
	//DEBUG_VALUE: mas_blk_busyidle_event_register:nb <- $x19
	//DEBUG_VALUE: blk_lld_busyidle_event_subscribe:lld <- $x20
	//DEBUG_VALUE: mas_blk_busyidle_event_register:event_node <- $x21
	//DEBUG_VALUE: blk_lld_busyidle_event_subscribe:event_node <- $x21
	.loc	2 197 3 is_stmt 1       // kernel/block/mas_blk_busy_idle_notify.c:197:3
	adrp	x0, .L.str.16
	add	x0, x0, :lo12:.L.str.16
.Ltmp334:
.LBB12_8:
	//DEBUG_VALUE: is_valid_event_node:event_node <- $x22
	//DEBUG_VALUE: mas_blk_busyidle_event_register:nb <- $x19
	//DEBUG_VALUE: blk_lld_busyidle_event_subscribe:lld <- $x20
	//DEBUG_VALUE: mas_blk_busyidle_event_register:event_node <- $x21
	//DEBUG_VALUE: blk_lld_busyidle_event_subscribe:event_node <- $x21
	.loc	2 0 0 is_stmt 0         // kernel/block/mas_blk_busy_idle_notify.c:0:0
	adrp	x1, .L__func__.is_valid_event_node
	add	x1, x1, :lo12:.L__func__.is_valid_event_node
	bl	printk
.Ltmp335:
	.loc	2 248 3 is_stmt 1       // kernel/block/mas_blk_busy_idle_notify.c:248:3
	bl	dump_stack
	mov	w22, #-22
.Ltmp336:
	//DEBUG_LABEL: mas_blk_busyidle_event_register:free_notify_nb
	//DEBUG_VALUE: mas_blk_busyidle_event_register:ret <- -22
	.loc	2 0 3 is_stmt 0         // kernel/block/mas_blk_busy_idle_notify.c:0:3
	b	.LBB12_20
.Ltmp337:
.LBB12_9:
	//DEBUG_VALUE: mas_blk_busyidle_event_register:nb <- $x19
	//DEBUG_VALUE: blk_lld_busyidle_event_subscribe:lld <- $x20
	//DEBUG_VALUE: mas_blk_busyidle_event_register:event_node <- $x21
	//DEBUG_VALUE: blk_lld_busyidle_event_subscribe:event_node <- $x21
	.loc	2 254 24 is_stmt 1      // kernel/block/mas_blk_busy_idle_notify.c:254:24
	add	x21, x20, #1256         // =1256
.Ltmp338:
	.loc	2 254 2 is_stmt 0       // kernel/block/mas_blk_busy_idle_notify.c:254:2
	mov	x0, x21
	bl	mutex_lock
	.loc	2 256 6 is_stmt 1       // kernel/block/mas_blk_busy_idle_notify.c:256:6
	ldrb	w8, [x20, #25]
	tbz	w8, #0, .LBB12_11
.Ltmp339:
// %bb.10:
	//DEBUG_VALUE: mas_blk_busyidle_event_register:nb <- $x19
	//DEBUG_VALUE: blk_lld_busyidle_event_subscribe:lld <- $x20
	.loc	2 257 25                // kernel/block/mas_blk_busy_idle_notify.c:257:25
	add	x0, x20, #1432          // =1432
	.loc	2 257 3 is_stmt 0       // kernel/block/mas_blk_busy_idle_notify.c:257:3
	bl	mutex_lock
.Ltmp340:
.LBB12_11:
	//DEBUG_VALUE: mas_blk_busyidle_event_register:nb <- $x19
	//DEBUG_VALUE: blk_lld_busyidle_event_subscribe:lld <- $x20
	//DEBUG_VALUE: busyidle_find_subscribed_node:blk_idle <- [DW_OP_plus_uconst 1040, DW_OP_stack_value] $x20
	//DEBUG_VALUE: busyidle_find_subscribed_node:p <- 0
	.loc	2 0 0                   // kernel/block/mas_blk_busy_idle_notify.c:0:0
	ldr	x24, [x20, #1152]
.Ltmp341:
	//DEBUG_VALUE: busyidle_find_subscribed_node:p <- $x24
	.loc	2 184 2 is_stmt 1       // kernel/block/mas_blk_busy_idle_notify.c:184:2
	add	x23, x20, #1152         // =1152
.Ltmp342:
	//DEBUG_VALUE: __mptr <- undef
	//DEBUG_VALUE: list_add_tail:head <- $x23
	//DEBUG_VALUE: __list_add:next <- $x23
	.loc	2 184 2 is_stmt 0       // kernel/block/mas_blk_busy_idle_notify.c:184:2
	cmp	x24, x23
	b.ne	.LBB12_13
	b	.LBB12_16
.Ltmp343:
.LBB12_12:                              //   in Loop: Header=BB12_13 Depth=1
	//DEBUG_VALUE: busyidle_find_subscribed_node:p <- $x24
	//DEBUG_VALUE: busyidle_find_subscribed_node:blk_idle <- [DW_OP_plus_uconst 1040, DW_OP_stack_value] $x20
	//DEBUG_VALUE: mas_blk_busyidle_event_register:nb <- $x19
	//DEBUG_VALUE: blk_lld_busyidle_event_subscribe:lld <- $x20
	//DEBUG_VALUE: __mptr <- undef
	.loc	2 0 0                   // kernel/block/mas_blk_busy_idle_notify.c:0:0
	ldr	x24, [x24]
.Ltmp344:
	//DEBUG_VALUE: __mptr <- undef
	//DEBUG_VALUE: list_add_tail:head <- $x23
	//DEBUG_VALUE: __list_add:next <- $x23
	.loc	2 184 2                 // kernel/block/mas_blk_busy_idle_notify.c:184:2
	cmp	x24, x23
	b.eq	.LBB12_16
.Ltmp345:
.LBB12_13:                              // =>This Inner Loop Header: Depth=1
	//DEBUG_VALUE: busyidle_find_subscribed_node:p <- $x24
	//DEBUG_VALUE: busyidle_find_subscribed_node:blk_idle <- [DW_OP_plus_uconst 1040, DW_OP_stack_value] $x20
	//DEBUG_VALUE: mas_blk_busyidle_event_register:nb <- $x19
	//DEBUG_VALUE: blk_lld_busyidle_event_subscribe:lld <- $x20
	.loc	2 185 33 is_stmt 1      // kernel/block/mas_blk_busy_idle_notify.c:185:33
	add	x1, x24, #88            // =88
	.loc	2 185 8 is_stmt 0       // kernel/block/mas_blk_busy_idle_notify.c:185:8
	mov	x0, x22
	bl	strcmp
	.loc	2 186 4 is_stmt 1       // kernel/block/mas_blk_busy_idle_notify.c:186:4
	cbnz	w0, .LBB12_12
.Ltmp346:
// %bb.14:                              //   in Loop: Header=BB12_13 Depth=1
	//DEBUG_VALUE: busyidle_find_subscribed_node:p <- $x24
	//DEBUG_VALUE: busyidle_find_subscribed_node:blk_idle <- [DW_OP_plus_uconst 1040, DW_OP_stack_value] $x20
	//DEBUG_VALUE: mas_blk_busyidle_event_register:nb <- $x19
	//DEBUG_VALUE: blk_lld_busyidle_event_subscribe:lld <- $x20
	.loc	2 186 13 is_stmt 0      // kernel/block/mas_blk_busy_idle_notify.c:186:13
	ldr	x8, [x19, #120]
	.loc	2 187 18 is_stmt 1      // kernel/block/mas_blk_busy_idle_notify.c:187:18
	ldr	x9, [x24, #120]
.Ltmp347:
	.loc	2 185 7                 // kernel/block/mas_blk_busy_idle_notify.c:185:7
	cmp	x8, x9
	b.ne	.LBB12_12
.Ltmp348:
// %bb.15:
	//DEBUG_VALUE: mas_blk_busyidle_event_register:nb <- $x19
	//DEBUG_VALUE: blk_lld_busyidle_event_subscribe:lld <- $x20
	.loc	2 260 3                 // kernel/block/mas_blk_busy_idle_notify.c:260:3
	adrp	x0, .L.str.14
	adrp	x1, .L__func__.mas_blk_busyidle_event_register
	add	x0, x0, :lo12:.L.str.14
	add	x1, x1, :lo12:.L__func__.mas_blk_busyidle_event_register
	mov	x2, x22
	bl	printk
	.loc	2 265 3                 // kernel/block/mas_blk_busy_idle_notify.c:265:3
	bl	dump_stack
	mov	w22, #-1
.Ltmp349:
	//DEBUG_VALUE: mas_blk_busyidle_event_register:ret <- -1
	//DEBUG_VALUE: mas_blk_busyidle_event_register:ret <- $w22
	//DEBUG_LABEL: mas_blk_busyidle_event_register:unlock
	.loc	2 280 6                 // kernel/block/mas_blk_busy_idle_notify.c:280:6
	ldrb	w8, [x20, #25]
	tbnz	w8, #0, .LBB12_17
	b	.LBB12_18
.Ltmp350:
.LBB12_16:
	//DEBUG_VALUE: __list_add:next <- $x23
	//DEBUG_VALUE: list_add_tail:head <- $x23
	//DEBUG_VALUE: mas_blk_busyidle_event_register:nb <- $x19
	//DEBUG_VALUE: blk_lld_busyidle_event_subscribe:lld <- $x20
	.loc	2 216 2                 // kernel/block/mas_blk_busy_idle_notify.c:216:2
	add	x0, x19, #16            // =16
	mov	w1, wzr
	mov	x2, xzr
	mov	x3, xzr
	bl	init_timer_key
	adrp	x8, __cfi_mas_blk_busyidle_handler_latency_check_timer_expire
.Ltmp351:
	.loc	2 220 32                // kernel/block/mas_blk_busy_idle_notify.c:220:32
	adrp	x9, __cfi_mas_blk_busyidle_notify_handler
.Ltmp352:
	.loc	2 216 2                 // kernel/block/mas_blk_busy_idle_notify.c:216:2
	add	x8, x8, :lo12:__cfi_mas_blk_busyidle_handler_latency_check_timer_expire
.Ltmp353:
	.loc	2 220 32                // kernel/block/mas_blk_busy_idle_notify.c:220:32
	add	x9, x9, :lo12:__cfi_mas_blk_busyidle_notify_handler
	mov	x1, x19
	mov	x10, #4294967297
.Ltmp354:
	.loc	2 216 2                 // kernel/block/mas_blk_busy_idle_notify.c:216:2
	stp	x8, x19, [x19, #40]
.Ltmp355:
	.loc	2 220 32                // kernel/block/mas_blk_busy_idle_notify.c:220:32
	str	x9, [x1, #64]!
	.loc	2 221 27                // kernel/block/mas_blk_busy_idle_notify.c:221:27
	str	wzr, [x19, #80]
	.loc	2 222 17                // kernel/block/mas_blk_busy_idle_notify.c:222:17
	str	x10, [x19, #144]
.Ltmp356:
	.loc	142 93 24               // kernel/include/linux/list.h:93:24
	ldr	x8, [x20, #1160]
.Ltmp357:
	//DEBUG_VALUE: __list_add:prev <- $x8
	.loc	2 273 46                // kernel/block/mas_blk_busy_idle_notify.c:273:46
	add	x0, x20, #1168          // =1168
.Ltmp358:
	.loc	142 63 13               // kernel/include/linux/list.h:63:13
	str	x19, [x20, #1160]
	.loc	142 64 12               // kernel/include/linux/list.h:64:12
	stp	x23, x8, [x19]
.Ltmp359:
	//DEBUG_VALUE: __write_once_size:p <- $x8
	//DEBUG_VALUE: __write_once_size:size <- 8
	//DEBUG_VALUE: __write_once_size:res <- undef
	.loc	140 210 31              // kernel/include/linux/compiler.h:210:31
	str	x19, [x8]
.Ltmp360:
	.loc	2 273 2                 // kernel/block/mas_blk_busy_idle_notify.c:273:2
	bl	blocking_notifier_chain_register
.Ltmp361:
	.loc	2 274 2                 // kernel/block/mas_blk_busy_idle_notify.c:274:2
	adrp	x0, .L.str.15
	add	x0, x0, :lo12:.L.str.15
	mov	x1, x22
	bl	printk
	.loc	2 0 0 is_stmt 0         // kernel/block/mas_blk_busy_idle_notify.c:0:0
	mov	w22, wzr
.Ltmp362:
	//DEBUG_VALUE: mas_blk_busyidle_event_register:ret <- $w22
	//DEBUG_LABEL: mas_blk_busyidle_event_register:unlock
	.loc	2 280 6 is_stmt 1       // kernel/block/mas_blk_busy_idle_notify.c:280:6
	ldrb	w8, [x20, #25]
	tbz	w8, #0, .LBB12_18
.Ltmp363:
.LBB12_17:
	//DEBUG_VALUE: mas_blk_busyidle_event_register:ret <- $w22
	//DEBUG_VALUE: mas_blk_busyidle_event_register:nb <- $x19
	//DEBUG_VALUE: blk_lld_busyidle_event_subscribe:lld <- $x20
	.loc	2 281 27                // kernel/block/mas_blk_busy_idle_notify.c:281:27
	add	x0, x20, #1432          // =1432
	.loc	2 281 3 is_stmt 0       // kernel/block/mas_blk_busy_idle_notify.c:281:3
	bl	mutex_unlock
.Ltmp364:
.LBB12_18:
	//DEBUG_VALUE: mas_blk_busyidle_event_register:ret <- $w22
	//DEBUG_VALUE: mas_blk_busyidle_event_register:nb <- $x19
	//DEBUG_VALUE: blk_lld_busyidle_event_subscribe:lld <- $x20
	.loc	2 283 2 is_stmt 1       // kernel/block/mas_blk_busy_idle_notify.c:283:2
	mov	x0, x21
	bl	mutex_unlock
.Ltmp365:
	//DEBUG_LABEL: mas_blk_busyidle_event_register:free_notify_nb
	.loc	2 286 10                // kernel/block/mas_blk_busy_idle_notify.c:286:10
	cbz	w22, .LBB12_21
.Ltmp366:
// %bb.19:
	//DEBUG_VALUE: mas_blk_busyidle_event_register:ret <- $w22
	//DEBUG_VALUE: mas_blk_busyidle_event_register:nb <- $x19
	//DEBUG_VALUE: blk_lld_busyidle_event_subscribe:lld <- $x20
	.loc	2 0 10 is_stmt 0        // kernel/block/mas_blk_busy_idle_notify.c:0:10
	mov	w22, #-1
.Ltmp367:
.LBB12_20:
	//DEBUG_VALUE: mas_blk_busyidle_event_register:nb <- $x19
	//DEBUG_VALUE: blk_lld_busyidle_event_subscribe:lld <- $x20
	.loc	2 287 3 is_stmt 1       // kernel/block/mas_blk_busy_idle_notify.c:287:3
	mov	x0, x19
	bl	kfree
.Ltmp368:
.LBB12_21:
	.loc	2 865 1                 // kernel/block/mas_blk_busy_idle_notify.c:865:1
	mov	w0, w22
	ldp	x29, x30, [sp, #48]     // 16-byte Folded Reload
	ldp	x20, x19, [sp, #32]     // 16-byte Folded Reload
	ldp	x22, x21, [sp, #16]     // 16-byte Folded Reload
	ldp	x24, x23, [sp], #64     // 16-byte Folded Reload
	ret
.Ltmp369:
.Lfunc_end12:
	.size	blk_lld_busyidle_event_subscribe, .Lfunc_end12-blk_lld_busyidle_event_subscribe
	.cfi_endproc
                                        // -- End function
	.section	.text.blk_busyidle_event_unsubscribe,"ax",@progbits
	.hidden	blk_busyidle_event_unsubscribe // -- Begin function blk_busyidle_event_unsubscribe
	.globl	blk_busyidle_event_unsubscribe
	.p2align	2
	.type	blk_busyidle_event_unsubscribe,@function
blk_busyidle_event_unsubscribe:         // @blk_busyidle_event_unsubscribe
.Lfunc_begin13:
	.loc	2 872 0                 // kernel/block/mas_blk_busy_idle_notify.c:872:0
	.cfi_startproc
// %bb.0:
	//DEBUG_VALUE: blk_busyidle_event_unsubscribe:event_node <- $x0
	//DEBUG_VALUE: blk_busyidle_event_unsubscribe:event_node <- $x0
	.loc	2 873 6 prologue_end    // kernel/block/mas_blk_busy_idle_notify.c:873:6
	cbz	x0, .LBB13_2
.Ltmp370:
// %bb.1:
	//DEBUG_VALUE: blk_busyidle_event_unsubscribe:event_node <- $x0
	stp	x29, x30, [sp, #-16]!   // 16-byte Folded Spill
	mov	x29, sp
	.cfi_def_cfa w29, 16
	.cfi_offset w30, -8
	.cfi_offset w29, -16
	.loc	2 876 9                 // kernel/block/mas_blk_busy_idle_notify.c:876:9
	bl	mas_blk_busyidle_event_unregister
.Ltmp371:
	.loc	2 0 9 is_stmt 0         // kernel/block/mas_blk_busy_idle_notify.c:0:9
	ldp	x29, x30, [sp], #16     // 16-byte Folded Reload
	.loc	2 877 1 is_stmt 1       // kernel/block/mas_blk_busy_idle_notify.c:877:1
	ret
.LBB13_2:
.Ltmp372:
	//DEBUG_VALUE: blk_busyidle_event_unsubscribe:event_node <- $x0
	.loc	2 0 1 is_stmt 0         // kernel/block/mas_blk_busy_idle_notify.c:0:1
	mov	w0, #-22
.Ltmp373:
	.loc	2 877 1                 // kernel/block/mas_blk_busy_idle_notify.c:877:1
	ret
.Ltmp374:
.Lfunc_end13:
	.size	blk_busyidle_event_unsubscribe, .Lfunc_end13-blk_busyidle_event_unsubscribe
	.cfi_endproc
                                        // -- End function
	.section	.text.mas_blk_busyidle_event_unregister,"ax",@progbits
	.p2align	2               // -- Begin function mas_blk_busyidle_event_unregister
	.type	mas_blk_busyidle_event_unregister,@function
mas_blk_busyidle_event_unregister:      // @mas_blk_busyidle_event_unregister
.Lfunc_begin14:
	.loc	2 296 0 is_stmt 1       // kernel/block/mas_blk_busy_idle_notify.c:296:0
	.cfi_startproc
// %bb.0:
	//DEBUG_VALUE: mas_blk_busyidle_event_unregister:event_node <- $x0
	stp	x24, x23, [sp, #-64]!   // 16-byte Folded Spill
	stp	x22, x21, [sp, #16]     // 16-byte Folded Spill
	stp	x20, x19, [sp, #32]     // 16-byte Folded Spill
	stp	x29, x30, [sp, #48]     // 16-byte Folded Spill
	add	x29, sp, #48            // =48
	.cfi_def_cfa w29, 16
	.cfi_offset w30, -8
	.cfi_offset w29, -16
	.cfi_offset w19, -24
	.cfi_offset w20, -32
	.cfi_offset w21, -40
	.cfi_offset w22, -48
	.cfi_offset w23, -56
	.cfi_offset w24, -64
.Ltmp375:
	.loc	2 299 40 prologue_end   // kernel/block/mas_blk_busy_idle_notify.c:299:40
	ldr	x23, [x0, #48]
.Ltmp376:
	//DEBUG_VALUE: mas_blk_busyidle_event_unregister:blk_idle <- [DW_OP_plus_uconst 1040, DW_OP_stack_value] $x23
	//DEBUG_VALUE: mas_blk_busyidle_event_unregister:lld <- $x23
	//DEBUG_VALUE: busyidle_find_subscribed_node:blk_idle <- [DW_OP_plus_uconst 1040, DW_OP_stack_value] $x23
	.loc	2 0 40 is_stmt 0        // kernel/block/mas_blk_busy_idle_notify.c:0:40
	mov	x21, x0
.Ltmp377:
	//DEBUG_VALUE: mas_blk_busyidle_event_unregister:nb <- 0
	//DEBUG_VALUE: mas_blk_busyidle_event_unregister:ret <- 0
	//DEBUG_VALUE: mas_blk_busyidle_event_unregister:event_node <- $x21
	.loc	2 302 24 is_stmt 1      // kernel/block/mas_blk_busy_idle_notify.c:302:24
	add	x19, x23, #1256         // =1256
	.loc	2 302 2 is_stmt 0       // kernel/block/mas_blk_busy_idle_notify.c:302:2
	mov	x0, x19
	bl	mutex_lock
	.loc	2 304 6 is_stmt 1       // kernel/block/mas_blk_busy_idle_notify.c:304:6
	ldrb	w8, [x23, #25]
	tbz	w8, #0, .LBB14_2
.Ltmp378:
// %bb.1:
	//DEBUG_VALUE: mas_blk_busyidle_event_unregister:event_node <- $x21
	//DEBUG_VALUE: mas_blk_busyidle_event_unregister:lld <- $x23
	//DEBUG_VALUE: mas_blk_busyidle_event_unregister:blk_idle <- [DW_OP_plus_uconst 1040, DW_OP_stack_value] $x23
	.loc	2 305 25                // kernel/block/mas_blk_busy_idle_notify.c:305:25
	add	x0, x23, #1432          // =1432
	.loc	2 305 3 is_stmt 0       // kernel/block/mas_blk_busy_idle_notify.c:305:3
	bl	mutex_lock
.Ltmp379:
.LBB14_2:
	//DEBUG_VALUE: mas_blk_busyidle_event_unregister:event_node <- $x21
	//DEBUG_VALUE: mas_blk_busyidle_event_unregister:lld <- $x23
	//DEBUG_VALUE: mas_blk_busyidle_event_unregister:blk_idle <- [DW_OP_plus_uconst 1040, DW_OP_stack_value] $x23
	//DEBUG_VALUE: busyidle_find_subscribed_node:node <- $x21
	//DEBUG_VALUE: busyidle_find_subscribed_node:p <- 0
	.loc	2 0 0                   // kernel/block/mas_blk_busy_idle_notify.c:0:0
	ldr	x20, [x23, #1152]
.Ltmp380:
	//DEBUG_VALUE: busyidle_find_subscribed_node:p <- $x20
	.loc	2 184 2 is_stmt 1       // kernel/block/mas_blk_busy_idle_notify.c:184:2
	add	x24, x23, #1152         // =1152
.Ltmp381:
	//DEBUG_VALUE: __mptr <- undef
	.loc	2 184 2 is_stmt 0       // kernel/block/mas_blk_busy_idle_notify.c:184:2
	cmp	x20, x24
	b.ne	.LBB14_4
	b	.LBB14_7
.Ltmp382:
.LBB14_3:                               //   in Loop: Header=BB14_4 Depth=1
	//DEBUG_VALUE: mas_blk_busyidle_event_unregister:nb <- $x20
	//DEBUG_VALUE: busyidle_find_subscribed_node:p <- $x20
	//DEBUG_VALUE: busyidle_find_subscribed_node:node <- $x21
	//DEBUG_VALUE: mas_blk_busyidle_event_unregister:event_node <- $x21
	//DEBUG_VALUE: mas_blk_busyidle_event_unregister:lld <- $x23
	//DEBUG_VALUE: mas_blk_busyidle_event_unregister:blk_idle <- [DW_OP_plus_uconst 1040, DW_OP_stack_value] $x23
	//DEBUG_VALUE: __mptr <- undef
	.loc	2 0 0                   // kernel/block/mas_blk_busy_idle_notify.c:0:0
	ldr	x20, [x20]
.Ltmp383:
	//DEBUG_VALUE: __mptr <- undef
	.loc	2 184 2                 // kernel/block/mas_blk_busy_idle_notify.c:184:2
	cmp	x20, x24
	b.eq	.LBB14_7
.Ltmp384:
.LBB14_4:                               // =>This Inner Loop Header: Depth=1
	//DEBUG_VALUE: busyidle_find_subscribed_node:p <- $x20
	//DEBUG_VALUE: busyidle_find_subscribed_node:node <- $x21
	//DEBUG_VALUE: mas_blk_busyidle_event_unregister:event_node <- $x21
	//DEBUG_VALUE: mas_blk_busyidle_event_unregister:lld <- $x23
	//DEBUG_VALUE: mas_blk_busyidle_event_unregister:blk_idle <- [DW_OP_plus_uconst 1040, DW_OP_stack_value] $x23
	//DEBUG_VALUE: mas_blk_busyidle_event_unregister:nb <- $x20
	.loc	2 185 33 is_stmt 1      // kernel/block/mas_blk_busy_idle_notify.c:185:33
	add	x22, x20, #88           // =88
	.loc	2 185 8 is_stmt 0       // kernel/block/mas_blk_busy_idle_notify.c:185:8
	mov	x0, x21
	mov	x1, x22
	bl	strcmp
	.loc	2 186 4 is_stmt 1       // kernel/block/mas_blk_busy_idle_notify.c:186:4
	cbnz	w0, .LBB14_3
.Ltmp385:
// %bb.5:                               //   in Loop: Header=BB14_4 Depth=1
	//DEBUG_VALUE: mas_blk_busyidle_event_unregister:nb <- $x20
	//DEBUG_VALUE: busyidle_find_subscribed_node:p <- $x20
	//DEBUG_VALUE: busyidle_find_subscribed_node:node <- $x21
	//DEBUG_VALUE: mas_blk_busyidle_event_unregister:event_node <- $x21
	//DEBUG_VALUE: mas_blk_busyidle_event_unregister:lld <- $x23
	//DEBUG_VALUE: mas_blk_busyidle_event_unregister:blk_idle <- [DW_OP_plus_uconst 1040, DW_OP_stack_value] $x23
	.loc	2 186 13 is_stmt 0      // kernel/block/mas_blk_busy_idle_notify.c:186:13
	ldr	x8, [x21, #32]
	.loc	2 187 18 is_stmt 1      // kernel/block/mas_blk_busy_idle_notify.c:187:18
	ldr	x9, [x20, #120]
.Ltmp386:
	.loc	2 185 7                 // kernel/block/mas_blk_busy_idle_notify.c:185:7
	cmp	x8, x9
	b.ne	.LBB14_3
.Ltmp387:
// %bb.6:
	//DEBUG_VALUE: mas_blk_busyidle_event_unregister:nb <- $x20
	//DEBUG_VALUE: mas_blk_busyidle_event_unregister:event_node <- $x21
	//DEBUG_VALUE: mas_blk_busyidle_event_unregister:lld <- $x23
	//DEBUG_VALUE: mas_blk_busyidle_event_unregister:blk_idle <- [DW_OP_plus_uconst 1040, DW_OP_stack_value] $x23
	.loc	2 315 57                // kernel/block/mas_blk_busy_idle_notify.c:315:57
	add	x21, x20, #64           // =64
.Ltmp388:
	.loc	2 315 48 is_stmt 0      // kernel/block/mas_blk_busy_idle_notify.c:315:48
	add	x0, x23, #1168          // =1168
	.loc	2 315 2                 // kernel/block/mas_blk_busy_idle_notify.c:315:2
	mov	x1, x21
	bl	blocking_notifier_chain_unregister
	.loc	2 316 2 is_stmt 1       // kernel/block/mas_blk_busy_idle_notify.c:316:2
	adrp	x0, .L.str.19
	add	x0, x0, :lo12:.L.str.19
	mov	x1, x22
	mov	x2, x21
	bl	printk
.Ltmp389:
	//DEBUG_VALUE: __list_del_entry:entry <- $x20
	//DEBUG_VALUE: list_del_init:entry <- $x20
	.loc	142 120 33              // kernel/include/linux/list.h:120:33
	ldp	x8, x9, [x20]
.Ltmp390:
	//DEBUG_VALUE: __list_del:prev <- $x9
	//DEBUG_VALUE: __list_del:next <- $x8
	.loc	2 320 2                 // kernel/block/mas_blk_busy_idle_notify.c:320:2
	mov	x0, x20
.Ltmp391:
	.loc	142 105 13              // kernel/include/linux/list.h:105:13
	str	x9, [x8, #8]
.Ltmp392:
	//DEBUG_VALUE: __write_once_size:p <- $x9
	//DEBUG_VALUE: __write_once_size:size <- 8
	//DEBUG_VALUE: __write_once_size:res <- undef
	.loc	140 210 31              // kernel/include/linux/compiler.h:210:31
	str	x8, [x9]
.Ltmp393:
	//DEBUG_VALUE: __write_once_size:p <- $x20
	//DEBUG_VALUE: __write_once_size:size <- 8
	//DEBUG_VALUE: __write_once_size:res <- undef
	//DEBUG_VALUE: INIT_LIST_HEAD:list <- $x20
	.loc	140 210 31 is_stmt 0    // kernel/include/linux/compiler.h:210:31
	str	x20, [x20]
.Ltmp394:
	.loc	142 29 13 is_stmt 1     // kernel/include/linux/list.h:29:13
	str	x20, [x20, #8]
.Ltmp395:
	.loc	2 320 2                 // kernel/block/mas_blk_busy_idle_notify.c:320:2
	bl	kfree
.Ltmp396:
	.loc	2 0 0 is_stmt 0         // kernel/block/mas_blk_busy_idle_notify.c:0:0
	mov	w20, wzr
.Ltmp397:
	//DEBUG_VALUE: mas_blk_busyidle_event_unregister:ret <- $w20
	//DEBUG_LABEL: mas_blk_busyidle_event_unregister:out
	.loc	2 324 6 is_stmt 1       // kernel/block/mas_blk_busy_idle_notify.c:324:6
	ldrb	w8, [x23, #25]
	tbnz	w8, #0, .LBB14_8
	b	.LBB14_9
.Ltmp398:
.LBB14_7:
	//DEBUG_VALUE: mas_blk_busyidle_event_unregister:event_node <- $x21
	//DEBUG_VALUE: mas_blk_busyidle_event_unregister:lld <- $x23
	//DEBUG_VALUE: mas_blk_busyidle_event_unregister:blk_idle <- [DW_OP_plus_uconst 1040, DW_OP_stack_value] $x23
	.loc	2 309 3                 // kernel/block/mas_blk_busy_idle_notify.c:309:3
	adrp	x0, .L.str.18
	add	x0, x0, :lo12:.L.str.18
	bl	printk
	.loc	2 310 3                 // kernel/block/mas_blk_busy_idle_notify.c:310:3
	bl	dump_stack
	mov	w20, #-22
.Ltmp399:
	//DEBUG_VALUE: mas_blk_busyidle_event_unregister:ret <- -22
	//DEBUG_VALUE: mas_blk_busyidle_event_unregister:ret <- $w20
	//DEBUG_LABEL: mas_blk_busyidle_event_unregister:out
	.loc	2 324 6                 // kernel/block/mas_blk_busy_idle_notify.c:324:6
	ldrb	w8, [x23, #25]
	tbz	w8, #0, .LBB14_9
.Ltmp400:
.LBB14_8:
	//DEBUG_VALUE: mas_blk_busyidle_event_unregister:ret <- $w20
	//DEBUG_VALUE: mas_blk_busyidle_event_unregister:lld <- $x23
	//DEBUG_VALUE: mas_blk_busyidle_event_unregister:blk_idle <- [DW_OP_plus_uconst 1040, DW_OP_stack_value] $x23
	.loc	2 325 27                // kernel/block/mas_blk_busy_idle_notify.c:325:27
	add	x0, x23, #1432          // =1432
	.loc	2 325 3 is_stmt 0       // kernel/block/mas_blk_busy_idle_notify.c:325:3
	bl	mutex_unlock
.Ltmp401:
.LBB14_9:
	//DEBUG_VALUE: mas_blk_busyidle_event_unregister:ret <- $w20
	//DEBUG_VALUE: mas_blk_busyidle_event_unregister:lld <- $x23
	//DEBUG_VALUE: mas_blk_busyidle_event_unregister:blk_idle <- [DW_OP_plus_uconst 1040, DW_OP_stack_value] $x23
	.loc	2 327 2 is_stmt 1       // kernel/block/mas_blk_busy_idle_notify.c:327:2
	mov	x0, x19
	bl	mutex_unlock
	.loc	2 328 2                 // kernel/block/mas_blk_busy_idle_notify.c:328:2
	mov	w0, w20
	ldp	x29, x30, [sp, #48]     // 16-byte Folded Reload
	ldp	x20, x19, [sp, #32]     // 16-byte Folded Reload
.Ltmp402:
	ldp	x22, x21, [sp, #16]     // 16-byte Folded Reload
	ldp	x24, x23, [sp], #64     // 16-byte Folded Reload
.Ltmp403:
	ret
.Ltmp404:
.Lfunc_end14:
	.size	mas_blk_busyidle_event_unregister, .Lfunc_end14-mas_blk_busyidle_event_unregister
	.cfi_endproc
                                        // -- End function
	.section	.text.blk_queue_busyidle_event_unsubscribe,"ax",@progbits
	.hidden	blk_queue_busyidle_event_unsubscribe // -- Begin function blk_queue_busyidle_event_unsubscribe
	.globl	blk_queue_busyidle_event_unsubscribe
	.p2align	2
	.type	blk_queue_busyidle_event_unsubscribe,@function
blk_queue_busyidle_event_unsubscribe:   // @blk_queue_busyidle_event_unsubscribe
.Lfunc_begin15:
	.loc	2 884 0                 // kernel/block/mas_blk_busy_idle_notify.c:884:0
	.cfi_startproc
// %bb.0:
	//DEBUG_VALUE: blk_queue_busyidle_event_unsubscribe:event_node <- $x0
	//DEBUG_VALUE: blk_queue_busyidle_event_unsubscribe:event_node <- $x0
	.loc	2 885 6 prologue_end    // kernel/block/mas_blk_busy_idle_notify.c:885:6
	cbz	x0, .LBB15_2
.Ltmp405:
// %bb.1:
	//DEBUG_VALUE: blk_queue_busyidle_event_unsubscribe:event_node <- $x0
	stp	x29, x30, [sp, #-16]!   // 16-byte Folded Spill
	mov	x29, sp
	.cfi_def_cfa w29, 16
	.cfi_offset w30, -8
	.cfi_offset w29, -16
	.loc	2 888 9                 // kernel/block/mas_blk_busy_idle_notify.c:888:9
	bl	mas_blk_busyidle_event_unregister
.Ltmp406:
	.loc	2 0 9 is_stmt 0         // kernel/block/mas_blk_busy_idle_notify.c:0:9
	ldp	x29, x30, [sp], #16     // 16-byte Folded Reload
	.loc	2 889 1 is_stmt 1       // kernel/block/mas_blk_busy_idle_notify.c:889:1
	ret
.LBB15_2:
.Ltmp407:
	//DEBUG_VALUE: blk_queue_busyidle_event_unsubscribe:event_node <- $x0
	.loc	2 0 1 is_stmt 0         // kernel/block/mas_blk_busy_idle_notify.c:0:1
	mov	w0, #-22
.Ltmp408:
	.loc	2 889 1                 // kernel/block/mas_blk_busy_idle_notify.c:889:1
	ret
.Ltmp409:
.Lfunc_end15:
	.size	blk_queue_busyidle_event_unsubscribe, .Lfunc_end15-blk_queue_busyidle_event_unsubscribe
	.cfi_endproc
                                        // -- End function
	.section	.text.blk_queue_busyidle_enable,"ax",@progbits
	.hidden	blk_queue_busyidle_enable // -- Begin function blk_queue_busyidle_enable
	.globl	blk_queue_busyidle_enable
	.p2align	2
	.type	blk_queue_busyidle_enable,@function
blk_queue_busyidle_enable:              // @blk_queue_busyidle_enable
.Lfunc_begin16:
	.loc	2 895 0 is_stmt 1       // kernel/block/mas_blk_busy_idle_notify.c:895:0
	.cfi_startproc
// %bb.0:
	//DEBUG_VALUE: blk_queue_busyidle_enable:q <- $x0
	//DEBUG_VALUE: blk_queue_busyidle_enable:enable <- $w1
	//DEBUG_VALUE: blk_queue_busyidle_enable:blk_lld <- 0
	//DEBUG_VALUE: blk_queue_busyidle_enable:q <- $x0
	.loc	2 898 6 prologue_end    // kernel/block/mas_blk_busy_idle_notify.c:898:6
	cbz	x0, .LBB16_2
.Ltmp410:
// %bb.1:
	//DEBUG_VALUE: blk_queue_busyidle_enable:enable <- $w1
	//DEBUG_VALUE: blk_queue_busyidle_enable:q <- $x0
	str	x19, [sp, #-32]!        // 8-byte Folded Spill
	stp	x29, x30, [sp, #16]     // 16-byte Folded Spill
	add	x29, sp, #16            // =16
	.cfi_def_cfa w29, 16
	.cfi_offset w30, -8
	.cfi_offset w29, -16
	.cfi_offset w19, -32
	mov	w19, w1
.Ltmp411:
	//DEBUG_VALUE: blk_queue_busyidle_enable:enable <- $w19
	.loc	2 901 12                // kernel/block/mas_blk_busy_idle_notify.c:901:12
	bl	mas_blk_get_lld
.Ltmp412:
	//DEBUG_VALUE: blk_queue_busyidle_enable:blk_lld <- $x0
	.loc	2 0 0 is_stmt 0         // kernel/block/mas_blk_busy_idle_notify.c:0:0
	ldr	x8, [x0, #24]
.Ltmp413:
	.loc	2 903 6 is_stmt 1       // kernel/block/mas_blk_busy_idle_notify.c:903:6
	cmp	w19, #0                 // =0
	and	x9, x8, #0xfffffffffffffff7
	orr	x8, x8, #0x8
	csel	x8, x9, x8, eq
.Ltmp414:
	.loc	2 0 0 is_stmt 0         // kernel/block/mas_blk_busy_idle_notify.c:0:0
	str	x8, [x0, #24]
	ldp	x29, x30, [sp, #16]     // 16-byte Folded Reload
	ldr	x19, [sp], #32          // 8-byte Folded Reload
.Ltmp415:
.LBB16_2:
	.loc	2 907 1 is_stmt 1       // kernel/block/mas_blk_busy_idle_notify.c:907:1
	ret
.Ltmp416:
.Lfunc_end16:
	.size	blk_queue_busyidle_enable, .Lfunc_end16-blk_queue_busyidle_enable
	.cfi_endproc
                                        // -- End function
	.section	.text.blk_mq_tagset_busyidle_enable,"ax",@progbits
	.hidden	blk_mq_tagset_busyidle_enable // -- Begin function blk_mq_tagset_busyidle_enable
	.globl	blk_mq_tagset_busyidle_enable
	.p2align	2
	.type	blk_mq_tagset_busyidle_enable,@function
blk_mq_tagset_busyidle_enable:          // @blk_mq_tagset_busyidle_enable
.Lfunc_begin17:
	.loc	2 913 0                 // kernel/block/mas_blk_busy_idle_notify.c:913:0
	.cfi_startproc
// %bb.0:
	//DEBUG_VALUE: blk_mq_tagset_busyidle_enable:tag_set <- $x0
	//DEBUG_VALUE: blk_mq_tagset_busyidle_enable:tag_set <- $x0
	//DEBUG_VALUE: blk_mq_tagset_busyidle_enable:enable <- $w1
	//DEBUG_VALUE: blk_mq_tagset_busyidle_enable:enable <- $w1
	//DEBUG_VALUE: blk_mq_tagset_busyidle_enable:blk_lld <- 0
	.loc	2 916 6 prologue_end    // kernel/block/mas_blk_busy_idle_notify.c:916:6
	cbz	x0, .LBB17_2
// %bb.1:
	//DEBUG_VALUE: blk_mq_tagset_busyidle_enable:enable <- $w1
	//DEBUG_VALUE: blk_mq_tagset_busyidle_enable:tag_set <- $x0
.Ltmp417:
	//DEBUG_VALUE: blk_mq_tagset_busyidle_enable:blk_lld <- [DW_OP_plus_uconst 16, DW_OP_stack_value] $x0
	.loc	2 0 0 is_stmt 0         // kernel/block/mas_blk_busy_idle_notify.c:0:0
	ldr	x8, [x0, #40]
.Ltmp418:
	.loc	2 921 6 is_stmt 1       // kernel/block/mas_blk_busy_idle_notify.c:921:6
	cmp	w1, #0                  // =0
	and	x9, x8, #0xfffffffffffffff7
	orr	x8, x8, #0x8
	csel	x8, x9, x8, eq
.Ltmp419:
	.loc	2 0 0 is_stmt 0         // kernel/block/mas_blk_busy_idle_notify.c:0:0
	str	x8, [x0, #40]
.Ltmp420:
.LBB17_2:
	//DEBUG_VALUE: blk_mq_tagset_busyidle_enable:enable <- $w1
	//DEBUG_VALUE: blk_mq_tagset_busyidle_enable:tag_set <- $x0
	.loc	2 925 1 is_stmt 1       // kernel/block/mas_blk_busy_idle_notify.c:925:1
	ret
.Ltmp421:
.Lfunc_end17:
	.size	blk_mq_tagset_busyidle_enable, .Lfunc_end17-blk_mq_tagset_busyidle_enable
	.cfi_endproc
                                        // -- End function
	.section	.text.blk_mq_tagset_hw_idle_notify_enable,"ax",@progbits
	.hidden	blk_mq_tagset_hw_idle_notify_enable // -- Begin function blk_mq_tagset_hw_idle_notify_enable
	.globl	blk_mq_tagset_hw_idle_notify_enable
	.p2align	2
	.type	blk_mq_tagset_hw_idle_notify_enable,@function
blk_mq_tagset_hw_idle_notify_enable:    // @blk_mq_tagset_hw_idle_notify_enable
.Lfunc_begin18:
	.loc	2 932 0                 // kernel/block/mas_blk_busy_idle_notify.c:932:0
	.cfi_startproc
// %bb.0:
	//DEBUG_VALUE: blk_mq_tagset_hw_idle_notify_enable:tag_set <- $x0
	//DEBUG_VALUE: blk_mq_tagset_hw_idle_notify_enable:tag_set <- $x0
	//DEBUG_VALUE: blk_mq_tagset_hw_idle_notify_enable:enable <- $w1
	//DEBUG_VALUE: blk_mq_tagset_hw_idle_notify_enable:enable <- $w1
	//DEBUG_VALUE: blk_mq_tagset_hw_idle_notify_enable:blk_lld <- 0
	.loc	2 935 6 prologue_end    // kernel/block/mas_blk_busy_idle_notify.c:935:6
	cbz	x0, .LBB18_2
// %bb.1:
	//DEBUG_VALUE: blk_mq_tagset_hw_idle_notify_enable:enable <- $w1
	//DEBUG_VALUE: blk_mq_tagset_hw_idle_notify_enable:tag_set <- $x0
.Ltmp422:
	//DEBUG_VALUE: blk_mq_tagset_hw_idle_notify_enable:blk_lld <- [DW_OP_plus_uconst 16, DW_OP_stack_value] $x0
	.loc	2 939 41                // kernel/block/mas_blk_busy_idle_notify.c:939:41
	cmp	w1, #0                  // =0
	cset	w8, ne
	.loc	2 939 38 is_stmt 0      // kernel/block/mas_blk_busy_idle_notify.c:939:38
	strb	w8, [x0, #1056]
.LBB18_2:
	//DEBUG_VALUE: blk_mq_tagset_hw_idle_notify_enable:enable <- $w1
	//DEBUG_VALUE: blk_mq_tagset_hw_idle_notify_enable:tag_set <- $x0
	.loc	2 940 1 is_stmt 1       // kernel/block/mas_blk_busy_idle_notify.c:940:1
	ret
.Ltmp423:
.Lfunc_end18:
	.size	blk_mq_tagset_hw_idle_notify_enable, .Lfunc_end18-blk_mq_tagset_hw_idle_notify_enable
	.cfi_endproc
                                        // -- End function
	.section	.text.mas_blk_busyidle_state_init,"ax",@progbits
	.hidden	mas_blk_busyidle_state_init // -- Begin function mas_blk_busyidle_state_init
	.globl	mas_blk_busyidle_state_init
	.p2align	2
	.type	mas_blk_busyidle_state_init,@function
mas_blk_busyidle_state_init:            // @mas_blk_busyidle_state_init
.Lfunc_begin19:
	.loc	2 970 0                 // kernel/block/mas_blk_busy_idle_notify.c:970:0
	.cfi_startproc
// %bb.0:
	//DEBUG_VALUE: mas_blk_busyidle_state_init:blk_idle <- $x0
	str	x23, [sp, #-64]!        // 8-byte Folded Spill
	stp	x22, x21, [sp, #16]     // 16-byte Folded Spill
	stp	x20, x19, [sp, #32]     // 16-byte Folded Spill
	stp	x29, x30, [sp, #48]     // 16-byte Folded Spill
	add	x29, sp, #48            // =48
	.cfi_def_cfa w29, 16
	.cfi_offset w30, -8
	.cfi_offset w29, -16
	.cfi_offset w19, -24
	.cfi_offset w20, -32
	.cfi_offset w21, -40
	.cfi_offset w22, -48
	.cfi_offset w23, -64
.Ltmp424:
	.loc	2 971 7 prologue_end    // kernel/block/mas_blk_busy_idle_notify.c:971:7
	adrp	x20, blk_idle_notify_workqueue
	ldr	x8, [x20, :lo12:blk_idle_notify_workqueue]
	mov	x19, x0
.Ltmp425:
	//DEBUG_VALUE: mas_blk_busyidle_state_init:blk_idle <- $x19
	.loc	2 971 6 is_stmt 0       // kernel/block/mas_blk_busy_idle_notify.c:971:6
	cbnz	x8, .LBB19_2
.Ltmp426:
// %bb.1:
	//DEBUG_VALUE: mas_blk_busyidle_state_init:blk_idle <- $x19
	.loc	2 972 31 is_stmt 1      // kernel/block/mas_blk_busy_idle_notify.c:972:31
	adrp	x0, .L.str.4
	add	x0, x0, :lo12:.L.str.4
	orr	w1, wzr, #0x18
	mov	w2, wzr
	mov	x3, xzr
	mov	x4, xzr
	bl	__alloc_workqueue_key
	.loc	2 972 29 is_stmt 0      // kernel/block/mas_blk_busy_idle_notify.c:972:29
	str	x0, [x20, :lo12:blk_idle_notify_workqueue]
.Ltmp427:
	.loc	2 975 6 is_stmt 1       // kernel/block/mas_blk_busy_idle_notify.c:975:6
	cbz	x0, .LBB19_5
.Ltmp428:
.LBB19_2:
	//DEBUG_VALUE: mas_blk_busyidle_state_init:blk_idle <- $x19
	.loc	2 945 7                 // kernel/block/mas_blk_busy_idle_notify.c:945:7
	adrp	x20, blk_fg_io_idle_notify_workqueue
	ldr	x8, [x20, :lo12:blk_fg_io_idle_notify_workqueue]
.Ltmp429:
	.loc	2 945 6 is_stmt 0       // kernel/block/mas_blk_busy_idle_notify.c:945:6
	cbnz	x8, .LBB19_4
.Ltmp430:
// %bb.3:
	//DEBUG_VALUE: mas_blk_busyidle_state_init:blk_idle <- $x19
	.loc	2 946 37 is_stmt 1      // kernel/block/mas_blk_busy_idle_notify.c:946:37
	adrp	x0, .L.str.20
	add	x0, x0, :lo12:.L.str.20
	orr	w1, wzr, #0x18
	mov	w2, wzr
	mov	x3, xzr
	mov	x4, xzr
	bl	__alloc_workqueue_key
	.loc	2 946 35 is_stmt 0      // kernel/block/mas_blk_busy_idle_notify.c:946:35
	str	x0, [x20, :lo12:blk_fg_io_idle_notify_workqueue]
.Ltmp431:
	.loc	2 949 6 is_stmt 1       // kernel/block/mas_blk_busy_idle_notify.c:949:6
	cbz	x0, .LBB19_6
.Ltmp432:
.LBB19_4:
	//DEBUG_VALUE: mas_blk_busyidle_state_init:blk_idle <- $x19
	.loc	2 0 6 is_stmt 0         // kernel/block/mas_blk_busy_idle_notify.c:0:6
	mov	x20, #68719476704
.Ltmp433:
	.loc	2 996 2 is_stmt 1       // kernel/block/mas_blk_busy_idle_notify.c:996:2
	adrp	x8, __cfi_mas_blk_idle_notify_work
	str	x20, [x19, #8]!
.Ltmp434:
	.loc	2 0 2 is_stmt 0         // kernel/block/mas_blk_busy_idle_notify.c:0:2
	mov	w21, #5
	.loc	2 996 2                 // kernel/block/mas_blk_busy_idle_notify.c:996:2
	add	x8, x8, :lo12:__cfi_mas_blk_idle_notify_work
	add	x9, x19, #8             // =8
.Ltmp435:
	//DEBUG_VALUE: __write_once_size:p <- $x9
	//DEBUG_VALUE: __write_once_size:size <- 8
	//DEBUG_VALUE: __write_once_size:res <- undef
	//DEBUG_VALUE: INIT_LIST_HEAD:list <- $x9
	.loc	2 996 2                 // kernel/block/mas_blk_busy_idle_notify.c:996:2
	add	x0, x19, #32            // =32
	orr	w1, wzr, #0x200000
	mov	x2, xzr
	mov	x3, xzr
.Ltmp436:
	.loc	2 995 33 is_stmt 1      // kernel/block/mas_blk_busy_idle_notify.c:995:33
	str	w21, [x19, #96]
.Ltmp437:
	.loc	140 210 31              // kernel/include/linux/compiler.h:210:31
	str	x9, [x19, #8]
.Ltmp438:
	.loc	142 29 13               // kernel/include/linux/list.h:29:13
	stp	x9, x8, [x19, #16]
.Ltmp439:
	.loc	2 996 2                 // kernel/block/mas_blk_busy_idle_notify.c:996:2
	bl	init_timer_key
.Ltmp440:
	adrp	x22, delayed_work_timer_fn
.Ltmp441:
	.loc	2 999 2                 // kernel/block/mas_blk_busy_idle_notify.c:999:2
	adrp	x1, .L.str.6
	adrp	x2, mas_blk_busyidle_state_init.__key
.Ltmp442:
	.loc	2 996 2                 // kernel/block/mas_blk_busy_idle_notify.c:996:2
	add	x22, x22, :lo12:delayed_work_timer_fn
.Ltmp443:
	.loc	2 999 2                 // kernel/block/mas_blk_busy_idle_notify.c:999:2
	add	x0, x19, #208           // =208
	add	x1, x1, :lo12:.L.str.6
	add	x2, x2, :lo12:mas_blk_busyidle_state_init.__key
.Ltmp444:
	.loc	2 996 2                 // kernel/block/mas_blk_busy_idle_notify.c:996:2
	stp	x22, x19, [x19, #56]
.Ltmp445:
	//DEBUG_VALUE: __write_once_size:p <- [DW_OP_plus_uconst 200, DW_OP_stack_value] $x19
	//DEBUG_VALUE: __write_once_size:size <- 4
	//DEBUG_VALUE: __write_once_size:res <- undef
	.loc	140 209 31              // kernel/include/linux/compiler.h:209:31
	str	wzr, [x19, #200]
.Ltmp446:
	.loc	2 999 2                 // kernel/block/mas_blk_busy_idle_notify.c:999:2
	bl	__mutex_init
.Ltmp447:
	.loc	2 1001 2                // kernel/block/mas_blk_busy_idle_notify.c:1001:2
	adrp	x1, .L.str.8
	adrp	x2, mas_blk_busyidle_state_init.__key.7
.Ltmp448:
	.loc	2 1000 28               // kernel/block/mas_blk_busy_idle_notify.c:1000:28
	add	x8, x19, #104           // =104
.Ltmp449:
	//DEBUG_VALUE: __write_once_size:p <- $x8
	//DEBUG_VALUE: __write_once_size:size <- 8
	//DEBUG_VALUE: __write_once_size:res <- undef
	//DEBUG_VALUE: INIT_LIST_HEAD:list <- $x8
	.loc	2 1001 2                // kernel/block/mas_blk_busy_idle_notify.c:1001:2
	add	x0, x19, #120           // =120
	add	x1, x1, :lo12:.L.str.8
	add	x2, x2, :lo12:mas_blk_busyidle_state_init.__key.7
.Ltmp450:
	.loc	140 210 31              // kernel/include/linux/compiler.h:210:31
	str	x8, [x19, #104]
.Ltmp451:
	.loc	142 29 13               // kernel/include/linux/list.h:29:13
	str	x8, [x19, #112]
.Ltmp452:
	.loc	2 1001 2                // kernel/block/mas_blk_busy_idle_notify.c:1001:2
	bl	__init_rwsem
.Ltmp453:
	.loc	2 961 2                 // kernel/block/mas_blk_busy_idle_notify.c:961:2
	adrp	x9, mas_blk_fg_io_idle_notify_work
	orr	w23, wzr, #0x1
	add	x8, x19, #288           // =288
.Ltmp454:
	//DEBUG_VALUE: __write_once_size:res <- undef
	add	x9, x9, :lo12:mas_blk_fg_io_idle_notify_work
.Ltmp455:
	.loc	2 961 2 is_stmt 0       // kernel/block/mas_blk_busy_idle_notify.c:961:2
	add	x0, x19, #312           // =312
	orr	w1, wzr, #0x200000
	mov	x2, xzr
	mov	x3, xzr
.Ltmp456:
	.loc	2 1001 2 is_stmt 1      // kernel/block/mas_blk_busy_idle_notify.c:1001:2
	str	xzr, [x19, #192]
.Ltmp457:
	.loc	2 960 39                // kernel/block/mas_blk_busy_idle_notify.c:960:39
	str	w21, [x19, #376]
.Ltmp458:
	.loc	2 961 2                 // kernel/block/mas_blk_busy_idle_notify.c:961:2
	add	x21, x19, #280          // =280
	str	x20, [x19, #280]
.Ltmp459:
	.loc	2 1002 23               // kernel/block/mas_blk_busy_idle_notify.c:1002:23
	str	w23, [x19, #272]
.Ltmp460:
	//DEBUG_VALUE: mas_blk_fg_io_busyidle_state_init:blk_idle <- $x19
	//DEBUG_VALUE: __write_once_size:p <- $x8
	//DEBUG_VALUE: __write_once_size:size <- 8
	//DEBUG_VALUE: INIT_LIST_HEAD:list <- $x8
	.loc	140 210 31              // kernel/include/linux/compiler.h:210:31
	str	x8, [x19, #288]
.Ltmp461:
	.loc	142 29 13               // kernel/include/linux/list.h:29:13
	stp	x8, x9, [x19, #296]
.Ltmp462:
	.loc	2 961 2                 // kernel/block/mas_blk_busy_idle_notify.c:961:2
	bl	init_timer_key
.Ltmp463:
	.loc	2 964 2                 // kernel/block/mas_blk_busy_idle_notify.c:964:2
	adrp	x1, .L.str.21
	adrp	x2, mas_blk_fg_io_busyidle_state_init.__key
	add	x0, x19, #384           // =384
	add	x1, x1, :lo12:.L.str.21
	add	x2, x2, :lo12:mas_blk_fg_io_busyidle_state_init.__key
.Ltmp464:
	.loc	2 961 2                 // kernel/block/mas_blk_busy_idle_notify.c:961:2
	stp	x22, x21, [x19, #336]
.Ltmp465:
	//DEBUG_VALUE: __write_once_size:p <- [DW_OP_plus_uconst 380, DW_OP_stack_value] $x19
	//DEBUG_VALUE: __write_once_size:size <- 4
	//DEBUG_VALUE: __write_once_size:res <- undef
	.loc	140 209 31              // kernel/include/linux/compiler.h:209:31
	str	wzr, [x19, #380]
.Ltmp466:
	.loc	2 964 2                 // kernel/block/mas_blk_busy_idle_notify.c:964:2
	bl	__mutex_init
.Ltmp467:
	.loc	2 1011 2                // kernel/block/mas_blk_busy_idle_notify.c:1011:2
	adrp	x1, .L.str.10
	adrp	x2, mas_blk_busyidle_state_init.__key.9
.Ltmp468:
	.loc	2 1009 28               // kernel/block/mas_blk_busy_idle_notify.c:1009:28
	add	x8, x19, #472           // =472
.Ltmp469:
	//DEBUG_VALUE: __write_once_size:res <- undef
	.loc	2 1010 28               // kernel/block/mas_blk_busy_idle_notify.c:1010:28
	add	x9, x19, #488           // =488
.Ltmp470:
	//DEBUG_VALUE: __write_once_size:res <- undef
	//DEBUG_VALUE: __write_once_size:p <- $x8
	//DEBUG_VALUE: __write_once_size:size <- 8
	//DEBUG_VALUE: INIT_LIST_HEAD:list <- $x8
	.loc	2 1011 2                // kernel/block/mas_blk_busy_idle_notify.c:1011:2
	add	x0, x19, #504           // =504
	add	x1, x1, :lo12:.L.str.10
	add	x2, x2, :lo12:mas_blk_busyidle_state_init.__key.9
.Ltmp471:
	.loc	2 965 29                // kernel/block/mas_blk_busy_idle_notify.c:965:29
	str	w23, [x19, #448]
.Ltmp472:
	.loc	2 1008 22               // kernel/block/mas_blk_busy_idle_notify.c:1008:22
	stp	xzr, xzr, [x19, #456]
.Ltmp473:
	.loc	140 210 31              // kernel/include/linux/compiler.h:210:31
	str	x8, [x19, #472]
.Ltmp474:
	.loc	142 29 13               // kernel/include/linux/list.h:29:13
	str	x8, [x19, #480]
.Ltmp475:
	//DEBUG_VALUE: __write_once_size:p <- $x9
	//DEBUG_VALUE: __write_once_size:size <- 8
	//DEBUG_VALUE: INIT_LIST_HEAD:list <- $x9
	.loc	140 210 31              // kernel/include/linux/compiler.h:210:31
	str	x9, [x19, #488]
.Ltmp476:
	.loc	142 29 13               // kernel/include/linux/list.h:29:13
	str	x9, [x19, #496]
.Ltmp477:
	.loc	2 1011 2                // kernel/block/mas_blk_busy_idle_notify.c:1011:2
	bl	__raw_spin_lock_init
.Ltmp478:
	.loc	2 0 0 is_stmt 0         // kernel/block/mas_blk_busy_idle_notify.c:0:0
	mov	w0, wzr
	b	.LBB19_8
.Ltmp479:
.LBB19_5:
	//DEBUG_VALUE: mas_blk_busyidle_state_init:blk_idle <- $x19
	.loc	2 976 3 is_stmt 1       // kernel/block/mas_blk_busy_idle_notify.c:976:3
	adrp	x0, .L.str.5
	adrp	x1, .L__func__.mas_blk_busyidle_state_init
	add	x0, x0, :lo12:.L.str.5
	add	x1, x1, :lo12:.L__func__.mas_blk_busyidle_state_init
	b	.LBB19_7
.Ltmp480:
.LBB19_6:
	//DEBUG_VALUE: mas_blk_busyidle_state_init:blk_idle <- $x19
	.loc	2 950 3                 // kernel/block/mas_blk_busy_idle_notify.c:950:3
	adrp	x0, .L.str.5
	adrp	x1, .L__func__.mas_blk_alloc_fg_io_workqueue
	add	x0, x0, :lo12:.L.str.5
	add	x1, x1, :lo12:.L__func__.mas_blk_alloc_fg_io_workqueue
.Ltmp481:
.LBB19_7:
	//DEBUG_VALUE: mas_blk_busyidle_state_init:blk_idle <- $x19
	.loc	2 0 0 is_stmt 0         // kernel/block/mas_blk_busy_idle_notify.c:0:0
	bl	printk
	mov	w0, #-12
.Ltmp482:
.LBB19_8:
	.loc	2 1014 1 is_stmt 1      // kernel/block/mas_blk_busy_idle_notify.c:1014:1
	ldp	x29, x30, [sp, #48]     // 16-byte Folded Reload
	ldp	x20, x19, [sp, #32]     // 16-byte Folded Reload
	ldp	x22, x21, [sp, #16]     // 16-byte Folded Reload
	ldr	x23, [sp], #64          // 8-byte Folded Reload
	ret
.Ltmp483:
.Lfunc_end19:
	.size	mas_blk_busyidle_state_init, .Lfunc_end19-mas_blk_busyidle_state_init
	.cfi_endproc
                                        // -- End function
	.section	.text.mas_blk_fg_io_idle_notify_work,"ax",@progbits
	.p2align	2               // -- Begin function mas_blk_fg_io_idle_notify_work
	.type	mas_blk_fg_io_idle_notify_work,@function
mas_blk_fg_io_idle_notify_work:         // @mas_blk_fg_io_idle_notify_work
.Lfunc_begin20:
	.loc	2 349 0                 // kernel/block/mas_blk_busy_idle_notify.c:349:0
	.cfi_startproc
// %bb.0:
	//DEBUG_VALUE: mas_blk_fg_io_idle_notify_work:work <- $x0
	str	x21, [sp, #-48]!        // 8-byte Folded Spill
	stp	x20, x19, [sp, #16]     // 16-byte Folded Spill
	stp	x29, x30, [sp, #32]     // 16-byte Folded Spill
	add	x29, sp, #32            // =32
	.cfi_def_cfa w29, 16
	.cfi_offset w30, -8
	.cfi_offset w29, -16
	.cfi_offset w19, -24
	.cfi_offset w20, -32
	.cfi_offset w21, -48
.Ltmp484:
	//DEBUG_VALUE: __mptr <- $x0
	//DEBUG_VALUE: mas_blk_fg_io_idle_notify_work:blk_idle <- [DW_OP_constu 288, DW_OP_minus, DW_OP_stack_value] $x0
	//DEBUG_VALUE: __mptr <- [DW_OP_constu 288, DW_OP_minus, DW_OP_stack_value] $x0
	mov	x21, x0
.Ltmp485:
	//DEBUG_VALUE: mas_blk_fg_io_idle_notify_work:blk_idle <- undef
	//DEBUG_VALUE: __mptr <- undef
	//DEBUG_VALUE: __mptr <- [DW_OP_constu 288, DW_OP_minus, DW_OP_stack_value] $x21
	//DEBUG_VALUE: mas_blk_fg_io_idle_notify_work:blk_idle <- [DW_OP_constu 288, DW_OP_minus, DW_OP_stack_value] $x21
	//DEBUG_VALUE: __mptr <- $x21
	//DEBUG_VALUE: mas_blk_fg_io_idle_notify_work:work <- $x21
	.loc	2 355 3 prologue_end    // kernel/block/mas_blk_busy_idle_notify.c:355:3
	sub	x0, x0, #1328           // =1328
.Ltmp486:
	//DEBUG_VALUE: mas_blk_fg_io_idle_notify_work:blk_lld <- $x0
	.loc	2 356 28                // kernel/block/mas_blk_busy_idle_notify.c:356:28
	bl	mas_blk_get_queue_by_lld
.Ltmp487:
	.loc	2 358 24                // kernel/block/mas_blk_busy_idle_notify.c:358:24
	add	x19, x21, #104          // =104
	.loc	2 356 28                // kernel/block/mas_blk_busy_idle_notify.c:356:28
	mov	x20, x0
.Ltmp488:
	//DEBUG_VALUE: mas_blk_fg_io_idle_notify_work:q <- $x20
	.loc	2 358 2                 // kernel/block/mas_blk_busy_idle_notify.c:358:2
	mov	x0, x19
	bl	mutex_lock
.Ltmp489:
	//DEBUG_VALUE: __read_once_size:p <- [DW_OP_plus_uconst 100, DW_OP_stack_value] $x21
	//DEBUG_VALUE: __read_once_size:size <- 4
	//DEBUG_VALUE: __read_once_size:res <- undef
	.loc	140 183 2               // kernel/include/linux/compiler.h:183:2
	ldr	w8, [x21, #100]
.Ltmp490:
	.loc	2 359 49                // kernel/block/mas_blk_busy_idle_notify.c:359:49
	cbnz	w8, .LBB20_3
.Ltmp491:
// %bb.1:
	//DEBUG_VALUE: mas_blk_fg_io_idle_notify_work:q <- $x20
	//DEBUG_VALUE: mas_blk_fg_io_idle_notify_work:work <- $x21
	//DEBUG_VALUE: mas_blk_fg_io_idle_notify_work:blk_idle <- [DW_OP_constu 288, DW_OP_minus, DW_OP_stack_value] $x21
	.loc	2 360 14                // kernel/block/mas_blk_busy_idle_notify.c:360:14
	ldr	w8, [x21, #168]
.Ltmp492:
	.loc	2 359 6                 // kernel/block/mas_blk_busy_idle_notify.c:359:6
	cmp	w8, #1                  // =1
	b.eq	.LBB20_3
.Ltmp493:
// %bb.2:
	//DEBUG_VALUE: mas_blk_fg_io_idle_notify_work:q <- $x20
	//DEBUG_VALUE: mas_blk_fg_io_idle_notify_work:work <- $x21
	//DEBUG_VALUE: mas_blk_fg_io_idle_notify_work:blk_idle <- [DW_OP_constu 288, DW_OP_minus, DW_OP_stack_value] $x21
	.loc	2 0 6 is_stmt 0         // kernel/block/mas_blk_busy_idle_notify.c:0:6
	orr	w8, wzr, #0x1
.Ltmp494:
	.loc	2 362 43 is_stmt 1      // kernel/block/mas_blk_busy_idle_notify.c:362:43
	sub	x0, x21, #160           // =160
	.loc	2 362 3 is_stmt 0       // kernel/block/mas_blk_busy_idle_notify.c:362:3
	orr	w1, wzr, #0x3
	mov	x2, x20
	.loc	2 361 30 is_stmt 1      // kernel/block/mas_blk_busy_idle_notify.c:361:30
	str	w8, [x21, #168]
	.loc	2 362 3                 // kernel/block/mas_blk_busy_idle_notify.c:362:3
	bl	blocking_notifier_call_chain
.Ltmp495:
.LBB20_3:
	//DEBUG_VALUE: mas_blk_fg_io_idle_notify_work:q <- $x20
	//DEBUG_VALUE: mas_blk_fg_io_idle_notify_work:work <- $x21
	//DEBUG_VALUE: mas_blk_fg_io_idle_notify_work:blk_idle <- [DW_OP_constu 288, DW_OP_minus, DW_OP_stack_value] $x21
	.loc	2 365 2                 // kernel/block/mas_blk_busy_idle_notify.c:365:2
	mov	x0, x19
	bl	mutex_unlock
	.loc	2 366 1                 // kernel/block/mas_blk_busy_idle_notify.c:366:1
	ldp	x29, x30, [sp, #32]     // 16-byte Folded Reload
	ldp	x20, x19, [sp, #16]     // 16-byte Folded Reload
.Ltmp496:
	ldr	x21, [sp], #48          // 8-byte Folded Reload
.Ltmp497:
	ret
.Ltmp498:
.Lfunc_end20:
	.size	mas_blk_fg_io_idle_notify_work, .Lfunc_end20-mas_blk_fg_io_idle_notify_work
	.cfi_endproc
                                        // -- End function
	.type	.L.str,@object          // @.str
	.section	.rodata.str1.1,"aMS",@progbits,1
.L.str:
	.asciz	"\0013[BLK-IO]%s: %s process time is more than %u ms\n"
	.size	.L.str, 50

	.type	.L__func__.mas_blk_busyidle_handler_latency_check_timer_expire,@object // @__func__.mas_blk_busyidle_handler_latency_check_timer_expire
.L__func__.mas_blk_busyidle_handler_latency_check_timer_expire:
	.asciz	"mas_blk_busyidle_handler_latency_check_timer_expire"
	.size	.L__func__.mas_blk_busyidle_handler_latency_check_timer_expire, 52

	.type	.L.str.1,@object        // @.str.1
.L.str.1:
	.asciz	"\0013[BLK-IO]%s: %s NULL callback\n"
	.size	.L.str.1, 32

	.type	.L__func__.mas_blk_busyidle_notify_handler,@object // @__func__.mas_blk_busyidle_notify_handler
.L__func__.mas_blk_busyidle_notify_handler:
	.asciz	"mas_blk_busyidle_notify_handler"
	.size	.L__func__.mas_blk_busyidle_notify_handler, 32

	.type	.L.str.2,@object        // @.str.2
.L.str.2:
	.asciz	"\0013[BLK-IO]%s: %s error!\n"
	.size	.L.str.2, 25

	.type	.L.str.3,@object        // @.str.3
.L.str.3:
	.asciz	"\0013[BLK-IO]%s: %s busy idle callback cost %lld ms\n"
	.size	.L.str.3, 50

	.type	blk_fg_io_idle_notify_workqueue,@object // @blk_fg_io_idle_notify_workqueue
	.section	.bss.blk_fg_io_idle_notify_workqueue,"aw",@nobits
	.p2align	3
blk_fg_io_idle_notify_workqueue:
	.xword	0
	.size	blk_fg_io_idle_notify_workqueue, 8

	.type	blk_idle_notify_workqueue,@object // @blk_idle_notify_workqueue
	.section	.bss.blk_idle_notify_workqueue,"aw",@nobits
	.p2align	3
blk_idle_notify_workqueue:
	.xword	0
	.size	blk_idle_notify_workqueue, 8

	.type	.L.str.4,@object        // @.str.4
	.section	.rodata.str1.1,"aMS",@progbits,1
.L.str.4:
	.asciz	"busyidle_notify"
	.size	.L.str.4, 16

	.type	.L.str.5,@object        // @.str.5
.L.str.5:
	.asciz	"\0013[BLK-IO]%s: Failed to alloc workqueue!\n"
	.size	.L.str.5, 42

	.type	.L__func__.mas_blk_busyidle_state_init,@object // @__func__.mas_blk_busyidle_state_init
.L__func__.mas_blk_busyidle_state_init:
	.asciz	"mas_blk_busyidle_state_init"
	.size	.L__func__.mas_blk_busyidle_state_init, 28

	.type	mas_blk_busyidle_state_init.__key,@object // @mas_blk_busyidle_state_init.__key
	.section	.bss.mas_blk_busyidle_state_init.__key,"aw",@nobits
mas_blk_busyidle_state_init.__key:
	.size	mas_blk_busyidle_state_init.__key, 0

	.type	.L.str.6,@object        // @.str.6
	.section	.rodata.str1.1,"aMS",@progbits,1
.L.str.6:
	.asciz	"&blk_idle->io_count_mutex"
	.size	.L.str.6, 26

	.type	mas_blk_busyidle_state_init.__key.7,@object // @mas_blk_busyidle_state_init.__key.7
	.section	.bss.mas_blk_busyidle_state_init.__key.7,"aw",@nobits
mas_blk_busyidle_state_init.__key.7:
	.size	mas_blk_busyidle_state_init.__key.7, 0

	.type	.L.str.8,@object        // @.str.8
	.section	.rodata.str1.1,"aMS",@progbits,1
.L.str.8:
	.asciz	"&(&blk_idle->nh)->rwsem"
	.size	.L.str.8, 24

	.type	mas_blk_busyidle_state_init.__key.9,@object // @mas_blk_busyidle_state_init.__key.9
	.section	.bss.mas_blk_busyidle_state_init.__key.9,"aw",@nobits
mas_blk_busyidle_state_init.__key.9:
	.size	mas_blk_busyidle_state_init.__key.9, 0

	.type	.L.str.10,@object       // @.str.10
	.section	.rodata.str1.1,"aMS",@progbits,1
.L.str.10:
	.asciz	"&(&blk_idle->counted_list_lock)->rlock"
	.size	.L.str.10, 39

	.type	.L.str.12,@object       // @.str.12
.L.str.12:
	.asciz	"\0013[BLK-IO]%s: io_count has been zero\n"
	.size	.L.str.12, 38

	.type	.L__func__.blk_idle_count,@object // @__func__.blk_idle_count
.L__func__.blk_idle_count:
	.asciz	"blk_idle_count"
	.size	.L__func__.blk_idle_count, 15

	.type	.L.str.13,@object       // @.str.13
.L.str.13:
	.asciz	"\0013[BLK-IO]<%s> io_count has been zero\n"
	.size	.L.str.13, 39

	.type	.L__func__.blk_fg_io_idle_count,@object // @__func__.blk_fg_io_idle_count
.L__func__.blk_fg_io_idle_count:
	.asciz	"blk_fg_io_idle_count"
	.size	.L__func__.blk_fg_io_idle_count, 21

	.type	.L.str.14,@object       // @.str.14
.L.str.14:
	.asciz	"\0013[BLK-IO]%s: %s has been registered already!\n"
	.size	.L.str.14, 47

	.type	.L__func__.mas_blk_busyidle_event_register,@object // @__func__.mas_blk_busyidle_event_register
.L__func__.mas_blk_busyidle_event_register:
	.asciz	"mas_blk_busyidle_event_register"
	.size	.L__func__.mas_blk_busyidle_event_register, 32

	.type	.L.str.15,@object       // @.str.15
.L.str.15:
	.asciz	"\0013[BLK-IO]%s registered to busy idle\n"
	.size	.L.str.15, 38

	.type	.L.str.16,@object       // @.str.16
.L.str.16:
	.asciz	"\0010[BLK-IO]%s: notifier_callback is NULL\n"
	.size	.L.str.16, 41

	.type	.L__func__.is_valid_event_node,@object // @__func__.is_valid_event_node
.L__func__.is_valid_event_node:
	.asciz	"is_valid_event_node"
	.size	.L__func__.is_valid_event_node, 20

	.type	.L.str.17,@object       // @.str.17
.L.str.17:
	.asciz	"\0010[BLK-IO]%s: Invalid subscriber\n"
	.size	.L.str.17, 34

	.type	.L.str.18,@object       // @.str.18
.L.str.18:
	.asciz	"\0013[BLK-IO]Trying to unregister an unregistered event_node!\n"
	.size	.L.str.18, 60

	.type	.L.str.19,@object       // @.str.19
.L.str.19:
	.asciz	"\0013[BLK-IO]%s unregistered from busy idle module 0x%pK\n"
	.size	.L.str.19, 55

	.type	.L.str.20,@object       // @.str.20
.L.str.20:
	.asciz	"fg_busy_idle_notify"
	.size	.L.str.20, 20

	.type	.L__func__.mas_blk_alloc_fg_io_workqueue,@object // @__func__.mas_blk_alloc_fg_io_workqueue
.L__func__.mas_blk_alloc_fg_io_workqueue:
	.asciz	"mas_blk_alloc_fg_io_workqueue"
	.size	.L__func__.mas_blk_alloc_fg_io_workqueue, 30

	.type	mas_blk_fg_io_busyidle_state_init.__key,@object // @mas_blk_fg_io_busyidle_state_init.__key
	.section	.bss.mas_blk_fg_io_busyidle_state_init.__key,"aw",@nobits
mas_blk_fg_io_busyidle_state_init.__key:
	.size	mas_blk_fg_io_busyidle_state_init.__key, 0

	.type	.L.str.21,@object       // @.str.21
	.section	.rodata.str1.1,"aMS",@progbits,1
.L.str.21:
	.asciz	"&blk_idle->fg_io_count_mutex"
	.size	.L.str.21, 29
