	.text
	.file	"mas_blk_dump.c"
	.file	1 "/mnt/disk/jenkins/ci/workspace/chipset_pipeline_release/opensource/component_code/vendor/huawei/extra/build/build_script/kirin_kernel_release/kernel/include/asm-generic/int-ll64.h"
	.file	2 "/mnt/disk/jenkins/ci/workspace/chipset_pipeline_release/opensource/component_code/vendor/huawei/extra/build/build_script/kirin_kernel_release/kernel/arch/arm64/include/asm/spinlock_types.h"
	.file	3 "/mnt/disk/jenkins/ci/workspace/chipset_pipeline_release/opensource/component_code/vendor/huawei/extra/build/build_script/kirin_kernel_release/kernel/include/linux/spinlock_types.h"
	.file	4 "/mnt/disk/jenkins/ci/workspace/chipset_pipeline_release/opensource/component_code/vendor/huawei/extra/build/build_script/kirin_kernel_release/kernel/block/mas_blk_dump.c"
	.file	5 "/mnt/disk/jenkins/ci/workspace/chipset_pipeline_release/opensource/component_code/vendor/huawei/extra/build/build_script/kirin_kernel_release/kernel/include/linux/types.h"
	.file	6 "/mnt/disk/jenkins/ci/workspace/chipset_pipeline_release/opensource/component_code/vendor/huawei/extra/build/build_script/kirin_kernel_release/kernel/include/linux/notifier.h"
	.file	7 "/mnt/disk/jenkins/ci/workspace/chipset_pipeline_release/opensource/component_code/vendor/huawei/extra/build/build_script/kirin_kernel_release/kernel/include/linux/elevator.h"
	.file	8 "/mnt/disk/jenkins/ci/workspace/chipset_pipeline_release/opensource/component_code/vendor/huawei/extra/build/build_script/kirin_kernel_release/kernel/include/linux/kobject_ns.h"
	.file	9 "/mnt/disk/jenkins/ci/workspace/chipset_pipeline_release/opensource/component_code/vendor/huawei/extra/build/build_script/kirin_kernel_release/kernel/include/linux/hrtimer.h"
	.file	10 "/mnt/disk/jenkins/ci/workspace/chipset_pipeline_release/opensource/component_code/vendor/huawei/extra/build/build_script/kirin_kernel_release/kernel/include/linux/module.h"
	.file	11 "/mnt/disk/jenkins/ci/workspace/chipset_pipeline_release/opensource/component_code/vendor/huawei/extra/build/build_script/kirin_kernel_release/kernel/include/linux/quota.h"
	.file	12 "/mnt/disk/jenkins/ci/workspace/chipset_pipeline_release/opensource/component_code/vendor/huawei/extra/build/build_script/kirin_kernel_release/kernel/include/linux/rcu_sync.h"
	.file	13 "/mnt/disk/jenkins/ci/workspace/chipset_pipeline_release/opensource/component_code/vendor/huawei/extra/build/build_script/kirin_kernel_release/kernel/include/linux/fs.h"
	.file	14 "/mnt/disk/jenkins/ci/workspace/chipset_pipeline_release/opensource/component_code/vendor/huawei/extra/build/build_script/kirin_kernel_release/kernel/include/linux/pid.h"
	.file	15 "/mnt/disk/jenkins/ci/workspace/chipset_pipeline_release/opensource/component_code/vendor/huawei/extra/build/build_script/kirin_kernel_release/kernel/include/linux/migrate_mode.h"
	.file	16 "/mnt/disk/jenkins/ci/workspace/chipset_pipeline_release/opensource/component_code/vendor/huawei/extra/build/build_script/kirin_kernel_release/kernel/include/linux/memremap.h"
	.file	17 "/mnt/disk/jenkins/ci/workspace/chipset_pipeline_release/opensource/component_code/vendor/huawei/extra/build/build_script/kirin_kernel_release/kernel/include/linux/mm.h"
	.file	18 "/mnt/disk/jenkins/ci/workspace/chipset_pipeline_release/opensource/component_code/vendor/huawei/extra/build/build_script/kirin_kernel_release/kernel/include/linux/restart_block.h"
	.file	19 "/mnt/disk/jenkins/ci/workspace/chipset_pipeline_release/opensource/component_code/vendor/huawei/extra/build/build_script/kirin_kernel_release/kernel/include/linux/device.h"
	.file	20 "/mnt/disk/jenkins/ci/workspace/chipset_pipeline_release/opensource/component_code/vendor/huawei/extra/build/build_script/kirin_kernel_release/kernel/include/linux/pm.h"
	.file	21 "/mnt/disk/jenkins/ci/workspace/chipset_pipeline_release/opensource/component_code/vendor/huawei/extra/build/build_script/kirin_kernel_release/kernel/include/linux/blkdev.h"
	.file	22 "/mnt/disk/jenkins/ci/workspace/chipset_pipeline_release/opensource/component_code/vendor/huawei/extra/build/build_script/kirin_kernel_release/kernel/block/mas_blk.h"
	.file	23 "/mnt/disk/jenkins/ci/workspace/chipset_pipeline_release/opensource/component_code/vendor/huawei/extra/build/build_script/kirin_kernel_release/kernel/include/linux/blk_types.h"
	.file	24 "/mnt/disk/jenkins/ci/workspace/chipset_pipeline_release/opensource/component_code/vendor/huawei/extra/build/build_script/kirin_kernel_release/kernel/include/linux/stddef.h"
	.file	25 "/mnt/disk/jenkins/ci/workspace/chipset_pipeline_release/opensource/component_code/vendor/huawei/extra/build/build_script/kirin_kernel_release/kernel/include/uapi/asm-generic/posix_types.h"
	.file	26 "/mnt/disk/jenkins/ci/workspace/chipset_pipeline_release/opensource/component_code/vendor/huawei/extra/build/build_script/kirin_kernel_release/kernel/include/linux/llist.h"
	.file	27 "/mnt/disk/jenkins/ci/workspace/chipset_pipeline_release/opensource/component_code/vendor/huawei/extra/build/build_script/kirin_kernel_release/kernel/include/linux/smp.h"
	.file	28 "/mnt/disk/jenkins/ci/workspace/chipset_pipeline_release/opensource/component_code/vendor/huawei/extra/build/build_script/kirin_kernel_release/kernel/block/blk-mq.h"
	.file	29 "/mnt/disk/jenkins/ci/workspace/chipset_pipeline_release/opensource/component_code/vendor/huawei/extra/build/build_script/kirin_kernel_release/kernel/include/linux/kobject.h"
	.file	30 "/mnt/disk/jenkins/ci/workspace/chipset_pipeline_release/opensource/component_code/vendor/huawei/extra/build/build_script/kirin_kernel_release/kernel/include/linux/sysfs.h"
	.file	31 "/mnt/disk/jenkins/ci/workspace/chipset_pipeline_release/opensource/component_code/vendor/huawei/extra/build/build_script/kirin_kernel_release/kernel/include/linux/kernfs.h"
	.file	32 "/mnt/disk/jenkins/ci/workspace/chipset_pipeline_release/opensource/component_code/vendor/huawei/extra/build/build_script/kirin_kernel_release/kernel/include/linux/rbtree.h"
	.file	33 "/mnt/disk/jenkins/ci/workspace/chipset_pipeline_release/opensource/component_code/vendor/huawei/extra/build/build_script/kirin_kernel_release/kernel/include/linux/radix-tree.h"
	.file	34 "/mnt/disk/jenkins/ci/workspace/chipset_pipeline_release/opensource/component_code/vendor/huawei/extra/build/build_script/kirin_kernel_release/kernel/include/linux/idr.h"
	.file	35 "/mnt/disk/jenkins/ci/workspace/chipset_pipeline_release/opensource/component_code/vendor/huawei/extra/build/build_script/kirin_kernel_release/kernel/include/linux/seq_file.h"
	.file	36 "/mnt/disk/jenkins/ci/workspace/chipset_pipeline_release/opensource/component_code/vendor/huawei/extra/build/build_script/kirin_kernel_release/kernel/include/asm-generic/atomic-long.h"
	.file	37 "/mnt/disk/jenkins/ci/workspace/chipset_pipeline_release/opensource/component_code/vendor/huawei/extra/build/build_script/kirin_kernel_release/kernel/include/linux/mutex.h"
	.file	38 "/mnt/disk/jenkins/ci/workspace/chipset_pipeline_release/opensource/component_code/vendor/huawei/extra/build/build_script/kirin_kernel_release/kernel/include/linux/osq_lock.h"
	.file	39 "/mnt/disk/jenkins/ci/workspace/chipset_pipeline_release/opensource/component_code/vendor/huawei/extra/build/build_script/kirin_kernel_release/kernel/arch/arm64/include/asm/thread_info.h"
	.file	40 "/mnt/disk/jenkins/ci/workspace/chipset_pipeline_release/opensource/component_code/vendor/huawei/extra/build/build_script/kirin_kernel_release/kernel/include/linux/sched.h"
	.file	41 "/mnt/disk/jenkins/ci/workspace/chipset_pipeline_release/opensource/component_code/vendor/huawei/extra/build/build_script/kirin_kernel_release/kernel/include/linux/cpumask.h"
	.file	42 "/mnt/disk/jenkins/ci/workspace/chipset_pipeline_release/opensource/component_code/vendor/huawei/extra/build/build_script/kirin_kernel_release/kernel/include/linux/timerqueue.h"
	.file	43 "/mnt/disk/jenkins/ci/workspace/chipset_pipeline_release/opensource/component_code/vendor/huawei/extra/build/build_script/kirin_kernel_release/kernel/include/linux/ktime.h"
	.file	44 "/mnt/disk/jenkins/ci/workspace/chipset_pipeline_release/opensource/component_code/vendor/huawei/extra/build/build_script/kirin_kernel_release/kernel/include/linux/seqlock.h"
	.file	45 "/mnt/disk/jenkins/ci/workspace/chipset_pipeline_release/opensource/component_code/vendor/huawei/extra/build/build_script/kirin_kernel_release/kernel/include/linux/plist.h"
	.file	46 "/mnt/disk/jenkins/ci/workspace/chipset_pipeline_release/opensource/component_code/vendor/huawei/extra/build/build_script/kirin_kernel_release/kernel/include/linux/mm_types.h"
	.file	47 "/mnt/disk/jenkins/ci/workspace/chipset_pipeline_release/opensource/component_code/vendor/huawei/extra/build/build_script/kirin_kernel_release/kernel/arch/arm64/include/asm/pgtable-types.h"
	.file	48 "/mnt/disk/jenkins/ci/workspace/chipset_pipeline_release/opensource/component_code/vendor/huawei/extra/build/build_script/kirin_kernel_release/kernel/include/asm-generic/pgtable-nop4d-hack.h"
	.file	49 "/mnt/disk/jenkins/ci/workspace/chipset_pipeline_release/opensource/component_code/vendor/huawei/extra/build/build_script/kirin_kernel_release/kernel/include/linux/uidgid.h"
	.file	50 "/mnt/disk/jenkins/ci/workspace/chipset_pipeline_release/opensource/component_code/vendor/huawei/extra/build/build_script/kirin_kernel_release/kernel/include/linux/dcache.h"
	.file	51 "/mnt/disk/jenkins/ci/workspace/chipset_pipeline_release/opensource/component_code/vendor/huawei/extra/build/build_script/kirin_kernel_release/kernel/include/linux/list_bl.h"
	.file	52 "/mnt/disk/jenkins/ci/workspace/chipset_pipeline_release/opensource/component_code/vendor/huawei/extra/build/build_script/kirin_kernel_release/kernel/include/linux/lockref.h"
	.file	53 "/mnt/disk/jenkins/ci/workspace/chipset_pipeline_release/opensource/component_code/vendor/huawei/extra/build/build_script/kirin_kernel_release/kernel/include/linux/path.h"
	.file	54 "/mnt/disk/jenkins/ci/workspace/chipset_pipeline_release/opensource/component_code/vendor/huawei/extra/build/build_script/kirin_kernel_release/kernel/include/uapi/asm-generic/int-ll64.h"
	.file	55 "/mnt/disk/jenkins/ci/workspace/chipset_pipeline_release/opensource/component_code/vendor/huawei/extra/build/build_script/kirin_kernel_release/kernel/include/linux/completion.h"
	.file	56 "/mnt/disk/jenkins/ci/workspace/chipset_pipeline_release/opensource/component_code/vendor/huawei/extra/build/build_script/kirin_kernel_release/kernel/include/linux/wait.h"
	.file	57 "/mnt/disk/jenkins/ci/workspace/chipset_pipeline_release/opensource/component_code/vendor/huawei/extra/build/build_script/kirin_kernel_release/kernel/include/linux/export.h"
	.file	58 "/mnt/disk/jenkins/ci/workspace/chipset_pipeline_release/opensource/component_code/vendor/huawei/extra/build/build_script/kirin_kernel_release/kernel/include/linux/cfi.h"
	.file	59 "/mnt/disk/jenkins/ci/workspace/chipset_pipeline_release/opensource/component_code/vendor/huawei/extra/build/build_script/kirin_kernel_release/kernel/include/linux/moduleparam.h"
	.file	60 "/mnt/disk/jenkins/ci/workspace/chipset_pipeline_release/opensource/component_code/vendor/huawei/extra/build/build_script/kirin_kernel_release/kernel/arch/arm64/include/asm/extable.h"
	.file	61 "/mnt/disk/jenkins/ci/workspace/chipset_pipeline_release/opensource/component_code/vendor/huawei/extra/build/build_script/kirin_kernel_release/kernel/include/linux/rbtree_latch.h"
	.file	62 "/mnt/disk/jenkins/ci/workspace/chipset_pipeline_release/opensource/component_code/vendor/huawei/extra/build/build_script/kirin_kernel_release/kernel/include/uapi/linux/elf.h"
	.file	63 "/mnt/disk/jenkins/ci/workspace/chipset_pipeline_release/opensource/component_code/vendor/huawei/extra/build/build_script/kirin_kernel_release/kernel/arch/arm64/include/asm/module.h"
	.file	64 "/mnt/disk/jenkins/ci/workspace/chipset_pipeline_release/opensource/component_code/vendor/huawei/extra/build/build_script/kirin_kernel_release/kernel/include/uapi/linux/types.h"
	.file	65 "/mnt/disk/jenkins/ci/workspace/chipset_pipeline_release/opensource/component_code/vendor/huawei/extra/build/build_script/kirin_kernel_release/kernel/include/asm-generic/bug.h"
	.file	66 "/mnt/disk/jenkins/ci/workspace/chipset_pipeline_release/opensource/component_code/vendor/huawei/extra/build/build_script/kirin_kernel_release/kernel/include/linux/tracepoint-defs.h"
	.file	67 "/mnt/disk/jenkins/ci/workspace/chipset_pipeline_release/opensource/component_code/vendor/huawei/extra/build/build_script/kirin_kernel_release/kernel/include/linux/jump_label.h"
	.file	68 "/mnt/disk/jenkins/ci/workspace/chipset_pipeline_release/opensource/component_code/vendor/huawei/extra/build/build_script/kirin_kernel_release/kernel/include/linux/lockdep.h"
	.file	69 "/mnt/disk/jenkins/ci/workspace/chipset_pipeline_release/opensource/component_code/vendor/huawei/extra/build/build_script/kirin_kernel_release/kernel/include/linux/projid.h"
	.file	70 "/mnt/disk/jenkins/ci/workspace/chipset_pipeline_release/opensource/component_code/vendor/huawei/extra/build/build_script/kirin_kernel_release/kernel/include/linux/time64.h"
	.file	71 "/mnt/disk/jenkins/ci/workspace/chipset_pipeline_release/opensource/component_code/vendor/huawei/extra/build/build_script/kirin_kernel_release/kernel/include/linux/shrinker.h"
	.file	72 "/mnt/disk/jenkins/ci/workspace/chipset_pipeline_release/opensource/component_code/vendor/huawei/extra/build/build_script/kirin_kernel_release/kernel/include/linux/rwsem.h"
	.file	73 "/mnt/disk/jenkins/ci/workspace/chipset_pipeline_release/opensource/component_code/vendor/huawei/extra/build/build_script/kirin_kernel_release/kernel/include/linux/genhd.h"
	.file	74 "/mnt/disk/jenkins/ci/workspace/chipset_pipeline_release/opensource/component_code/vendor/huawei/extra/build/build_script/kirin_kernel_release/kernel/include/linux/nfs_fs_i.h"
	.file	75 "/mnt/disk/jenkins/ci/workspace/chipset_pipeline_release/opensource/component_code/vendor/huawei/extra/build/build_script/kirin_kernel_release/kernel/include/linux/rwlock_types.h"
	.file	76 "/mnt/disk/jenkins/ci/workspace/chipset_pipeline_release/opensource/component_code/vendor/huawei/extra/build/build_script/kirin_kernel_release/kernel/include/linux/cred.h"
	.file	77 "/mnt/disk/jenkins/ci/workspace/chipset_pipeline_release/opensource/component_code/vendor/huawei/extra/build/build_script/kirin_kernel_release/kernel/include/linux/capability.h"
	.file	78 "/mnt/disk/jenkins/ci/workspace/chipset_pipeline_release/opensource/component_code/vendor/huawei/extra/build/build_script/kirin_kernel_release/kernel/include/linux/refcount.h"
	.file	79 "/mnt/disk/jenkins/ci/workspace/chipset_pipeline_release/opensource/component_code/vendor/huawei/extra/build/build_script/kirin_kernel_release/kernel/include/linux/key.h"
	.file	80 "/mnt/disk/jenkins/ci/workspace/chipset_pipeline_release/opensource/component_code/vendor/huawei/extra/build/build_script/kirin_kernel_release/kernel/include/linux/assoc_array.h"
	.file	81 "/mnt/disk/jenkins/ci/workspace/chipset_pipeline_release/opensource/component_code/vendor/huawei/extra/build/build_script/kirin_kernel_release/kernel/include/linux/sched/user.h"
	.file	82 "/mnt/disk/jenkins/ci/workspace/chipset_pipeline_release/opensource/component_code/vendor/huawei/extra/build/build_script/kirin_kernel_release/kernel/include/linux/errseq.h"
	.file	83 "/mnt/disk/jenkins/ci/workspace/chipset_pipeline_release/opensource/component_code/vendor/huawei/extra/build/build_script/kirin_kernel_release/kernel/include/linux/pm_wakeup.h"
	.file	84 "/mnt/disk/jenkins/ci/workspace/chipset_pipeline_release/opensource/component_code/vendor/huawei/extra/build/build_script/kirin_kernel_release/kernel/include/linux/timer.h"
	.file	85 "/mnt/disk/jenkins/ci/workspace/chipset_pipeline_release/opensource/component_code/vendor/huawei/extra/build/build_script/kirin_kernel_release/kernel/include/linux/workqueue.h"
	.file	86 "/mnt/disk/jenkins/ci/workspace/chipset_pipeline_release/opensource/component_code/vendor/huawei/extra/build/build_script/kirin_kernel_release/kernel/include/linux/pinctrl/devinfo.h"
	.file	87 "/mnt/disk/jenkins/ci/workspace/chipset_pipeline_release/opensource/component_code/vendor/huawei/extra/build/build_script/kirin_kernel_release/kernel/arch/arm64/include/asm/device.h"
	.file	88 "/mnt/disk/jenkins/ci/workspace/chipset_pipeline_release/opensource/component_code/vendor/huawei/extra/build/build_script/kirin_kernel_release/kernel/include/linux/klist.h"
	.file	89 "/mnt/disk/jenkins/ci/workspace/chipset_pipeline_release/opensource/component_code/vendor/huawei/extra/build/build_script/kirin_kernel_release/kernel/include/linux/kref.h"
	.file	90 "/mnt/disk/jenkins/ci/workspace/chipset_pipeline_release/opensource/component_code/vendor/huawei/extra/build/build_script/kirin_kernel_release/kernel/include/linux/percpu-refcount.h"
	.file	91 "/mnt/disk/jenkins/ci/workspace/chipset_pipeline_release/opensource/component_code/vendor/huawei/extra/build/build_script/kirin_kernel_release/kernel/include/linux/backing-dev-defs.h"
	.file	92 "/mnt/disk/jenkins/ci/workspace/chipset_pipeline_release/opensource/component_code/vendor/huawei/extra/build/build_script/kirin_kernel_release/kernel/include/linux/percpu_counter.h"
	.file	93 "/mnt/disk/jenkins/ci/workspace/chipset_pipeline_release/opensource/component_code/vendor/huawei/extra/build/build_script/kirin_kernel_release/kernel/include/linux/flex_proportions.h"
	.file	94 "/mnt/disk/jenkins/ci/workspace/chipset_pipeline_release/opensource/component_code/vendor/huawei/extra/build/build_script/kirin_kernel_release/kernel/include/linux/percpu-rwsem.h"
	.file	95 "/mnt/disk/jenkins/ci/workspace/chipset_pipeline_release/opensource/component_code/vendor/huawei/extra/build/build_script/kirin_kernel_release/kernel/include/linux/rcuwait.h"
	.file	96 "/mnt/disk/jenkins/ci/workspace/chipset_pipeline_release/opensource/component_code/vendor/huawei/extra/build/build_script/kirin_kernel_release/kernel/include/linux/uuid.h"
	.file	97 "/mnt/disk/jenkins/ci/workspace/chipset_pipeline_release/opensource/component_code/vendor/huawei/extra/build/build_script/kirin_kernel_release/kernel/include/linux/list_lru.h"
	.file	98 "/mnt/disk/jenkins/ci/workspace/chipset_pipeline_release/opensource/component_code/vendor/huawei/extra/build/build_script/kirin_kernel_release/kernel/include/linux/delayed_call.h"
	.file	99 "/mnt/disk/jenkins/ci/workspace/chipset_pipeline_release/opensource/component_code/vendor/huawei/extra/build/build_script/kirin_kernel_release/kernel/include/uapi/linux/time.h"
	.file	100 "/mnt/disk/jenkins/ci/workspace/chipset_pipeline_release/opensource/component_code/vendor/huawei/extra/build/build_script/kirin_kernel_release/kernel/include/linux/stat.h"
	.file	101 "/mnt/disk/jenkins/ci/workspace/chipset_pipeline_release/opensource/component_code/vendor/huawei/extra/build/build_script/kirin_kernel_release/kernel/include/uapi/linux/fiemap.h"
	.file	102 "/mnt/disk/jenkins/ci/workspace/chipset_pipeline_release/opensource/component_code/vendor/huawei/extra/build/build_script/kirin_kernel_release/kernel/include/linux/mmzone.h"
	.file	103 "/mnt/disk/jenkins/ci/workspace/chipset_pipeline_release/opensource/component_code/vendor/huawei/extra/build/build_script/kirin_kernel_release/kernel/include/linux/ioport.h"
	.file	104 "/mnt/disk/jenkins/ci/workspace/chipset_pipeline_release/opensource/component_code/vendor/huawei/extra/build/build_script/kirin_kernel_release/kernel/arch/arm64/include/asm/page.h"
	.file	105 "/mnt/disk/jenkins/ci/workspace/chipset_pipeline_release/opensource/component_code/vendor/huawei/extra/build/build_script/kirin_kernel_release/kernel/include/linux/mm_types_task.h"
	.file	106 "/mnt/disk/jenkins/ci/workspace/chipset_pipeline_release/opensource/component_code/vendor/huawei/extra/build/build_script/kirin_kernel_release/kernel/arch/arm64/include/asm/mmu.h"
	.file	107 "/mnt/disk/jenkins/ci/workspace/chipset_pipeline_release/opensource/component_code/vendor/huawei/extra/build/build_script/kirin_kernel_release/kernel/include/linux/uprobes.h"
	.file	108 "/mnt/disk/jenkins/ci/workspace/chipset_pipeline_release/opensource/component_code/vendor/huawei/extra/build/build_script/kirin_kernel_release/kernel/include/linux/xreclaimer_types.h"
	.file	109 "/mnt/disk/jenkins/ci/workspace/chipset_pipeline_release/opensource/component_code/vendor/huawei/extra/build/build_script/kirin_kernel_release/kernel/arch/arm64/include/asm/compat.h"
	.file	110 "/mnt/disk/jenkins/ci/workspace/chipset_pipeline_release/opensource/component_code/vendor/huawei/extra/build/build_script/kirin_kernel_release/kernel/include/uapi/asm-generic/signal.h"
	.file	111 "/mnt/disk/jenkins/ci/workspace/chipset_pipeline_release/opensource/component_code/vendor/huawei/extra/build/build_script/kirin_kernel_release/kernel/include/linux/signal_types.h"
	.file	112 "/mnt/disk/jenkins/ci/workspace/chipset_pipeline_release/opensource/component_code/vendor/huawei/extra/build/build_script/kirin_kernel_release/kernel/include/linux/seccomp.h"
	.file	113 "/mnt/disk/jenkins/ci/workspace/chipset_pipeline_release/opensource/component_code/vendor/huawei/extra/build/build_script/kirin_kernel_release/kernel/include/linux/bvec.h"
	.file	114 "/mnt/disk/jenkins/ci/workspace/chipset_pipeline_release/opensource/component_code/vendor/huawei/extra/build/build_script/kirin_kernel_release/kernel/include/linux/iocontext.h"
	.file	115 "/mnt/disk/jenkins/ci/workspace/chipset_pipeline_release/opensource/component_code/vendor/huawei/extra/build/build_script/kirin_kernel_release/kernel/include/linux/bio.h"
	.file	116 "/mnt/disk/jenkins/ci/workspace/chipset_pipeline_release/opensource/component_code/vendor/huawei/extra/build/build_script/kirin_kernel_release/kernel/include/linux/mempool.h"
	.file	117 "/mnt/disk/jenkins/ci/workspace/chipset_pipeline_release/opensource/component_code/vendor/huawei/extra/build/build_script/kirin_kernel_release/kernel/include/uapi/asm-generic/siginfo.h"
	.file	118 "/mnt/disk/jenkins/ci/workspace/chipset_pipeline_release/opensource/component_code/vendor/huawei/extra/build/build_script/kirin_kernel_release/kernel/include/linux/task_io_accounting.h"
	.file	119 "/mnt/disk/jenkins/ci/workspace/chipset_pipeline_release/opensource/component_code/vendor/huawei/extra/build/build_script/kirin_kernel_release/kernel/include/linux/nodemask.h"
	.file	120 "/mnt/disk/jenkins/ci/workspace/chipset_pipeline_release/opensource/component_code/vendor/huawei/extra/build/build_script/kirin_kernel_release/kernel/arch/arm64/include/asm/processor.h"
	.file	121 "/mnt/disk/jenkins/ci/workspace/chipset_pipeline_release/opensource/component_code/vendor/huawei/extra/build/build_script/kirin_kernel_release/kernel/arch/arm64/include/uapi/asm/ptrace.h"
	.file	122 "/mnt/disk/jenkins/ci/workspace/chipset_pipeline_release/opensource/component_code/vendor/huawei/extra/build/build_script/kirin_kernel_release/kernel/arch/arm64/include/asm/fpsimd.h"
	.file	123 "/mnt/disk/jenkins/ci/workspace/chipset_pipeline_release/opensource/component_code/vendor/huawei/extra/build/build_script/kirin_kernel_release/kernel/include/linux/blk-mq.h"
	.file	124 "/mnt/disk/jenkins/ci/workspace/chipset_pipeline_release/opensource/component_code/vendor/huawei/extra/build/build_script/kirin_kernel_release/kernel/block/blk.h"
	.file	125 "/mnt/disk/jenkins/ci/workspace/chipset_pipeline_release/opensource/component_code/vendor/huawei/extra/build/build_script/kirin_kernel_release/kernel/include/linux/sbitmap.h"
	.file	126 "/mnt/disk/jenkins/ci/workspace/chipset_pipeline_release/opensource/component_code/vendor/huawei/extra/build/build_script/kirin_kernel_release/kernel/block/blk-mq-tag.h"
	.file	127 "/mnt/disk/jenkins/ci/workspace/chipset_pipeline_release/opensource/component_code/vendor/huawei/extra/build/build_script/kirin_kernel_release/kernel/include/linux/srcutree.h"
	.file	128 "/mnt/disk/jenkins/ci/workspace/chipset_pipeline_release/opensource/component_code/vendor/huawei/extra/build/build_script/kirin_kernel_release/kernel/include/linux/rcu_segcblist.h"
	.file	129 "/mnt/disk/jenkins/ci/workspace/chipset_pipeline_release/opensource/component_code/vendor/huawei/extra/build/build_script/kirin_kernel_release/kernel/block/blk-stat.h"
	.file	130 "/mnt/disk/jenkins/ci/workspace/chipset_pipeline_release/opensource/component_code/vendor/huawei/extra/build/build_script/kirin_kernel_release/kernel/include/linux/bsg.h"
	.section	.text.mas_blk_dump_request,"ax",@progbits
	.hidden	mas_blk_dump_request    // -- Begin function mas_blk_dump_request
	.globl	mas_blk_dump_request
	.p2align	2
	.type	mas_blk_dump_request,@function
mas_blk_dump_request:                   // @mas_blk_dump_request
.Lfunc_begin0:
	.loc	4 210 0                 // kernel/block/mas_blk_dump.c:210:0
	.cfi_sections .debug_frame
	.cfi_startproc
// %bb.0:
	stp	x28, x27, [sp, #-96]!   // 16-byte Folded Spill
	stp	x26, x25, [sp, #16]     // 16-byte Folded Spill
	stp	x24, x23, [sp, #32]     // 16-byte Folded Spill
	stp	x22, x21, [sp, #48]     // 16-byte Folded Spill
	stp	x20, x19, [sp, #64]     // 16-byte Folded Spill
	stp	x29, x30, [sp, #80]     // 16-byte Folded Spill
	add	x29, sp, #80            // =80
	sub	sp, sp, #560            // =560
	.cfi_def_cfa w29, 16
	.cfi_offset w30, -8
	.cfi_offset w29, -16
	.cfi_offset w19, -24
	.cfi_offset w20, -32
	.cfi_offset w21, -40
	.cfi_offset w22, -48
	.cfi_offset w23, -56
	.cfi_offset w24, -64
	.cfi_offset w25, -72
	.cfi_offset w26, -80
	.cfi_offset w27, -88
	.cfi_offset w28, -96
	adrp	x8, __stack_chk_guard
	ldr	x8, [x8, :lo12:__stack_chk_guard]
.Ltmp0:
	//DEBUG_VALUE: mas_blk_dump_request:rq <- $x19
	.loc	4 209 43 prologue_end   // kernel/block/mas_blk_dump.c:209:43
	add	x22, sp, #8             // =8
.Ltmp1:
	//DEBUG_VALUE: mas_blk_dump_request:s <- $w1
	//DEBUG_VALUE: mas_blk_dump_request:rq <- $x0
	.loc	4 0 43 is_stmt 0        // kernel/block/mas_blk_dump.c:0:43
	mov	x19, x0
	mov	w20, w1
.Ltmp2:
	//DEBUG_VALUE: mas_blk_dump_request:s <- $w20
	str	x8, [x22]
.Ltmp3:
	//DEBUG_VALUE: mas_blk_io_type_rq:type_buf <- undef
	//DEBUG_VALUE: mas_blk_io_type_unistore:type_buf <- undef
	//DEBUG_VALUE: mas_blk_io_type_op:type_buf <- undef
	//DEBUG_VALUE: mas_blk_dump_request:type <- undef
	//DEBUG_VALUE: mas_blk_dump_request:count <- 0
	//DEBUG_VALUE: mas_blk_dump_request:cmp_type <- 0
	.loc	4 39 2 is_stmt 1        // kernel/block/mas_blk_dump.c:39:2
	ldr	w21, [x0, #84]
.Ltmp4:
	//DEBUG_VALUE: mas_blk_io_type_unistore:flag <- $x21
	//DEBUG_VALUE: mas_blk_io_type_flag:flag <- $x21
	//DEBUG_VALUE: mas_blk_io_type_priv_flag:flag <- $x21
	//DEBUG_VALUE: mas_blk_io_type_rq:len <- 10
	//DEBUG_VALUE: mas_blk_io_type_rq:rq <- $x19
	.loc	4 189 34                // kernel/block/mas_blk_dump.c:189:34
	ldr	x23, [x0, #232]
.Ltmp5:
	//DEBUG_VALUE: mas_blk_io_type_op:len <- 10
	//DEBUG_VALUE: mas_blk_io_type_unistore:offset <- 0
	//DEBUG_VALUE: mas_blk_io_type_unistore:len <- 10
	//DEBUG_VALUE: mas_blk_io_type_unistore:flag_unis <- $x23
	//DEBUG_VALUE: mas_blk_io_type_flag_unistore:flag <- $x23
	.loc	4 39 2                  // kernel/block/mas_blk_dump.c:39:2
	and	w8, w21, #0xff
	//DEBUG_VALUE: mas_blk_io_type_unistore:flag <- $x21
	cmp	w8, #7                  // =7
	b.hi	.LBB0_6
.Ltmp6:
// %bb.1:
	//DEBUG_VALUE: mas_blk_io_type_flag_unistore:flag <- $x23
	//DEBUG_VALUE: mas_blk_io_type_unistore:flag_unis <- $x23
	//DEBUG_VALUE: mas_blk_io_type_rq:rq <- $x19
	//DEBUG_VALUE: mas_blk_io_type_priv_flag:flag <- $x21
	//DEBUG_VALUE: mas_blk_io_type_flag:flag <- $x21
	//DEBUG_VALUE: mas_blk_io_type_unistore:flag <- $x21
	//DEBUG_VALUE: mas_blk_dump_request:s <- $w20
	//DEBUG_VALUE: mas_blk_dump_request:rq <- $x0
	.loc	4 0 2 is_stmt 0         // kernel/block/mas_blk_dump.c:0:2
	adrp	x9, .LJTI0_0
	and	x8, x21, #0xff
	add	x9, x9, :lo12:.LJTI0_0
	adr	x10, .LBB0_2
	ldrb	w11, [x9, x8]
	add	x10, x10, x11, lsl #2
	br	x10
.Ltmp7:
.LBB0_2:
	//DEBUG_VALUE: mas_blk_io_type_flag_unistore:flag <- $x23
	//DEBUG_VALUE: mas_blk_io_type_unistore:flag_unis <- $x23
	//DEBUG_VALUE: mas_blk_io_type_rq:rq <- $x19
	//DEBUG_VALUE: mas_blk_io_type_priv_flag:flag <- $x21
	//DEBUG_VALUE: mas_blk_io_type_flag:flag <- $x21
	//DEBUG_VALUE: mas_blk_io_type_unistore:flag <- $x21
	//DEBUG_VALUE: mas_blk_dump_request:s <- $w20
	//DEBUG_VALUE: mas_blk_dump_request:rq <- $x0
	mov	w8, #82
	b	.LBB0_9
.Ltmp8:
.LBB0_3:
	//DEBUG_VALUE: mas_blk_io_type_flag_unistore:flag <- $x23
	//DEBUG_VALUE: mas_blk_io_type_unistore:flag_unis <- $x23
	//DEBUG_VALUE: mas_blk_io_type_rq:rq <- $x19
	//DEBUG_VALUE: mas_blk_io_type_priv_flag:flag <- $x21
	//DEBUG_VALUE: mas_blk_io_type_flag:flag <- $x21
	//DEBUG_VALUE: mas_blk_io_type_unistore:flag <- $x21
	//DEBUG_VALUE: mas_blk_dump_request:s <- $w20
	//DEBUG_VALUE: mas_blk_dump_request:rq <- $x0
	mov	w8, #87
	b	.LBB0_9
.Ltmp9:
.LBB0_4:
	//DEBUG_VALUE: mas_blk_io_type_flag_unistore:flag <- $x23
	//DEBUG_VALUE: mas_blk_io_type_unistore:flag_unis <- $x23
	//DEBUG_VALUE: mas_blk_io_type_rq:rq <- $x19
	//DEBUG_VALUE: mas_blk_io_type_priv_flag:flag <- $x21
	//DEBUG_VALUE: mas_blk_io_type_flag:flag <- $x21
	//DEBUG_VALUE: mas_blk_io_type_unistore:flag <- $x21
	//DEBUG_VALUE: mas_blk_dump_request:s <- $w20
	//DEBUG_VALUE: mas_blk_dump_request:rq <- $x0
	mov	w8, #70
	b	.LBB0_9
.Ltmp10:
.LBB0_5:
	//DEBUG_VALUE: mas_blk_io_type_flag_unistore:flag <- $x23
	//DEBUG_VALUE: mas_blk_io_type_unistore:flag_unis <- $x23
	//DEBUG_VALUE: mas_blk_io_type_rq:rq <- $x19
	//DEBUG_VALUE: mas_blk_io_type_priv_flag:flag <- $x21
	//DEBUG_VALUE: mas_blk_io_type_flag:flag <- $x21
	//DEBUG_VALUE: mas_blk_io_type_unistore:flag <- $x21
	//DEBUG_VALUE: mas_blk_dump_request:s <- $w20
	//DEBUG_VALUE: mas_blk_dump_request:rq <- $x0
	mov	w8, #68
	b	.LBB0_9
.Ltmp11:
.LBB0_6:
	//DEBUG_VALUE: mas_blk_io_type_unistore:flag_unis <- $x23
	//DEBUG_VALUE: mas_blk_io_type_rq:rq <- $x19
	//DEBUG_VALUE: mas_blk_io_type_unistore:flag <- $x21
	//DEBUG_VALUE: mas_blk_dump_request:s <- $w20
	//DEBUG_VALUE: mas_blk_dump_request:rq <- $x0
	.loc	4 59 3 is_stmt 1        // kernel/block/mas_blk_dump.c:59:3
	adrp	x0, .L.str.18
.Ltmp12:
	adrp	x1, .L__func__.mas_blk_io_type_op
	add	x0, x0, :lo12:.L.str.18
	add	x1, x1, :lo12:.L__func__.mas_blk_io_type_op
	bl	printk
.Ltmp13:
	.loc	4 0 0 is_stmt 0         // kernel/block/mas_blk_dump.c:0:0
	mov	w8, wzr
	b	.LBB0_10
.Ltmp14:
.LBB0_7:
	//DEBUG_VALUE: mas_blk_io_type_flag_unistore:flag <- $x23
	//DEBUG_VALUE: mas_blk_io_type_unistore:flag_unis <- $x23
	//DEBUG_VALUE: mas_blk_io_type_rq:rq <- $x19
	//DEBUG_VALUE: mas_blk_io_type_priv_flag:flag <- $x21
	//DEBUG_VALUE: mas_blk_io_type_flag:flag <- $x21
	//DEBUG_VALUE: mas_blk_io_type_unistore:flag <- $x21
	//DEBUG_VALUE: mas_blk_dump_request:s <- $w20
	//DEBUG_VALUE: mas_blk_dump_request:rq <- $x0
	mov	w8, #69
	b	.LBB0_9
.Ltmp15:
.LBB0_8:
	//DEBUG_VALUE: mas_blk_io_type_flag_unistore:flag <- $x23
	//DEBUG_VALUE: mas_blk_io_type_unistore:flag_unis <- $x23
	//DEBUG_VALUE: mas_blk_io_type_rq:rq <- $x19
	//DEBUG_VALUE: mas_blk_io_type_priv_flag:flag <- $x21
	//DEBUG_VALUE: mas_blk_io_type_flag:flag <- $x21
	//DEBUG_VALUE: mas_blk_io_type_unistore:flag <- $x21
	//DEBUG_VALUE: mas_blk_dump_request:s <- $w20
	//DEBUG_VALUE: mas_blk_dump_request:rq <- $x0
	mov	w8, #84
.Ltmp16:
.LBB0_9:
	//DEBUG_VALUE: mas_blk_io_type_flag_unistore:flag <- $x23
	//DEBUG_VALUE: mas_blk_io_type_unistore:flag_unis <- $x23
	//DEBUG_VALUE: mas_blk_io_type_rq:rq <- $x19
	//DEBUG_VALUE: mas_blk_io_type_priv_flag:flag <- $x21
	//DEBUG_VALUE: mas_blk_io_type_flag:flag <- $x21
	//DEBUG_VALUE: mas_blk_io_type_unistore:flag <- $x21
	//DEBUG_VALUE: mas_blk_dump_request:s <- $w20
	//DEBUG_VALUE: mas_blk_dump_request:rq <- $x0
	strb	w8, [sp, #20]
	orr	w8, wzr, #0x1
.Ltmp17:
.LBB0_10:
	//DEBUG_VALUE: mas_blk_io_type_unistore:flag_unis <- $x23
	//DEBUG_VALUE: mas_blk_io_type_rq:rq <- $x19
	//DEBUG_VALUE: mas_blk_io_type_unistore:flag <- $x21
	//DEBUG_VALUE: mas_blk_dump_request:s <- $w20
	//DEBUG_VALUE: mas_blk_io_type_unistore:offset <- $w8
	add	x9, sp, #20             // =20
	.loc	4 150 48 is_stmt 1      // kernel/block/mas_blk_dump.c:150:48
	orr	x10, x9, x8
.Ltmp18:
	//DEBUG_VALUE: mas_blk_io_type_flag:offset <- 0
	//DEBUG_VALUE: mas_blk_io_type_flag:type_buf <- $x10
	.loc	4 70 23                 // kernel/block/mas_blk_dump.c:70:23
	tbnz	w21, #18, .LBB0_12
.Ltmp19:
// %bb.11:
	//DEBUG_VALUE: mas_blk_io_type_flag:type_buf <- $x10
	//DEBUG_VALUE: mas_blk_io_type_unistore:offset <- $w8
	//DEBUG_VALUE: mas_blk_io_type_unistore:flag_unis <- $x23
	//DEBUG_VALUE: mas_blk_io_type_rq:rq <- $x19
	//DEBUG_VALUE: mas_blk_io_type_unistore:flag <- $x21
	//DEBUG_VALUE: mas_blk_dump_request:s <- $w20
	.loc	4 0 0 is_stmt 0         // kernel/block/mas_blk_dump.c:0:0
	mov	w9, wzr
	mov	w11, #10
.Ltmp20:
	//DEBUG_VALUE: mas_blk_io_type_flag:offset <- $w9
	.loc	4 74 24 is_stmt 1       // kernel/block/mas_blk_dump.c:74:24
	tbnz	w21, #11, .LBB0_13
	b	.LBB0_14
.Ltmp21:
.LBB0_12:
	//DEBUG_VALUE: mas_blk_io_type_flag:type_buf <- $x10
	//DEBUG_VALUE: mas_blk_io_type_unistore:offset <- $w8
	//DEBUG_VALUE: mas_blk_io_type_unistore:flag_unis <- $x23
	//DEBUG_VALUE: mas_blk_io_type_rq:rq <- $x19
	//DEBUG_VALUE: mas_blk_io_type_unistore:flag <- $x21
	//DEBUG_VALUE: mas_blk_dump_request:s <- $w20
	.loc	4 0 24 is_stmt 0        // kernel/block/mas_blk_dump.c:0:24
	mov	w9, #65
.Ltmp22:
	.loc	4 71 20 is_stmt 1       // kernel/block/mas_blk_dump.c:71:20
	strb	w9, [x10]
	orr	w9, wzr, #0x1
.Ltmp23:
	//DEBUG_VALUE: mas_blk_io_type_flag:offset <- 1
	.loc	4 0 20 is_stmt 0        // kernel/block/mas_blk_dump.c:0:20
	mov	w11, #10
.Ltmp24:
	//DEBUG_VALUE: mas_blk_io_type_flag:offset <- $w9
	.loc	4 74 24 is_stmt 1       // kernel/block/mas_blk_dump.c:74:24
	tbz	w21, #11, .LBB0_14
.Ltmp25:
.LBB0_13:
	//DEBUG_VALUE: mas_blk_io_type_flag:offset <- $w9
	//DEBUG_VALUE: mas_blk_io_type_flag:type_buf <- $x10
	//DEBUG_VALUE: mas_blk_io_type_unistore:offset <- $w8
	//DEBUG_VALUE: mas_blk_io_type_unistore:flag_unis <- $x23
	//DEBUG_VALUE: mas_blk_io_type_rq:rq <- $x19
	//DEBUG_VALUE: mas_blk_io_type_unistore:flag <- $x21
	//DEBUG_VALUE: mas_blk_dump_request:s <- $w20
	.loc	4 0 24 is_stmt 0        // kernel/block/mas_blk_dump.c:0:24
	mov	w12, #83
.Ltmp26:
	.loc	4 75 20 is_stmt 1       // kernel/block/mas_blk_dump.c:75:20
	strb	w12, [x10, w9, uxtw]
	.loc	4 76 9                  // kernel/block/mas_blk_dump.c:76:9
	add	w9, w9, #1              // =1
.Ltmp27:
	//DEBUG_VALUE: mas_blk_io_type_flag:offset <- $w9
.LBB0_14:
	//DEBUG_VALUE: mas_blk_io_type_flag:offset <- $w9
	//DEBUG_VALUE: mas_blk_io_type_flag:type_buf <- $x10
	//DEBUG_VALUE: mas_blk_io_type_unistore:offset <- $w8
	//DEBUG_VALUE: mas_blk_io_type_unistore:flag_unis <- $x23
	//DEBUG_VALUE: mas_blk_io_type_rq:rq <- $x19
	//DEBUG_VALUE: mas_blk_io_type_unistore:flag <- $x21
	//DEBUG_VALUE: mas_blk_dump_request:s <- $w20
	.loc	4 0 0 is_stmt 0         // kernel/block/mas_blk_dump.c:0:0
	sub	w11, w11, w8
.Ltmp28:
	//DEBUG_VALUE: mas_blk_io_type_flag:len <- $w11
	//DEBUG_VALUE: mas_blk_io_type_flag:offset <- $w9
	.loc	4 78 24 is_stmt 1       // kernel/block/mas_blk_dump.c:78:24
	tbz	w21, #12, .LBB0_17
.Ltmp29:
// %bb.15:
	//DEBUG_VALUE: mas_blk_io_type_flag:len <- $w11
	//DEBUG_VALUE: mas_blk_io_type_flag:offset <- $w9
	//DEBUG_VALUE: mas_blk_io_type_flag:type_buf <- $x10
	//DEBUG_VALUE: mas_blk_io_type_unistore:offset <- $w8
	//DEBUG_VALUE: mas_blk_io_type_unistore:flag_unis <- $x23
	//DEBUG_VALUE: mas_blk_io_type_rq:rq <- $x19
	//DEBUG_VALUE: mas_blk_io_type_unistore:flag <- $x21
	//DEBUG_VALUE: mas_blk_dump_request:s <- $w20
	cmp	w9, w11
	b.ge	.LBB0_17
.Ltmp30:
// %bb.16:
	//DEBUG_VALUE: mas_blk_io_type_flag:len <- $w11
	//DEBUG_VALUE: mas_blk_io_type_flag:offset <- $w9
	//DEBUG_VALUE: mas_blk_io_type_flag:type_buf <- $x10
	//DEBUG_VALUE: mas_blk_io_type_unistore:offset <- $w8
	//DEBUG_VALUE: mas_blk_io_type_unistore:flag_unis <- $x23
	//DEBUG_VALUE: mas_blk_io_type_rq:rq <- $x19
	//DEBUG_VALUE: mas_blk_io_type_unistore:flag <- $x21
	//DEBUG_VALUE: mas_blk_dump_request:s <- $w20
	.loc	4 0 24 is_stmt 0        // kernel/block/mas_blk_dump.c:0:24
	mov	w12, #77
.Ltmp31:
	.loc	4 79 20 is_stmt 1       // kernel/block/mas_blk_dump.c:79:20
	strb	w12, [x10, w9, uxtw]
	.loc	4 80 9                  // kernel/block/mas_blk_dump.c:80:9
	add	w9, w9, #1              // =1
.Ltmp32:
	//DEBUG_VALUE: mas_blk_io_type_flag:offset <- $w9
.LBB0_17:
	//DEBUG_VALUE: mas_blk_io_type_flag:len <- $w11
	//DEBUG_VALUE: mas_blk_io_type_flag:offset <- $w9
	//DEBUG_VALUE: mas_blk_io_type_flag:type_buf <- $x10
	//DEBUG_VALUE: mas_blk_io_type_unistore:offset <- $w8
	//DEBUG_VALUE: mas_blk_io_type_unistore:flag_unis <- $x23
	//DEBUG_VALUE: mas_blk_io_type_rq:rq <- $x19
	//DEBUG_VALUE: mas_blk_io_type_unistore:flag <- $x21
	//DEBUG_VALUE: mas_blk_dump_request:s <- $w20
	//DEBUG_VALUE: mas_blk_io_type_flag:offset <- $w9
	.loc	4 82 28                 // kernel/block/mas_blk_dump.c:82:28
	tbz	w21, #19, .LBB0_20
.Ltmp33:
// %bb.18:
	//DEBUG_VALUE: mas_blk_io_type_flag:len <- $w11
	//DEBUG_VALUE: mas_blk_io_type_flag:offset <- $w9
	//DEBUG_VALUE: mas_blk_io_type_flag:type_buf <- $x10
	//DEBUG_VALUE: mas_blk_io_type_unistore:offset <- $w8
	//DEBUG_VALUE: mas_blk_io_type_unistore:flag_unis <- $x23
	//DEBUG_VALUE: mas_blk_io_type_rq:rq <- $x19
	//DEBUG_VALUE: mas_blk_io_type_unistore:flag <- $x21
	//DEBUG_VALUE: mas_blk_dump_request:s <- $w20
	cmp	w9, w11
	b.ge	.LBB0_20
.Ltmp34:
// %bb.19:
	//DEBUG_VALUE: mas_blk_io_type_flag:len <- $w11
	//DEBUG_VALUE: mas_blk_io_type_flag:offset <- $w9
	//DEBUG_VALUE: mas_blk_io_type_flag:type_buf <- $x10
	//DEBUG_VALUE: mas_blk_io_type_unistore:offset <- $w8
	//DEBUG_VALUE: mas_blk_io_type_unistore:flag_unis <- $x23
	//DEBUG_VALUE: mas_blk_io_type_rq:rq <- $x19
	//DEBUG_VALUE: mas_blk_io_type_unistore:flag <- $x21
	//DEBUG_VALUE: mas_blk_dump_request:s <- $w20
	.loc	4 0 28 is_stmt 0        // kernel/block/mas_blk_dump.c:0:28
	mov	w11, #70
.Ltmp35:
	.loc	4 83 20 is_stmt 1       // kernel/block/mas_blk_dump.c:83:20
	strb	w11, [x10, w9, uxtw]
	.loc	4 84 9                  // kernel/block/mas_blk_dump.c:84:9
	add	w9, w9, #1              // =1
.Ltmp36:
	//DEBUG_VALUE: mas_blk_io_type_flag:offset <- $w9
.LBB0_20:
	//DEBUG_VALUE: mas_blk_io_type_unistore:offset <- $w8
	//DEBUG_VALUE: mas_blk_io_type_unistore:flag_unis <- $x23
	//DEBUG_VALUE: mas_blk_io_type_rq:rq <- $x19
	//DEBUG_VALUE: mas_blk_io_type_unistore:flag <- $x21
	//DEBUG_VALUE: mas_blk_dump_request:s <- $w20
	.loc	4 0 9 is_stmt 0         // kernel/block/mas_blk_dump.c:0:9
	mov	w10, wzr
	.loc	4 150 9 is_stmt 1       // kernel/block/mas_blk_dump.c:150:9
	add	w8, w9, w8
.Ltmp37:
	//DEBUG_VALUE: mas_blk_io_type_unistore:offset <- $w8
	.loc	4 0 9 is_stmt 0         // kernel/block/mas_blk_dump.c:0:9
	mov	w11, #10
.Ltmp38:
	//DEBUG_VALUE: mas_blk_io_type_flag_unistore:offset <- 0
	//DEBUG_VALUE: mas_blk_io_type_flag_unistore:type_buf <- undef
	.loc	4 94 27 is_stmt 1       // kernel/block/mas_blk_dump.c:94:27
	tbz	w23, #1, .LBB0_23
.Ltmp39:
// %bb.21:
	//DEBUG_VALUE: mas_blk_io_type_unistore:offset <- $w8
	//DEBUG_VALUE: mas_blk_io_type_unistore:flag_unis <- $x23
	//DEBUG_VALUE: mas_blk_io_type_rq:rq <- $x19
	//DEBUG_VALUE: mas_blk_io_type_unistore:flag <- $x21
	//DEBUG_VALUE: mas_blk_dump_request:s <- $w20
	.loc	4 0 0 is_stmt 0         // kernel/block/mas_blk_dump.c:0:0
	sub	w9, w11, w8
.Ltmp40:
	//DEBUG_VALUE: mas_blk_io_type_flag_unistore:len <- $w9
	.loc	4 94 27                 // kernel/block/mas_blk_dump.c:94:27
	cmp	w9, #1                  // =1
	b.lt	.LBB0_23
.Ltmp41:
// %bb.22:
	//DEBUG_VALUE: mas_blk_io_type_flag_unistore:len <- $w9
	//DEBUG_VALUE: mas_blk_io_type_unistore:offset <- $w8
	//DEBUG_VALUE: mas_blk_io_type_unistore:flag_unis <- $x23
	//DEBUG_VALUE: mas_blk_io_type_rq:rq <- $x19
	//DEBUG_VALUE: mas_blk_io_type_unistore:flag <- $x21
	//DEBUG_VALUE: mas_blk_dump_request:s <- $w20
	//DEBUG_VALUE: mas_blk_io_type_flag_unistore:type_buf <- undef
	.loc	4 0 27                  // kernel/block/mas_blk_dump.c:0:27
	add	x9, sp, #20             // =20
.Ltmp42:
	mov	w10, #76
.Ltmp43:
	.loc	4 95 20 is_stmt 1       // kernel/block/mas_blk_dump.c:95:20
	strb	w10, [x9, w8, uxtw]
	orr	w10, wzr, #0x1
.Ltmp44:
	//DEBUG_VALUE: mas_blk_io_type_flag_unistore:offset <- 1
.LBB0_23:
	//DEBUG_VALUE: mas_blk_io_type_unistore:offset <- $w8
	//DEBUG_VALUE: mas_blk_io_type_unistore:flag_unis <- $x23
	//DEBUG_VALUE: mas_blk_io_type_rq:rq <- $x19
	//DEBUG_VALUE: mas_blk_io_type_unistore:flag <- $x21
	//DEBUG_VALUE: mas_blk_dump_request:s <- $w20
	//DEBUG_VALUE: mas_blk_io_type_flag_unistore:offset <- $w10
	.loc	4 151 9                 // kernel/block/mas_blk_dump.c:151:9
	add	w8, w10, w8
.Ltmp45:
	//DEBUG_VALUE: mas_blk_io_type_unistore:offset <- $w8
	.loc	4 0 9 is_stmt 0         // kernel/block/mas_blk_dump.c:0:9
	add	x10, sp, #20            // =20
.Ltmp46:
	mov	w9, wzr
	.loc	4 154 18 is_stmt 1      // kernel/block/mas_blk_dump.c:154:18
	add	x10, x10, x8
	.loc	4 154 32 is_stmt 0      // kernel/block/mas_blk_dump.c:154:32
	sub	w11, w11, w8
.Ltmp47:
	//DEBUG_VALUE: mas_blk_io_type_priv_flag:offset <- 0
	//DEBUG_VALUE: mas_blk_io_type_priv_flag:len <- $w11
	//DEBUG_VALUE: mas_blk_io_type_priv_flag:type_buf <- $x10
	.loc	4 106 22 is_stmt 1      // kernel/block/mas_blk_dump.c:106:22
	tbz	w21, #22, .LBB0_26
.Ltmp48:
// %bb.24:
	//DEBUG_VALUE: mas_blk_io_type_priv_flag:type_buf <- $x10
	//DEBUG_VALUE: mas_blk_io_type_priv_flag:len <- $w11
	//DEBUG_VALUE: mas_blk_io_type_unistore:offset <- $w8
	//DEBUG_VALUE: mas_blk_io_type_unistore:flag_unis <- $x23
	//DEBUG_VALUE: mas_blk_io_type_rq:rq <- $x19
	//DEBUG_VALUE: mas_blk_io_type_unistore:flag <- $x21
	//DEBUG_VALUE: mas_blk_dump_request:s <- $w20
	cmp	w11, #1                 // =1
	b.lt	.LBB0_26
.Ltmp49:
// %bb.25:
	//DEBUG_VALUE: mas_blk_io_type_priv_flag:type_buf <- $x10
	//DEBUG_VALUE: mas_blk_io_type_priv_flag:len <- $w11
	//DEBUG_VALUE: mas_blk_io_type_unistore:offset <- $w8
	//DEBUG_VALUE: mas_blk_io_type_unistore:flag_unis <- $x23
	//DEBUG_VALUE: mas_blk_io_type_rq:rq <- $x19
	//DEBUG_VALUE: mas_blk_io_type_unistore:flag <- $x21
	//DEBUG_VALUE: mas_blk_dump_request:s <- $w20
	.loc	4 0 22 is_stmt 0        // kernel/block/mas_blk_dump.c:0:22
	mov	w9, #72
.Ltmp50:
	.loc	4 107 20 is_stmt 1      // kernel/block/mas_blk_dump.c:107:20
	strb	w9, [x10]
	orr	w9, wzr, #0x1
.Ltmp51:
	//DEBUG_VALUE: mas_blk_io_type_priv_flag:offset <- 1
.LBB0_26:
	//DEBUG_VALUE: mas_blk_io_type_priv_flag:type_buf <- $x10
	//DEBUG_VALUE: mas_blk_io_type_priv_flag:len <- $w11
	//DEBUG_VALUE: mas_blk_io_type_unistore:offset <- $w8
	//DEBUG_VALUE: mas_blk_io_type_unistore:flag_unis <- $x23
	//DEBUG_VALUE: mas_blk_io_type_rq:rq <- $x19
	//DEBUG_VALUE: mas_blk_io_type_unistore:flag <- $x21
	//DEBUG_VALUE: mas_blk_dump_request:s <- $w20
	//DEBUG_VALUE: mas_blk_io_type_priv_flag:offset <- $w9
	.loc	4 110 22                // kernel/block/mas_blk_dump.c:110:22
	tbz	w21, #28, .LBB0_29
.Ltmp52:
// %bb.27:
	//DEBUG_VALUE: mas_blk_io_type_priv_flag:offset <- $w9
	//DEBUG_VALUE: mas_blk_io_type_priv_flag:type_buf <- $x10
	//DEBUG_VALUE: mas_blk_io_type_priv_flag:len <- $w11
	//DEBUG_VALUE: mas_blk_io_type_unistore:offset <- $w8
	//DEBUG_VALUE: mas_blk_io_type_unistore:flag_unis <- $x23
	//DEBUG_VALUE: mas_blk_io_type_rq:rq <- $x19
	//DEBUG_VALUE: mas_blk_io_type_unistore:flag <- $x21
	//DEBUG_VALUE: mas_blk_dump_request:s <- $w20
	cmp	w9, w11
	b.ge	.LBB0_29
.Ltmp53:
// %bb.28:
	//DEBUG_VALUE: mas_blk_io_type_priv_flag:offset <- $w9
	//DEBUG_VALUE: mas_blk_io_type_priv_flag:type_buf <- $x10
	//DEBUG_VALUE: mas_blk_io_type_priv_flag:len <- $w11
	//DEBUG_VALUE: mas_blk_io_type_unistore:offset <- $w8
	//DEBUG_VALUE: mas_blk_io_type_unistore:flag_unis <- $x23
	//DEBUG_VALUE: mas_blk_io_type_rq:rq <- $x19
	//DEBUG_VALUE: mas_blk_io_type_unistore:flag <- $x21
	//DEBUG_VALUE: mas_blk_dump_request:s <- $w20
	.loc	4 0 22 is_stmt 0        // kernel/block/mas_blk_dump.c:0:22
	mov	w12, #67
.Ltmp54:
	.loc	4 111 20 is_stmt 1      // kernel/block/mas_blk_dump.c:111:20
	strb	w12, [x10, w9, uxtw]
	.loc	4 112 9                 // kernel/block/mas_blk_dump.c:112:9
	add	w9, w9, #1              // =1
.Ltmp55:
	//DEBUG_VALUE: mas_blk_io_type_priv_flag:offset <- $w9
.LBB0_29:
	//DEBUG_VALUE: mas_blk_io_type_priv_flag:offset <- $w9
	//DEBUG_VALUE: mas_blk_io_type_priv_flag:type_buf <- $x10
	//DEBUG_VALUE: mas_blk_io_type_priv_flag:len <- $w11
	//DEBUG_VALUE: mas_blk_io_type_unistore:offset <- $w8
	//DEBUG_VALUE: mas_blk_io_type_unistore:flag_unis <- $x23
	//DEBUG_VALUE: mas_blk_io_type_rq:rq <- $x19
	//DEBUG_VALUE: mas_blk_io_type_unistore:flag <- $x21
	//DEBUG_VALUE: mas_blk_dump_request:s <- $w20
	//DEBUG_VALUE: mas_blk_io_type_priv_flag:offset <- $w9
	.loc	4 114 22                // kernel/block/mas_blk_dump.c:114:22
	tbz	w21, #27, .LBB0_32
.Ltmp56:
// %bb.30:
	//DEBUG_VALUE: mas_blk_io_type_priv_flag:offset <- $w9
	//DEBUG_VALUE: mas_blk_io_type_priv_flag:type_buf <- $x10
	//DEBUG_VALUE: mas_blk_io_type_priv_flag:len <- $w11
	//DEBUG_VALUE: mas_blk_io_type_unistore:offset <- $w8
	//DEBUG_VALUE: mas_blk_io_type_unistore:flag_unis <- $x23
	//DEBUG_VALUE: mas_blk_io_type_rq:rq <- $x19
	//DEBUG_VALUE: mas_blk_io_type_unistore:flag <- $x21
	//DEBUG_VALUE: mas_blk_dump_request:s <- $w20
	cmp	w9, w11
	b.ge	.LBB0_32
.Ltmp57:
// %bb.31:
	//DEBUG_VALUE: mas_blk_io_type_priv_flag:offset <- $w9
	//DEBUG_VALUE: mas_blk_io_type_priv_flag:type_buf <- $x10
	//DEBUG_VALUE: mas_blk_io_type_priv_flag:len <- $w11
	//DEBUG_VALUE: mas_blk_io_type_unistore:offset <- $w8
	//DEBUG_VALUE: mas_blk_io_type_unistore:flag_unis <- $x23
	//DEBUG_VALUE: mas_blk_io_type_rq:rq <- $x19
	//DEBUG_VALUE: mas_blk_io_type_unistore:flag <- $x21
	//DEBUG_VALUE: mas_blk_dump_request:s <- $w20
	.loc	4 0 22 is_stmt 0        // kernel/block/mas_blk_dump.c:0:22
	mov	w12, #90
.Ltmp58:
	.loc	4 115 20 is_stmt 1      // kernel/block/mas_blk_dump.c:115:20
	strb	w12, [x10, w9, uxtw]
	.loc	4 116 9                 // kernel/block/mas_blk_dump.c:116:9
	add	w9, w9, #1              // =1
.Ltmp59:
	//DEBUG_VALUE: mas_blk_io_type_priv_flag:offset <- $w9
.LBB0_32:
	//DEBUG_VALUE: mas_blk_io_type_priv_flag:offset <- $w9
	//DEBUG_VALUE: mas_blk_io_type_priv_flag:type_buf <- $x10
	//DEBUG_VALUE: mas_blk_io_type_priv_flag:len <- $w11
	//DEBUG_VALUE: mas_blk_io_type_unistore:offset <- $w8
	//DEBUG_VALUE: mas_blk_io_type_unistore:flag_unis <- $x23
	//DEBUG_VALUE: mas_blk_io_type_rq:rq <- $x19
	//DEBUG_VALUE: mas_blk_io_type_unistore:flag <- $x21
	//DEBUG_VALUE: mas_blk_dump_request:s <- $w20
	//DEBUG_VALUE: mas_blk_io_type_priv_flag:offset <- $w9
	.loc	4 118 23                // kernel/block/mas_blk_dump.c:118:23
	tbz	w21, #23, .LBB0_35
.Ltmp60:
// %bb.33:
	//DEBUG_VALUE: mas_blk_io_type_priv_flag:offset <- $w9
	//DEBUG_VALUE: mas_blk_io_type_priv_flag:type_buf <- $x10
	//DEBUG_VALUE: mas_blk_io_type_priv_flag:len <- $w11
	//DEBUG_VALUE: mas_blk_io_type_unistore:offset <- $w8
	//DEBUG_VALUE: mas_blk_io_type_unistore:flag_unis <- $x23
	//DEBUG_VALUE: mas_blk_io_type_rq:rq <- $x19
	//DEBUG_VALUE: mas_blk_io_type_unistore:flag <- $x21
	//DEBUG_VALUE: mas_blk_dump_request:s <- $w20
	cmp	w9, w11
	b.ge	.LBB0_35
.Ltmp61:
// %bb.34:
	//DEBUG_VALUE: mas_blk_io_type_priv_flag:offset <- $w9
	//DEBUG_VALUE: mas_blk_io_type_priv_flag:type_buf <- $x10
	//DEBUG_VALUE: mas_blk_io_type_priv_flag:len <- $w11
	//DEBUG_VALUE: mas_blk_io_type_unistore:offset <- $w8
	//DEBUG_VALUE: mas_blk_io_type_unistore:flag_unis <- $x23
	//DEBUG_VALUE: mas_blk_io_type_rq:rq <- $x19
	//DEBUG_VALUE: mas_blk_io_type_unistore:flag <- $x21
	//DEBUG_VALUE: mas_blk_dump_request:s <- $w20
	.loc	4 0 23 is_stmt 0        // kernel/block/mas_blk_dump.c:0:23
	mov	w12, #86
.Ltmp62:
	.loc	4 119 20 is_stmt 1      // kernel/block/mas_blk_dump.c:119:20
	strb	w12, [x10, w9, uxtw]
	.loc	4 120 9                 // kernel/block/mas_blk_dump.c:120:9
	add	w9, w9, #1              // =1
.Ltmp63:
	//DEBUG_VALUE: mas_blk_io_type_priv_flag:offset <- $w9
.LBB0_35:
	//DEBUG_VALUE: mas_blk_io_type_priv_flag:offset <- $w9
	//DEBUG_VALUE: mas_blk_io_type_priv_flag:type_buf <- $x10
	//DEBUG_VALUE: mas_blk_io_type_priv_flag:len <- $w11
	//DEBUG_VALUE: mas_blk_io_type_unistore:offset <- $w8
	//DEBUG_VALUE: mas_blk_io_type_unistore:flag_unis <- $x23
	//DEBUG_VALUE: mas_blk_io_type_rq:rq <- $x19
	//DEBUG_VALUE: mas_blk_io_type_unistore:flag <- $x21
	//DEBUG_VALUE: mas_blk_dump_request:s <- $w20
	//DEBUG_VALUE: mas_blk_io_type_priv_flag:offset <- $w9
	.loc	4 122 25                // kernel/block/mas_blk_dump.c:122:25
	tbz	w21, #26, .LBB0_38
.Ltmp64:
// %bb.36:
	//DEBUG_VALUE: mas_blk_io_type_priv_flag:offset <- $w9
	//DEBUG_VALUE: mas_blk_io_type_priv_flag:type_buf <- $x10
	//DEBUG_VALUE: mas_blk_io_type_priv_flag:len <- $w11
	//DEBUG_VALUE: mas_blk_io_type_unistore:offset <- $w8
	//DEBUG_VALUE: mas_blk_io_type_unistore:flag_unis <- $x23
	//DEBUG_VALUE: mas_blk_io_type_rq:rq <- $x19
	//DEBUG_VALUE: mas_blk_io_type_unistore:flag <- $x21
	//DEBUG_VALUE: mas_blk_dump_request:s <- $w20
	cmp	w9, w11
	b.ge	.LBB0_38
.Ltmp65:
// %bb.37:
	//DEBUG_VALUE: mas_blk_io_type_priv_flag:offset <- $w9
	//DEBUG_VALUE: mas_blk_io_type_priv_flag:type_buf <- $x10
	//DEBUG_VALUE: mas_blk_io_type_priv_flag:len <- $w11
	//DEBUG_VALUE: mas_blk_io_type_unistore:offset <- $w8
	//DEBUG_VALUE: mas_blk_io_type_unistore:flag_unis <- $x23
	//DEBUG_VALUE: mas_blk_io_type_rq:rq <- $x19
	//DEBUG_VALUE: mas_blk_io_type_unistore:flag <- $x21
	//DEBUG_VALUE: mas_blk_dump_request:s <- $w20
	.loc	4 0 25 is_stmt 0        // kernel/block/mas_blk_dump.c:0:25
	mov	w11, #84
.Ltmp66:
	.loc	4 123 20 is_stmt 1      // kernel/block/mas_blk_dump.c:123:20
	strb	w11, [x10, w9, uxtw]
	.loc	4 124 9                 // kernel/block/mas_blk_dump.c:124:9
	add	w9, w9, #1              // =1
.Ltmp67:
	//DEBUG_VALUE: mas_blk_io_type_priv_flag:offset <- $w9
.LBB0_38:
	//DEBUG_VALUE: mas_blk_io_type_unistore:offset <- $w8
	//DEBUG_VALUE: mas_blk_io_type_unistore:flag_unis <- $x23
	//DEBUG_VALUE: mas_blk_io_type_rq:rq <- $x19
	//DEBUG_VALUE: mas_blk_io_type_unistore:flag <- $x21
	//DEBUG_VALUE: mas_blk_dump_request:s <- $w20
	.loc	4 153 9                 // kernel/block/mas_blk_dump.c:153:9
	add	w8, w9, w8
.Ltmp68:
	//DEBUG_VALUE: mas_blk_io_type_unistore:offset <- $w8
	.loc	4 0 9 is_stmt 0         // kernel/block/mas_blk_dump.c:0:9
	add	x9, sp, #20             // =20
	.loc	4 155 19 is_stmt 1      // kernel/block/mas_blk_dump.c:155:19
	strb	wzr, [x9, w8, uxtw]
.Ltmp69:
	//DEBUG_VALUE: mas_blk_prefix_str:s <- undef
	//DEBUG_VALUE: mas_blk_io_type_unistore:offset <- $w8
	.loc	21 437 24               // kernel/include/linux/blkdev.h:437:24
	ldr	w8, [x19, #84]
.Ltmp70:
	.loc	21 502 9                // kernel/include/linux/blkdev.h:502:9
	adrp	x10, .L.str.20
	adrp	x11, .L.str.19
	add	x10, x10, :lo12:.L.str.20
.Ltmp71:
	.loc	21 437 24               // kernel/include/linux/blkdev.h:437:24
	and	w8, w8, #0xfe
.Ltmp72:
	//DEBUG_VALUE: blk_op_is_scsi:op <- $w8
	.loc	21 502 9                // kernel/include/linux/blkdev.h:502:9
	add	x11, x11, :lo12:.L.str.19
	cmp	w20, #1                 // =1
.Ltmp73:
	.loc	4 198 6                 // kernel/block/mas_blk_dump.c:198:6
	adrp	x12, .L.str.23
	adrp	x9, .L.str.22
.Ltmp74:
	.loc	21 427 30               // kernel/include/linux/blkdev.h:427:30
	orr	w8, w8, #0x1
.Ltmp75:
	.loc	4 198 6                 // kernel/block/mas_blk_dump.c:198:6
	add	x12, x12, :lo12:.L.str.23
	add	x9, x9, :lo12:.L.str.22
.Ltmp76:
	.loc	21 502 9                // kernel/include/linux/blkdev.h:502:9
	csel	x20, x11, x10, eq
.Ltmp77:
	//DEBUG_VALUE: mas_blk_dump_request:prefix <- $x20
	.loc	4 224 16                // kernel/block/mas_blk_dump.c:224:16
	ldr	w7, [x19, #284]
.Ltmp78:
	//DEBUG_VALUE: blk_rq_is_scsi:rq <- $x19
	//DEBUG_VALUE: get_cmp_type:rq <- $x19
	.loc	4 198 6                 // kernel/block/mas_blk_dump.c:198:6
	cmp	w8, #35                 // =35
.Ltmp79:
	.loc	4 223 18                // kernel/block/mas_blk_dump.c:223:18
	ldp	w5, w10, [x19, #104]
.Ltmp80:
	.loc	4 198 6                 // kernel/block/mas_blk_dump.c:198:6
	csel	x9, x9, x12, eq
	cmp	w8, #33                 // =33
	//DEBUG_VALUE: get_cmp_type:rq <- $x19
	adrp	x8, .L.str.21
	add	x8, x8, :lo12:.L.str.21
.Ltmp81:
	.loc	4 221 11                // kernel/block/mas_blk_dump.c:221:11
	adrp	x2, .L.str
.Ltmp82:
	.loc	4 198 6                 // kernel/block/mas_blk_dump.c:198:6
	csel	x6, x8, x9, eq
.Ltmp83:
	//DEBUG_VALUE: mas_blk_dump_request:cmp_type <- $x6
	.loc	4 221 11                // kernel/block/mas_blk_dump.c:221:11
	add	x2, x2, :lo12:.L.str
	add	x0, sp, #32             // =32
	add	x4, sp, #20             // =20
	orr	w1, wzr, #0x200
	mov	x3, x19
	str	w10, [sp]
	orr	w24, wzr, #0x200
	add	x25, sp, #32            // =32
	bl	snprintf
.Ltmp84:
	.loc	4 228 4                 // kernel/block/mas_blk_dump.c:228:4
	ldr	x8, [x19, #272]
	.loc	4 226 24                // kernel/block/mas_blk_dump.c:226:24
	mov	w9, w0
	.loc	4 226 11 is_stmt 0      // kernel/block/mas_blk_dump.c:226:11
	adrp	x2, .L.str.1
	.loc	4 221 11 is_stmt 1      // kernel/block/mas_blk_dump.c:221:11
	mov	w21, w0
.Ltmp85:
	//DEBUG_VALUE: mas_blk_dump_request:count <- $w21
	.loc	4 226 24                // kernel/block/mas_blk_dump.c:226:24
	add	x0, x25, x9
	.loc	4 226 54 is_stmt 0      // kernel/block/mas_blk_dump.c:226:54
	sub	x1, x24, x9
	.loc	4 228 4 is_stmt 1       // kernel/block/mas_blk_dump.c:228:4
	and	x3, x8, #0x1
	.loc	4 228 17 is_stmt 0      // kernel/block/mas_blk_dump.c:228:17
	and	x4, x8, #0x2
	.loc	4 226 11 is_stmt 1      // kernel/block/mas_blk_dump.c:226:11
	add	x2, x2, :lo12:.L.str.1
	bl	snprintf
.Ltmp86:
	.loc	4 230 18                // kernel/block/mas_blk_dump.c:230:18
	ldr	x8, [x19, #240]
.Ltmp87:
	.loc	4 226 8                 // kernel/block/mas_blk_dump.c:226:8
	add	w23, w0, w21
.Ltmp88:
	//DEBUG_VALUE: mas_blk_dump_request:count <- $w23
	.loc	4 0 0 is_stmt 0         // kernel/block/mas_blk_dump.c:0:0
	add	x0, x25, x23
	sub	x1, x24, x23
.Ltmp89:
	.loc	4 230 6 is_stmt 1       // kernel/block/mas_blk_dump.c:230:6
	cbz	x8, .LBB0_40
.Ltmp90:
// %bb.39:
	//DEBUG_VALUE: mas_blk_dump_request:count <- $w23
	//DEBUG_VALUE: mas_blk_dump_request:prefix <- $x20
	.loc	4 243 21                // kernel/block/mas_blk_dump.c:243:21
	ldr	w3, [x19, #248]
	.loc	4 241 12                // kernel/block/mas_blk_dump.c:241:12
	adrp	x2, .L.str.2
	.loc	4 243 31                // kernel/block/mas_blk_dump.c:243:31
	add	x4, x19, #256           // =256
	.loc	4 241 12                // kernel/block/mas_blk_dump.c:241:12
	add	x2, x2, :lo12:.L.str.2
	bl	snprintf
	b	.LBB0_41
.Ltmp91:
.LBB0_40:
	//DEBUG_VALUE: mas_blk_dump_request:count <- $w23
	//DEBUG_VALUE: mas_blk_dump_request:prefix <- $x20
	.loc	4 246 12                // kernel/block/mas_blk_dump.c:246:12
	adrp	x2, .L.str.3
	add	x2, x2, :lo12:.L.str.3
	bl	snprintf
.Ltmp92:
.LBB0_41:
	//DEBUG_VALUE: mas_blk_dump_request:count <- $w23
	//DEBUG_VALUE: mas_blk_dump_request:prefix <- $x20
	.loc	4 250 2                 // kernel/block/mas_blk_dump.c:250:2
	add	x24, x19, #304          // =304
	adrp	x25, req_stage_cfg
	adrp	x19, .L.str.4
	mov	x21, xzr
.Ltmp93:
	.loc	4 0 0 is_stmt 0         // kernel/block/mas_blk_dump.c:0:0
	add	w23, w0, w23
.Ltmp94:
	//DEBUG_VALUE: mas_blk_dump_request:i <- 0
	//DEBUG_VALUE: mas_blk_dump_request:count <- $w23
	add	x25, x25, :lo12:req_stage_cfg
	add	x26, sp, #32            // =32
	orr	w27, wzr, #0x200
	add	x19, x19, :lo12:.L.str.4
.Ltmp95:
.LBB0_42:                               // =>This Inner Loop Header: Depth=1
	//DEBUG_VALUE: mas_blk_dump_request:count <- $w23
	//DEBUG_VALUE: mas_blk_dump_request:prefix <- $x20
	//DEBUG_VALUE: mas_blk_dump_request:count <- $w23
	//DEBUG_VALUE: mas_blk_dump_request:i <- undef
	.loc	4 251 8 is_stmt 1       // kernel/block/mas_blk_dump.c:251:8
	ldr	x4, [x24, x21]
.Ltmp96:
	.loc	4 251 7 is_stmt 0       // kernel/block/mas_blk_dump.c:251:7
	cbz	x4, .LBB0_44
.Ltmp97:
// %bb.43:                              //   in Loop: Header=BB0_42 Depth=1
	//DEBUG_VALUE: mas_blk_dump_request:count <- $w23
	//DEBUG_VALUE: mas_blk_dump_request:prefix <- $x20
	.loc	4 255 34 is_stmt 1      // kernel/block/mas_blk_dump.c:255:34
	ldr	x3, [x25]
	.loc	4 253 25                // kernel/block/mas_blk_dump.c:253:25
	mov	w8, w23
	add	x0, x26, x8
	.loc	4 254 34                // kernel/block/mas_blk_dump.c:254:34
	sub	x1, x27, x8
	.loc	4 253 12                // kernel/block/mas_blk_dump.c:253:12
	mov	x2, x19
	bl	snprintf
	.loc	4 253 9 is_stmt 0       // kernel/block/mas_blk_dump.c:253:9
	add	w23, w0, w23
.Ltmp98:
	//DEBUG_VALUE: mas_blk_dump_request:count <- $w23
.LBB0_44:                               //   in Loop: Header=BB0_42 Depth=1
	//DEBUG_VALUE: mas_blk_dump_request:count <- $w23
	//DEBUG_VALUE: mas_blk_dump_request:prefix <- $x20
	//DEBUG_VALUE: mas_blk_dump_request:count <- $w23
	//DEBUG_VALUE: mas_blk_dump_request:i <- [DW_OP_plus_uconst 1, DW_OP_stack_value] undef
	.loc	4 250 16 is_stmt 1      // kernel/block/mas_blk_dump.c:250:16
	add	x21, x21, #8            // =8
.Ltmp99:
	.loc	4 250 2 is_stmt 0       // kernel/block/mas_blk_dump.c:250:2
	cmp	x21, #120               // =120
.Ltmp100:
	.loc	4 250 16                // kernel/block/mas_blk_dump.c:250:16
	add	x25, x25, #16           // =16
.Ltmp101:
	.loc	4 250 2                 // kernel/block/mas_blk_dump.c:250:2
	b.ne	.LBB0_42
.Ltmp102:
// %bb.45:
	//DEBUG_VALUE: mas_blk_dump_request:count <- $w23
	//DEBUG_VALUE: mas_blk_dump_request:prefix <- $x20
	.loc	4 260 2 is_stmt 1       // kernel/block/mas_blk_dump.c:260:2
	adrp	x0, .L.str.5
	add	x0, x0, :lo12:.L.str.5
	add	x2, sp, #32             // =32
	mov	x1, x20
	.loc	4 259 32                // kernel/block/mas_blk_dump.c:259:32
	strb	wzr, [sp, #543]
	.loc	4 260 2                 // kernel/block/mas_blk_dump.c:260:2
	bl	printk
	adrp	x9, __stack_chk_guard
	ldr	x8, [x22]
	ldr	x9, [x9, :lo12:__stack_chk_guard]
	cmp	x9, x8
	b.ne	.LBB0_47
.Ltmp103:
// %bb.46:
	//DEBUG_VALUE: mas_blk_dump_request:count <- $w23
	//DEBUG_VALUE: mas_blk_dump_request:prefix <- $x20
	.loc	4 261 1                 // kernel/block/mas_blk_dump.c:261:1
	add	sp, sp, #560            // =560
	ldp	x29, x30, [sp, #80]     // 16-byte Folded Reload
	ldp	x20, x19, [sp, #64]     // 16-byte Folded Reload
.Ltmp104:
	ldp	x22, x21, [sp, #48]     // 16-byte Folded Reload
	ldp	x24, x23, [sp, #32]     // 16-byte Folded Reload
.Ltmp105:
	ldp	x26, x25, [sp, #16]     // 16-byte Folded Reload
	ldp	x28, x27, [sp], #96     // 16-byte Folded Reload
	ret
.Ltmp106:
.LBB0_47:
	//DEBUG_VALUE: mas_blk_dump_request:count <- $w23
	//DEBUG_VALUE: mas_blk_dump_request:prefix <- $x20
	.loc	4 0 1 is_stmt 0         // kernel/block/mas_blk_dump.c:0:1
	bl	__stack_chk_fail
.Lfunc_end0:
	.size	mas_blk_dump_request, .Lfunc_end0-mas_blk_dump_request
	.cfi_endproc
	.section	.rodata.mas_blk_dump_request,"a",@progbits
.LJTI0_0:
	.byte	(.LBB0_2-.LBB0_2)>>2
	.byte	(.LBB0_3-.LBB0_2)>>2
	.byte	(.LBB0_4-.LBB0_2)>>2
	.byte	(.LBB0_5-.LBB0_2)>>2
	.byte	(.LBB0_6-.LBB0_2)>>2
	.byte	(.LBB0_7-.LBB0_2)>>2
	.byte	(.LBB0_6-.LBB0_2)>>2
	.byte	(.LBB0_8-.LBB0_2)>>2
                                        // -- End function
	.section	.text.mas_blk_dump_bio,"ax",@progbits
	.hidden	mas_blk_dump_bio        // -- Begin function mas_blk_dump_bio
	.globl	mas_blk_dump_bio
	.p2align	2
	.type	mas_blk_dump_bio,@function
mas_blk_dump_bio:                       // @mas_blk_dump_bio
.Lfunc_begin1:
	.loc	4 267 0 is_stmt 1       // kernel/block/mas_blk_dump.c:267:0
	.cfi_startproc
// %bb.0:
	str	x28, [sp, #-80]!        // 8-byte Folded Spill
	stp	x24, x23, [sp, #16]     // 16-byte Folded Spill
	stp	x22, x21, [sp, #32]     // 16-byte Folded Spill
	stp	x20, x19, [sp, #48]     // 16-byte Folded Spill
	stp	x29, x30, [sp, #64]     // 16-byte Folded Spill
	add	x29, sp, #64            // =64
	sub	sp, sp, #544            // =544
	.cfi_def_cfa w29, 16
	.cfi_offset w30, -8
	.cfi_offset w29, -16
	.cfi_offset w19, -24
	.cfi_offset w20, -32
	.cfi_offset w21, -40
	.cfi_offset w22, -48
	.cfi_offset w23, -56
	.cfi_offset w24, -64
	.cfi_offset w28, -80
	adrp	x8, __stack_chk_guard
	ldr	x8, [x8, :lo12:__stack_chk_guard]
.Ltmp107:
	//DEBUG_VALUE: mas_blk_dump_bio:bio <- $x19
	.loc	4 266 41 prologue_end   // kernel/block/mas_blk_dump.c:266:41
	mov	x23, sp
.Ltmp108:
	//DEBUG_VALUE: mas_blk_dump_bio:s <- $w1
	//DEBUG_VALUE: mas_blk_dump_bio:bio <- $x0
	.loc	4 0 41 is_stmt 0        // kernel/block/mas_blk_dump.c:0:41
	mov	x19, x0
	mov	w20, w1
.Ltmp109:
	//DEBUG_VALUE: mas_blk_dump_bio:s <- $w20
	str	x8, [x23]
.Ltmp110:
	//DEBUG_VALUE: mas_blk_io_type:type_buf <- undef
	//DEBUG_VALUE: mas_blk_io_type_op:type_buf <- undef
	//DEBUG_VALUE: mas_blk_dump_bio:type <- undef
	//DEBUG_VALUE: mas_blk_dump_bio:mas_bio <- [DW_OP_plus_uconst 96, DW_OP_stack_value] $x19
	//DEBUG_VALUE: mas_blk_dump_bio:count <- 0
	.loc	4 39 2 is_stmt 1        // kernel/block/mas_blk_dump.c:39:2
	ldr	w21, [x0, #16]
.Ltmp111:
	//DEBUG_VALUE: mas_blk_io_type_op:len <- 10
	//DEBUG_VALUE: mas_blk_io_type:offset <- 0
	//DEBUG_VALUE: mas_blk_io_type:len <- 10
	//DEBUG_VALUE: mas_blk_io_type:flag <- $x21
	//DEBUG_VALUE: mas_blk_io_type_flag:flag <- $x21
	//DEBUG_VALUE: mas_blk_io_type_priv_flag:flag <- $x21
	and	w8, w21, #0xff
	cmp	w8, #7                  // =7
	b.hi	.LBB1_6
.Ltmp112:
// %bb.1:
	//DEBUG_VALUE: mas_blk_io_type_priv_flag:flag <- $x21
	//DEBUG_VALUE: mas_blk_io_type_flag:flag <- $x21
	//DEBUG_VALUE: mas_blk_io_type:flag <- $x21
	//DEBUG_VALUE: mas_blk_dump_bio:mas_bio <- [DW_OP_plus_uconst 96, DW_OP_stack_value] $x19
	//DEBUG_VALUE: mas_blk_dump_bio:s <- $w20
	//DEBUG_VALUE: mas_blk_dump_bio:bio <- $x0
	.loc	4 0 2 is_stmt 0         // kernel/block/mas_blk_dump.c:0:2
	adrp	x9, .LJTI1_0
	and	x8, x21, #0xff
	add	x9, x9, :lo12:.LJTI1_0
	adr	x10, .LBB1_2
	ldrb	w11, [x9, x8]
	add	x10, x10, x11, lsl #2
	br	x10
.Ltmp113:
.LBB1_2:
	//DEBUG_VALUE: mas_blk_io_type_priv_flag:flag <- $x21
	//DEBUG_VALUE: mas_blk_io_type_flag:flag <- $x21
	//DEBUG_VALUE: mas_blk_io_type:flag <- $x21
	//DEBUG_VALUE: mas_blk_dump_bio:mas_bio <- [DW_OP_plus_uconst 96, DW_OP_stack_value] $x19
	//DEBUG_VALUE: mas_blk_dump_bio:s <- $w20
	//DEBUG_VALUE: mas_blk_dump_bio:bio <- $x0
	mov	w8, #82
	b	.LBB1_9
.Ltmp114:
.LBB1_3:
	//DEBUG_VALUE: mas_blk_io_type_priv_flag:flag <- $x21
	//DEBUG_VALUE: mas_blk_io_type_flag:flag <- $x21
	//DEBUG_VALUE: mas_blk_io_type:flag <- $x21
	//DEBUG_VALUE: mas_blk_dump_bio:mas_bio <- [DW_OP_plus_uconst 96, DW_OP_stack_value] $x19
	//DEBUG_VALUE: mas_blk_dump_bio:s <- $w20
	//DEBUG_VALUE: mas_blk_dump_bio:bio <- $x0
	mov	w8, #87
	b	.LBB1_9
.Ltmp115:
.LBB1_4:
	//DEBUG_VALUE: mas_blk_io_type_priv_flag:flag <- $x21
	//DEBUG_VALUE: mas_blk_io_type_flag:flag <- $x21
	//DEBUG_VALUE: mas_blk_io_type:flag <- $x21
	//DEBUG_VALUE: mas_blk_dump_bio:mas_bio <- [DW_OP_plus_uconst 96, DW_OP_stack_value] $x19
	//DEBUG_VALUE: mas_blk_dump_bio:s <- $w20
	//DEBUG_VALUE: mas_blk_dump_bio:bio <- $x0
	mov	w8, #70
	b	.LBB1_9
.Ltmp116:
.LBB1_5:
	//DEBUG_VALUE: mas_blk_io_type_priv_flag:flag <- $x21
	//DEBUG_VALUE: mas_blk_io_type_flag:flag <- $x21
	//DEBUG_VALUE: mas_blk_io_type:flag <- $x21
	//DEBUG_VALUE: mas_blk_dump_bio:mas_bio <- [DW_OP_plus_uconst 96, DW_OP_stack_value] $x19
	//DEBUG_VALUE: mas_blk_dump_bio:s <- $w20
	//DEBUG_VALUE: mas_blk_dump_bio:bio <- $x0
	mov	w8, #68
	b	.LBB1_9
.Ltmp117:
.LBB1_6:
	//DEBUG_VALUE: mas_blk_io_type:flag <- $x21
	//DEBUG_VALUE: mas_blk_dump_bio:mas_bio <- [DW_OP_plus_uconst 96, DW_OP_stack_value] $x19
	//DEBUG_VALUE: mas_blk_dump_bio:s <- $w20
	//DEBUG_VALUE: mas_blk_dump_bio:bio <- $x0
	.loc	4 59 3 is_stmt 1        // kernel/block/mas_blk_dump.c:59:3
	adrp	x0, .L.str.18
.Ltmp118:
	adrp	x1, .L__func__.mas_blk_io_type_op
	add	x0, x0, :lo12:.L.str.18
	add	x1, x1, :lo12:.L__func__.mas_blk_io_type_op
	bl	printk
.Ltmp119:
	.loc	4 0 0 is_stmt 0         // kernel/block/mas_blk_dump.c:0:0
	mov	w8, wzr
	b	.LBB1_10
.Ltmp120:
.LBB1_7:
	//DEBUG_VALUE: mas_blk_io_type_priv_flag:flag <- $x21
	//DEBUG_VALUE: mas_blk_io_type_flag:flag <- $x21
	//DEBUG_VALUE: mas_blk_io_type:flag <- $x21
	//DEBUG_VALUE: mas_blk_dump_bio:mas_bio <- [DW_OP_plus_uconst 96, DW_OP_stack_value] $x19
	//DEBUG_VALUE: mas_blk_dump_bio:s <- $w20
	//DEBUG_VALUE: mas_blk_dump_bio:bio <- $x0
	mov	w8, #69
	b	.LBB1_9
.Ltmp121:
.LBB1_8:
	//DEBUG_VALUE: mas_blk_io_type_priv_flag:flag <- $x21
	//DEBUG_VALUE: mas_blk_io_type_flag:flag <- $x21
	//DEBUG_VALUE: mas_blk_io_type:flag <- $x21
	//DEBUG_VALUE: mas_blk_dump_bio:mas_bio <- [DW_OP_plus_uconst 96, DW_OP_stack_value] $x19
	//DEBUG_VALUE: mas_blk_dump_bio:s <- $w20
	//DEBUG_VALUE: mas_blk_dump_bio:bio <- $x0
	mov	w8, #84
.Ltmp122:
.LBB1_9:
	//DEBUG_VALUE: mas_blk_io_type_priv_flag:flag <- $x21
	//DEBUG_VALUE: mas_blk_io_type_flag:flag <- $x21
	//DEBUG_VALUE: mas_blk_io_type:flag <- $x21
	//DEBUG_VALUE: mas_blk_dump_bio:mas_bio <- [DW_OP_plus_uconst 96, DW_OP_stack_value] $x19
	//DEBUG_VALUE: mas_blk_dump_bio:s <- $w20
	//DEBUG_VALUE: mas_blk_dump_bio:bio <- $x0
	strb	w8, [sp, #12]
	orr	w8, wzr, #0x1
.Ltmp123:
.LBB1_10:
	//DEBUG_VALUE: mas_blk_io_type:flag <- $x21
	//DEBUG_VALUE: mas_blk_dump_bio:mas_bio <- [DW_OP_plus_uconst 96, DW_OP_stack_value] $x19
	//DEBUG_VALUE: mas_blk_dump_bio:s <- $w20
	//DEBUG_VALUE: mas_blk_io_type:offset <- $w8
	add	x9, sp, #12             // =12
	.loc	4 135 48 is_stmt 1      // kernel/block/mas_blk_dump.c:135:48
	orr	x9, x9, x8
.Ltmp124:
	//DEBUG_VALUE: mas_blk_io_type_flag:offset <- 0
	//DEBUG_VALUE: mas_blk_io_type_flag:type_buf <- $x9
	.loc	4 70 23                 // kernel/block/mas_blk_dump.c:70:23
	tbnz	w21, #18, .LBB1_12
.Ltmp125:
// %bb.11:
	//DEBUG_VALUE: mas_blk_io_type_flag:type_buf <- $x9
	//DEBUG_VALUE: mas_blk_io_type:offset <- $w8
	//DEBUG_VALUE: mas_blk_io_type:flag <- $x21
	//DEBUG_VALUE: mas_blk_dump_bio:mas_bio <- [DW_OP_plus_uconst 96, DW_OP_stack_value] $x19
	//DEBUG_VALUE: mas_blk_dump_bio:s <- $w20
	.loc	4 0 0 is_stmt 0         // kernel/block/mas_blk_dump.c:0:0
	mov	w10, wzr
	mov	w11, #10
.Ltmp126:
	//DEBUG_VALUE: mas_blk_io_type_flag:offset <- $w10
	.loc	4 74 24 is_stmt 1       // kernel/block/mas_blk_dump.c:74:24
	tbnz	w21, #11, .LBB1_13
	b	.LBB1_14
.Ltmp127:
.LBB1_12:
	//DEBUG_VALUE: mas_blk_io_type_flag:type_buf <- $x9
	//DEBUG_VALUE: mas_blk_io_type:offset <- $w8
	//DEBUG_VALUE: mas_blk_io_type:flag <- $x21
	//DEBUG_VALUE: mas_blk_dump_bio:mas_bio <- [DW_OP_plus_uconst 96, DW_OP_stack_value] $x19
	//DEBUG_VALUE: mas_blk_dump_bio:s <- $w20
	.loc	4 0 24 is_stmt 0        // kernel/block/mas_blk_dump.c:0:24
	mov	w10, #65
.Ltmp128:
	.loc	4 71 20 is_stmt 1       // kernel/block/mas_blk_dump.c:71:20
	strb	w10, [x9]
	orr	w10, wzr, #0x1
.Ltmp129:
	//DEBUG_VALUE: mas_blk_io_type_flag:offset <- 1
	.loc	4 0 20 is_stmt 0        // kernel/block/mas_blk_dump.c:0:20
	mov	w11, #10
.Ltmp130:
	//DEBUG_VALUE: mas_blk_io_type_flag:offset <- $w10
	.loc	4 74 24 is_stmt 1       // kernel/block/mas_blk_dump.c:74:24
	tbz	w21, #11, .LBB1_14
.Ltmp131:
.LBB1_13:
	//DEBUG_VALUE: mas_blk_io_type_flag:offset <- $w10
	//DEBUG_VALUE: mas_blk_io_type_flag:type_buf <- $x9
	//DEBUG_VALUE: mas_blk_io_type:offset <- $w8
	//DEBUG_VALUE: mas_blk_io_type:flag <- $x21
	//DEBUG_VALUE: mas_blk_dump_bio:mas_bio <- [DW_OP_plus_uconst 96, DW_OP_stack_value] $x19
	//DEBUG_VALUE: mas_blk_dump_bio:s <- $w20
	.loc	4 0 24 is_stmt 0        // kernel/block/mas_blk_dump.c:0:24
	mov	w12, #83
.Ltmp132:
	.loc	4 75 20 is_stmt 1       // kernel/block/mas_blk_dump.c:75:20
	strb	w12, [x9, w10, uxtw]
	.loc	4 76 9                  // kernel/block/mas_blk_dump.c:76:9
	add	w10, w10, #1            // =1
.Ltmp133:
	//DEBUG_VALUE: mas_blk_io_type_flag:offset <- $w10
.LBB1_14:
	//DEBUG_VALUE: mas_blk_io_type_flag:offset <- $w10
	//DEBUG_VALUE: mas_blk_io_type_flag:type_buf <- $x9
	//DEBUG_VALUE: mas_blk_io_type:offset <- $w8
	//DEBUG_VALUE: mas_blk_io_type:flag <- $x21
	//DEBUG_VALUE: mas_blk_dump_bio:mas_bio <- [DW_OP_plus_uconst 96, DW_OP_stack_value] $x19
	//DEBUG_VALUE: mas_blk_dump_bio:s <- $w20
	.loc	4 0 0 is_stmt 0         // kernel/block/mas_blk_dump.c:0:0
	sub	w11, w11, w8
.Ltmp134:
	//DEBUG_VALUE: mas_blk_io_type_flag:len <- $w11
	//DEBUG_VALUE: mas_blk_io_type_flag:offset <- $w10
	.loc	4 78 24 is_stmt 1       // kernel/block/mas_blk_dump.c:78:24
	tbz	w21, #12, .LBB1_17
.Ltmp135:
// %bb.15:
	//DEBUG_VALUE: mas_blk_io_type_flag:len <- $w11
	//DEBUG_VALUE: mas_blk_io_type_flag:offset <- $w10
	//DEBUG_VALUE: mas_blk_io_type_flag:type_buf <- $x9
	//DEBUG_VALUE: mas_blk_io_type:offset <- $w8
	//DEBUG_VALUE: mas_blk_io_type:flag <- $x21
	//DEBUG_VALUE: mas_blk_dump_bio:mas_bio <- [DW_OP_plus_uconst 96, DW_OP_stack_value] $x19
	//DEBUG_VALUE: mas_blk_dump_bio:s <- $w20
	cmp	w10, w11
	b.ge	.LBB1_17
.Ltmp136:
// %bb.16:
	//DEBUG_VALUE: mas_blk_io_type_flag:len <- $w11
	//DEBUG_VALUE: mas_blk_io_type_flag:offset <- $w10
	//DEBUG_VALUE: mas_blk_io_type_flag:type_buf <- $x9
	//DEBUG_VALUE: mas_blk_io_type:offset <- $w8
	//DEBUG_VALUE: mas_blk_io_type:flag <- $x21
	//DEBUG_VALUE: mas_blk_dump_bio:mas_bio <- [DW_OP_plus_uconst 96, DW_OP_stack_value] $x19
	//DEBUG_VALUE: mas_blk_dump_bio:s <- $w20
	.loc	4 0 24 is_stmt 0        // kernel/block/mas_blk_dump.c:0:24
	mov	w12, #77
.Ltmp137:
	.loc	4 79 20 is_stmt 1       // kernel/block/mas_blk_dump.c:79:20
	strb	w12, [x9, w10, uxtw]
	.loc	4 80 9                  // kernel/block/mas_blk_dump.c:80:9
	add	w10, w10, #1            // =1
.Ltmp138:
	//DEBUG_VALUE: mas_blk_io_type_flag:offset <- $w10
.LBB1_17:
	//DEBUG_VALUE: mas_blk_io_type_flag:len <- $w11
	//DEBUG_VALUE: mas_blk_io_type_flag:offset <- $w10
	//DEBUG_VALUE: mas_blk_io_type_flag:type_buf <- $x9
	//DEBUG_VALUE: mas_blk_io_type:offset <- $w8
	//DEBUG_VALUE: mas_blk_io_type:flag <- $x21
	//DEBUG_VALUE: mas_blk_dump_bio:mas_bio <- [DW_OP_plus_uconst 96, DW_OP_stack_value] $x19
	//DEBUG_VALUE: mas_blk_dump_bio:s <- $w20
	//DEBUG_VALUE: mas_blk_io_type_flag:offset <- $w10
	.loc	4 82 28                 // kernel/block/mas_blk_dump.c:82:28
	tbz	w21, #19, .LBB1_20
.Ltmp139:
// %bb.18:
	//DEBUG_VALUE: mas_blk_io_type_flag:len <- $w11
	//DEBUG_VALUE: mas_blk_io_type_flag:offset <- $w10
	//DEBUG_VALUE: mas_blk_io_type_flag:type_buf <- $x9
	//DEBUG_VALUE: mas_blk_io_type:offset <- $w8
	//DEBUG_VALUE: mas_blk_io_type:flag <- $x21
	//DEBUG_VALUE: mas_blk_dump_bio:mas_bio <- [DW_OP_plus_uconst 96, DW_OP_stack_value] $x19
	//DEBUG_VALUE: mas_blk_dump_bio:s <- $w20
	cmp	w10, w11
	b.ge	.LBB1_20
.Ltmp140:
// %bb.19:
	//DEBUG_VALUE: mas_blk_io_type_flag:len <- $w11
	//DEBUG_VALUE: mas_blk_io_type_flag:offset <- $w10
	//DEBUG_VALUE: mas_blk_io_type_flag:type_buf <- $x9
	//DEBUG_VALUE: mas_blk_io_type:offset <- $w8
	//DEBUG_VALUE: mas_blk_io_type:flag <- $x21
	//DEBUG_VALUE: mas_blk_dump_bio:mas_bio <- [DW_OP_plus_uconst 96, DW_OP_stack_value] $x19
	//DEBUG_VALUE: mas_blk_dump_bio:s <- $w20
	.loc	4 0 28 is_stmt 0        // kernel/block/mas_blk_dump.c:0:28
	mov	w11, #70
.Ltmp141:
	.loc	4 83 20 is_stmt 1       // kernel/block/mas_blk_dump.c:83:20
	strb	w11, [x9, w10, uxtw]
	.loc	4 84 9                  // kernel/block/mas_blk_dump.c:84:9
	add	w10, w10, #1            // =1
.Ltmp142:
	//DEBUG_VALUE: mas_blk_io_type_flag:offset <- $w10
.LBB1_20:
	//DEBUG_VALUE: mas_blk_io_type:offset <- $w8
	//DEBUG_VALUE: mas_blk_io_type:flag <- $x21
	//DEBUG_VALUE: mas_blk_dump_bio:mas_bio <- [DW_OP_plus_uconst 96, DW_OP_stack_value] $x19
	//DEBUG_VALUE: mas_blk_dump_bio:s <- $w20
	.loc	4 135 9                 // kernel/block/mas_blk_dump.c:135:9
	add	w8, w10, w8
.Ltmp143:
	//DEBUG_VALUE: mas_blk_io_type:offset <- $w8
	.loc	4 0 9 is_stmt 0         // kernel/block/mas_blk_dump.c:0:9
	add	x10, sp, #12            // =12
	mov	w11, #10
	mov	w9, wzr
	.loc	4 137 18 is_stmt 1      // kernel/block/mas_blk_dump.c:137:18
	add	x10, x10, x8
	.loc	4 137 32 is_stmt 0      // kernel/block/mas_blk_dump.c:137:32
	sub	w11, w11, w8
.Ltmp144:
	//DEBUG_VALUE: mas_blk_io_type_priv_flag:offset <- 0
	//DEBUG_VALUE: mas_blk_io_type_priv_flag:len <- $w11
	//DEBUG_VALUE: mas_blk_io_type_priv_flag:type_buf <- $x10
	.loc	4 106 22 is_stmt 1      // kernel/block/mas_blk_dump.c:106:22
	tbz	w21, #22, .LBB1_23
.Ltmp145:
// %bb.21:
	//DEBUG_VALUE: mas_blk_io_type_priv_flag:type_buf <- $x10
	//DEBUG_VALUE: mas_blk_io_type_priv_flag:len <- $w11
	//DEBUG_VALUE: mas_blk_io_type:offset <- $w8
	//DEBUG_VALUE: mas_blk_io_type:flag <- $x21
	//DEBUG_VALUE: mas_blk_dump_bio:mas_bio <- [DW_OP_plus_uconst 96, DW_OP_stack_value] $x19
	//DEBUG_VALUE: mas_blk_dump_bio:s <- $w20
	cmp	w11, #1                 // =1
	b.lt	.LBB1_23
.Ltmp146:
// %bb.22:
	//DEBUG_VALUE: mas_blk_io_type_priv_flag:type_buf <- $x10
	//DEBUG_VALUE: mas_blk_io_type_priv_flag:len <- $w11
	//DEBUG_VALUE: mas_blk_io_type:offset <- $w8
	//DEBUG_VALUE: mas_blk_io_type:flag <- $x21
	//DEBUG_VALUE: mas_blk_dump_bio:mas_bio <- [DW_OP_plus_uconst 96, DW_OP_stack_value] $x19
	//DEBUG_VALUE: mas_blk_dump_bio:s <- $w20
	.loc	4 0 22 is_stmt 0        // kernel/block/mas_blk_dump.c:0:22
	mov	w9, #72
.Ltmp147:
	.loc	4 107 20 is_stmt 1      // kernel/block/mas_blk_dump.c:107:20
	strb	w9, [x10]
	orr	w9, wzr, #0x1
.Ltmp148:
	//DEBUG_VALUE: mas_blk_io_type_priv_flag:offset <- 1
.LBB1_23:
	//DEBUG_VALUE: mas_blk_io_type_priv_flag:type_buf <- $x10
	//DEBUG_VALUE: mas_blk_io_type_priv_flag:len <- $w11
	//DEBUG_VALUE: mas_blk_io_type:offset <- $w8
	//DEBUG_VALUE: mas_blk_io_type:flag <- $x21
	//DEBUG_VALUE: mas_blk_dump_bio:mas_bio <- [DW_OP_plus_uconst 96, DW_OP_stack_value] $x19
	//DEBUG_VALUE: mas_blk_dump_bio:s <- $w20
	//DEBUG_VALUE: mas_blk_io_type_priv_flag:offset <- $w9
	.loc	4 110 22                // kernel/block/mas_blk_dump.c:110:22
	tbz	w21, #28, .LBB1_26
.Ltmp149:
// %bb.24:
	//DEBUG_VALUE: mas_blk_io_type_priv_flag:offset <- $w9
	//DEBUG_VALUE: mas_blk_io_type_priv_flag:type_buf <- $x10
	//DEBUG_VALUE: mas_blk_io_type_priv_flag:len <- $w11
	//DEBUG_VALUE: mas_blk_io_type:offset <- $w8
	//DEBUG_VALUE: mas_blk_io_type:flag <- $x21
	//DEBUG_VALUE: mas_blk_dump_bio:mas_bio <- [DW_OP_plus_uconst 96, DW_OP_stack_value] $x19
	//DEBUG_VALUE: mas_blk_dump_bio:s <- $w20
	cmp	w9, w11
	b.ge	.LBB1_26
.Ltmp150:
// %bb.25:
	//DEBUG_VALUE: mas_blk_io_type_priv_flag:offset <- $w9
	//DEBUG_VALUE: mas_blk_io_type_priv_flag:type_buf <- $x10
	//DEBUG_VALUE: mas_blk_io_type_priv_flag:len <- $w11
	//DEBUG_VALUE: mas_blk_io_type:offset <- $w8
	//DEBUG_VALUE: mas_blk_io_type:flag <- $x21
	//DEBUG_VALUE: mas_blk_dump_bio:mas_bio <- [DW_OP_plus_uconst 96, DW_OP_stack_value] $x19
	//DEBUG_VALUE: mas_blk_dump_bio:s <- $w20
	.loc	4 0 22 is_stmt 0        // kernel/block/mas_blk_dump.c:0:22
	mov	w12, #67
.Ltmp151:
	.loc	4 111 20 is_stmt 1      // kernel/block/mas_blk_dump.c:111:20
	strb	w12, [x10, w9, uxtw]
	.loc	4 112 9                 // kernel/block/mas_blk_dump.c:112:9
	add	w9, w9, #1              // =1
.Ltmp152:
	//DEBUG_VALUE: mas_blk_io_type_priv_flag:offset <- $w9
.LBB1_26:
	//DEBUG_VALUE: mas_blk_io_type_priv_flag:offset <- $w9
	//DEBUG_VALUE: mas_blk_io_type_priv_flag:type_buf <- $x10
	//DEBUG_VALUE: mas_blk_io_type_priv_flag:len <- $w11
	//DEBUG_VALUE: mas_blk_io_type:offset <- $w8
	//DEBUG_VALUE: mas_blk_io_type:flag <- $x21
	//DEBUG_VALUE: mas_blk_dump_bio:mas_bio <- [DW_OP_plus_uconst 96, DW_OP_stack_value] $x19
	//DEBUG_VALUE: mas_blk_dump_bio:s <- $w20
	//DEBUG_VALUE: mas_blk_io_type_priv_flag:offset <- $w9
	.loc	4 114 22                // kernel/block/mas_blk_dump.c:114:22
	tbz	w21, #27, .LBB1_29
.Ltmp153:
// %bb.27:
	//DEBUG_VALUE: mas_blk_io_type_priv_flag:offset <- $w9
	//DEBUG_VALUE: mas_blk_io_type_priv_flag:type_buf <- $x10
	//DEBUG_VALUE: mas_blk_io_type_priv_flag:len <- $w11
	//DEBUG_VALUE: mas_blk_io_type:offset <- $w8
	//DEBUG_VALUE: mas_blk_io_type:flag <- $x21
	//DEBUG_VALUE: mas_blk_dump_bio:mas_bio <- [DW_OP_plus_uconst 96, DW_OP_stack_value] $x19
	//DEBUG_VALUE: mas_blk_dump_bio:s <- $w20
	cmp	w9, w11
	b.ge	.LBB1_29
.Ltmp154:
// %bb.28:
	//DEBUG_VALUE: mas_blk_io_type_priv_flag:offset <- $w9
	//DEBUG_VALUE: mas_blk_io_type_priv_flag:type_buf <- $x10
	//DEBUG_VALUE: mas_blk_io_type_priv_flag:len <- $w11
	//DEBUG_VALUE: mas_blk_io_type:offset <- $w8
	//DEBUG_VALUE: mas_blk_io_type:flag <- $x21
	//DEBUG_VALUE: mas_blk_dump_bio:mas_bio <- [DW_OP_plus_uconst 96, DW_OP_stack_value] $x19
	//DEBUG_VALUE: mas_blk_dump_bio:s <- $w20
	.loc	4 0 22 is_stmt 0        // kernel/block/mas_blk_dump.c:0:22
	mov	w12, #90
.Ltmp155:
	.loc	4 115 20 is_stmt 1      // kernel/block/mas_blk_dump.c:115:20
	strb	w12, [x10, w9, uxtw]
	.loc	4 116 9                 // kernel/block/mas_blk_dump.c:116:9
	add	w9, w9, #1              // =1
.Ltmp156:
	//DEBUG_VALUE: mas_blk_io_type_priv_flag:offset <- $w9
.LBB1_29:
	//DEBUG_VALUE: mas_blk_io_type_priv_flag:offset <- $w9
	//DEBUG_VALUE: mas_blk_io_type_priv_flag:type_buf <- $x10
	//DEBUG_VALUE: mas_blk_io_type_priv_flag:len <- $w11
	//DEBUG_VALUE: mas_blk_io_type:offset <- $w8
	//DEBUG_VALUE: mas_blk_io_type:flag <- $x21
	//DEBUG_VALUE: mas_blk_dump_bio:mas_bio <- [DW_OP_plus_uconst 96, DW_OP_stack_value] $x19
	//DEBUG_VALUE: mas_blk_dump_bio:s <- $w20
	//DEBUG_VALUE: mas_blk_io_type_priv_flag:offset <- $w9
	.loc	4 118 23                // kernel/block/mas_blk_dump.c:118:23
	tbz	w21, #23, .LBB1_32
.Ltmp157:
// %bb.30:
	//DEBUG_VALUE: mas_blk_io_type_priv_flag:offset <- $w9
	//DEBUG_VALUE: mas_blk_io_type_priv_flag:type_buf <- $x10
	//DEBUG_VALUE: mas_blk_io_type_priv_flag:len <- $w11
	//DEBUG_VALUE: mas_blk_io_type:offset <- $w8
	//DEBUG_VALUE: mas_blk_io_type:flag <- $x21
	//DEBUG_VALUE: mas_blk_dump_bio:mas_bio <- [DW_OP_plus_uconst 96, DW_OP_stack_value] $x19
	//DEBUG_VALUE: mas_blk_dump_bio:s <- $w20
	cmp	w9, w11
	b.ge	.LBB1_32
.Ltmp158:
// %bb.31:
	//DEBUG_VALUE: mas_blk_io_type_priv_flag:offset <- $w9
	//DEBUG_VALUE: mas_blk_io_type_priv_flag:type_buf <- $x10
	//DEBUG_VALUE: mas_blk_io_type_priv_flag:len <- $w11
	//DEBUG_VALUE: mas_blk_io_type:offset <- $w8
	//DEBUG_VALUE: mas_blk_io_type:flag <- $x21
	//DEBUG_VALUE: mas_blk_dump_bio:mas_bio <- [DW_OP_plus_uconst 96, DW_OP_stack_value] $x19
	//DEBUG_VALUE: mas_blk_dump_bio:s <- $w20
	.loc	4 0 23 is_stmt 0        // kernel/block/mas_blk_dump.c:0:23
	mov	w12, #86
.Ltmp159:
	.loc	4 119 20 is_stmt 1      // kernel/block/mas_blk_dump.c:119:20
	strb	w12, [x10, w9, uxtw]
	.loc	4 120 9                 // kernel/block/mas_blk_dump.c:120:9
	add	w9, w9, #1              // =1
.Ltmp160:
	//DEBUG_VALUE: mas_blk_io_type_priv_flag:offset <- $w9
.LBB1_32:
	//DEBUG_VALUE: mas_blk_io_type_priv_flag:offset <- $w9
	//DEBUG_VALUE: mas_blk_io_type_priv_flag:type_buf <- $x10
	//DEBUG_VALUE: mas_blk_io_type_priv_flag:len <- $w11
	//DEBUG_VALUE: mas_blk_io_type:offset <- $w8
	//DEBUG_VALUE: mas_blk_io_type:flag <- $x21
	//DEBUG_VALUE: mas_blk_dump_bio:mas_bio <- [DW_OP_plus_uconst 96, DW_OP_stack_value] $x19
	//DEBUG_VALUE: mas_blk_dump_bio:s <- $w20
	//DEBUG_VALUE: mas_blk_io_type_priv_flag:offset <- $w9
	.loc	4 122 25                // kernel/block/mas_blk_dump.c:122:25
	tbz	w21, #26, .LBB1_35
.Ltmp161:
// %bb.33:
	//DEBUG_VALUE: mas_blk_io_type_priv_flag:offset <- $w9
	//DEBUG_VALUE: mas_blk_io_type_priv_flag:type_buf <- $x10
	//DEBUG_VALUE: mas_blk_io_type_priv_flag:len <- $w11
	//DEBUG_VALUE: mas_blk_io_type:offset <- $w8
	//DEBUG_VALUE: mas_blk_io_type:flag <- $x21
	//DEBUG_VALUE: mas_blk_dump_bio:mas_bio <- [DW_OP_plus_uconst 96, DW_OP_stack_value] $x19
	//DEBUG_VALUE: mas_blk_dump_bio:s <- $w20
	cmp	w9, w11
	b.ge	.LBB1_35
.Ltmp162:
// %bb.34:
	//DEBUG_VALUE: mas_blk_io_type_priv_flag:offset <- $w9
	//DEBUG_VALUE: mas_blk_io_type_priv_flag:type_buf <- $x10
	//DEBUG_VALUE: mas_blk_io_type_priv_flag:len <- $w11
	//DEBUG_VALUE: mas_blk_io_type:offset <- $w8
	//DEBUG_VALUE: mas_blk_io_type:flag <- $x21
	//DEBUG_VALUE: mas_blk_dump_bio:mas_bio <- [DW_OP_plus_uconst 96, DW_OP_stack_value] $x19
	//DEBUG_VALUE: mas_blk_dump_bio:s <- $w20
	.loc	4 0 25 is_stmt 0        // kernel/block/mas_blk_dump.c:0:25
	mov	w11, #84
.Ltmp163:
	.loc	4 123 20 is_stmt 1      // kernel/block/mas_blk_dump.c:123:20
	strb	w11, [x10, w9, uxtw]
	.loc	4 124 9                 // kernel/block/mas_blk_dump.c:124:9
	add	w9, w9, #1              // =1
.Ltmp164:
	//DEBUG_VALUE: mas_blk_io_type_priv_flag:offset <- $w9
.LBB1_35:
	//DEBUG_VALUE: mas_blk_io_type:offset <- $w8
	//DEBUG_VALUE: mas_blk_io_type:flag <- $x21
	//DEBUG_VALUE: mas_blk_dump_bio:mas_bio <- [DW_OP_plus_uconst 96, DW_OP_stack_value] $x19
	//DEBUG_VALUE: mas_blk_dump_bio:s <- $w20
	.loc	4 136 9                 // kernel/block/mas_blk_dump.c:136:9
	add	w8, w9, w8
.Ltmp165:
	//DEBUG_VALUE: mas_blk_io_type:offset <- $w8
	.loc	4 0 9 is_stmt 0         // kernel/block/mas_blk_dump.c:0:9
	add	x9, sp, #12             // =12
	.loc	4 138 19 is_stmt 1      // kernel/block/mas_blk_dump.c:138:19
	strb	wzr, [x9, w8, uxtw]
.Ltmp166:
	//DEBUG_VALUE: mas_blk_prefix_str:s <- $w20
	.loc	4 279 28                // kernel/block/mas_blk_dump.c:279:28
	ldr	w5, [x19, #48]
.Ltmp167:
	.loc	21 502 9                // kernel/include/linux/blkdev.h:502:9
	adrp	x8, .L.str.20
.Ltmp168:
	adrp	x9, .L.str.19
.Ltmp169:
	.loc	4 277 11                // kernel/block/mas_blk_dump.c:277:11
	adrp	x2, .L.str.6
.Ltmp170:
	.loc	21 502 9                // kernel/include/linux/blkdev.h:502:9
	add	x8, x8, :lo12:.L.str.20
	add	x9, x9, :lo12:.L.str.19
	//DEBUG_VALUE: mas_blk_prefix_str:s <- $w20
	cmp	w20, #1                 // =1
.Ltmp171:
	.loc	4 277 11                // kernel/block/mas_blk_dump.c:277:11
	add	x2, x2, :lo12:.L.str.6
	add	x0, sp, #24             // =24
	add	x4, sp, #12             // =12
	orr	w1, wzr, #0x200
	mov	x3, x19
.Ltmp172:
	.loc	21 502 9                // kernel/include/linux/blkdev.h:502:9
	csel	x21, x9, x8, eq
.Ltmp173:
	//DEBUG_VALUE: mas_blk_dump_bio:prefix <- $x21
	.loc	21 0 9 is_stmt 0        // kernel/include/linux/blkdev.h:0:9
	add	x24, sp, #24            // =24
.Ltmp174:
	.loc	4 277 11 is_stmt 1      // kernel/block/mas_blk_dump.c:277:11
	bl	snprintf
.Ltmp175:
	.loc	4 281 15                // kernel/block/mas_blk_dump.c:281:15
	ldr	x8, [x19, #112]
.Ltmp176:
	.loc	4 277 11                // kernel/block/mas_blk_dump.c:277:11
	mov	w22, w0
.Ltmp177:
	//DEBUG_VALUE: mas_blk_dump_bio:count <- $w22
	.loc	4 281 6                 // kernel/block/mas_blk_dump.c:281:6
	cbz	x8, .LBB1_37
.Ltmp178:
// %bb.36:
	//DEBUG_VALUE: mas_blk_dump_bio:count <- $w22
	//DEBUG_VALUE: mas_blk_dump_bio:prefix <- $x21
	//DEBUG_VALUE: mas_blk_dump_bio:mas_bio <- [DW_OP_plus_uconst 96, DW_OP_stack_value] $x19
	//DEBUG_VALUE: mas_blk_dump_bio:s <- $w20
	//DEBUG_VALUE: mas_blk_dump_bio:mas_bio <- [DW_OP_plus_uconst 96, DW_OP_stack_value] $x19
	.loc	4 284 13                // kernel/block/mas_blk_dump.c:284:13
	ldr	w3, [x19, #120]
	.loc	4 282 25                // kernel/block/mas_blk_dump.c:282:25
	sxtw	x8, w22
	orr	w9, wzr, #0x200
	.loc	4 282 12 is_stmt 0      // kernel/block/mas_blk_dump.c:282:12
	adrp	x2, .L.str.7
	.loc	4 282 25                // kernel/block/mas_blk_dump.c:282:25
	add	x0, x24, x8
	.loc	4 282 55                // kernel/block/mas_blk_dump.c:282:55
	sub	x1, x9, x8
	.loc	4 284 23 is_stmt 1      // kernel/block/mas_blk_dump.c:284:23
	add	x4, x19, #128           // =128
	.loc	4 282 12                // kernel/block/mas_blk_dump.c:282:12
	add	x2, x2, :lo12:.L.str.7
	bl	snprintf
	.loc	4 282 9 is_stmt 0       // kernel/block/mas_blk_dump.c:282:9
	add	w22, w0, w22
.Ltmp179:
	//DEBUG_VALUE: mas_blk_dump_bio:count <- $w22
.LBB1_37:
	//DEBUG_VALUE: mas_blk_dump_bio:count <- $w22
	//DEBUG_VALUE: mas_blk_dump_bio:prefix <- $x21
	//DEBUG_VALUE: mas_blk_dump_bio:mas_bio <- [DW_OP_plus_uconst 96, DW_OP_stack_value] $x19
	//DEBUG_VALUE: mas_blk_dump_bio:s <- $w20
	//DEBUG_VALUE: mas_blk_dump_bio:count <- $w22
	.loc	4 290 24 is_stmt 1      // kernel/block/mas_blk_dump.c:290:24
	sxtw	x8, w22
	orr	w9, wzr, #0x200
	.loc	4 290 11 is_stmt 0      // kernel/block/mas_blk_dump.c:290:11
	adrp	x2, .L.str.3
	.loc	4 290 24                // kernel/block/mas_blk_dump.c:290:24
	add	x0, x24, x8
	.loc	4 290 54                // kernel/block/mas_blk_dump.c:290:54
	sub	x1, x9, x8
	.loc	4 290 11                // kernel/block/mas_blk_dump.c:290:11
	add	x2, x2, :lo12:.L.str.3
	bl	snprintf
.Ltmp180:
	.loc	4 293 9 is_stmt 1       // kernel/block/mas_blk_dump.c:293:9
	ldr	x4, [x19, #152]
.Ltmp181:
	.loc	4 290 8                 // kernel/block/mas_blk_dump.c:290:8
	add	w22, w0, w22
.Ltmp182:
	//DEBUG_VALUE: mas_blk_dump_bio:i <- 0
	//DEBUG_VALUE: mas_blk_dump_bio:count <- $w22
	.loc	4 293 7                 // kernel/block/mas_blk_dump.c:293:7
	cbz	x4, .LBB1_39
.Ltmp183:
// %bb.38:
	//DEBUG_VALUE: mas_blk_dump_bio:count <- $w22
	//DEBUG_VALUE: mas_blk_dump_bio:prefix <- $x21
	//DEBUG_VALUE: mas_blk_dump_bio:mas_bio <- [DW_OP_plus_uconst 96, DW_OP_stack_value] $x19
	//DEBUG_VALUE: mas_blk_dump_bio:s <- $w20
	.loc	4 296 35                // kernel/block/mas_blk_dump.c:296:35
	adrp	x10, bio_stage_cfg
	ldr	x3, [x10, :lo12:bio_stage_cfg]
	.loc	4 295 25                // kernel/block/mas_blk_dump.c:295:25
	sxtw	x8, w22
	add	x9, sp, #24             // =24
	add	x0, x9, x8
	orr	w9, wzr, #0x200
	.loc	4 295 12 is_stmt 0      // kernel/block/mas_blk_dump.c:295:12
	adrp	x2, .L.str.8
	.loc	4 295 55                // kernel/block/mas_blk_dump.c:295:55
	sub	x1, x9, x8
	.loc	4 295 12                // kernel/block/mas_blk_dump.c:295:12
	add	x2, x2, :lo12:.L.str.8
	bl	snprintf
	.loc	4 295 9                 // kernel/block/mas_blk_dump.c:295:9
	add	w22, w0, w22
.Ltmp184:
	//DEBUG_VALUE: mas_blk_dump_bio:count <- $w22
.LBB1_39:
	//DEBUG_VALUE: mas_blk_dump_bio:count <- $w22
	//DEBUG_VALUE: mas_blk_dump_bio:prefix <- $x21
	//DEBUG_VALUE: mas_blk_dump_bio:mas_bio <- [DW_OP_plus_uconst 96, DW_OP_stack_value] $x19
	//DEBUG_VALUE: mas_blk_dump_bio:s <- $w20
	//DEBUG_VALUE: mas_blk_dump_bio:count <- $w22
	//DEBUG_VALUE: mas_blk_dump_bio:i <- 1
	//DEBUG_VALUE: mas_blk_dump_bio:i <- [DW_OP_plus_uconst 1, DW_OP_stack_value] undef
	.loc	4 293 9 is_stmt 1       // kernel/block/mas_blk_dump.c:293:9
	ldr	x4, [x19, #160]
.Ltmp185:
	.loc	4 293 7 is_stmt 0       // kernel/block/mas_blk_dump.c:293:7
	cbz	x4, .LBB1_41
.Ltmp186:
// %bb.40:
	//DEBUG_VALUE: mas_blk_dump_bio:count <- $w22
	//DEBUG_VALUE: mas_blk_dump_bio:prefix <- $x21
	//DEBUG_VALUE: mas_blk_dump_bio:mas_bio <- [DW_OP_plus_uconst 96, DW_OP_stack_value] $x19
	//DEBUG_VALUE: mas_blk_dump_bio:s <- $w20
	.loc	4 296 35 is_stmt 1      // kernel/block/mas_blk_dump.c:296:35
	adrp	x10, bio_stage_cfg+16
	ldr	x3, [x10, :lo12:bio_stage_cfg+16]
	.loc	4 295 25                // kernel/block/mas_blk_dump.c:295:25
	sxtw	x8, w22
	add	x9, sp, #24             // =24
	add	x0, x9, x8
	orr	w9, wzr, #0x200
	.loc	4 295 12 is_stmt 0      // kernel/block/mas_blk_dump.c:295:12
	adrp	x2, .L.str.8
	.loc	4 295 55                // kernel/block/mas_blk_dump.c:295:55
	sub	x1, x9, x8
	.loc	4 295 12                // kernel/block/mas_blk_dump.c:295:12
	add	x2, x2, :lo12:.L.str.8
	bl	snprintf
	.loc	4 295 9                 // kernel/block/mas_blk_dump.c:295:9
	add	w22, w0, w22
.Ltmp187:
	//DEBUG_VALUE: mas_blk_dump_bio:count <- $w22
.LBB1_41:
	//DEBUG_VALUE: mas_blk_dump_bio:count <- $w22
	//DEBUG_VALUE: mas_blk_dump_bio:prefix <- $x21
	//DEBUG_VALUE: mas_blk_dump_bio:mas_bio <- [DW_OP_plus_uconst 96, DW_OP_stack_value] $x19
	//DEBUG_VALUE: mas_blk_dump_bio:s <- $w20
	//DEBUG_VALUE: mas_blk_dump_bio:count <- $w22
	//DEBUG_VALUE: mas_blk_dump_bio:i <- 2
	//DEBUG_VALUE: mas_blk_dump_bio:i <- [DW_OP_plus_uconst 1, DW_OP_stack_value] undef
	.loc	4 293 9 is_stmt 1       // kernel/block/mas_blk_dump.c:293:9
	ldr	x4, [x19, #168]
	cbz	x4, .LBB1_43
.Ltmp188:
// %bb.42:
	//DEBUG_VALUE: mas_blk_dump_bio:count <- $w22
	//DEBUG_VALUE: mas_blk_dump_bio:prefix <- $x21
	//DEBUG_VALUE: mas_blk_dump_bio:mas_bio <- [DW_OP_plus_uconst 96, DW_OP_stack_value] $x19
	//DEBUG_VALUE: mas_blk_dump_bio:s <- $w20
	.loc	4 296 35                // kernel/block/mas_blk_dump.c:296:35
	adrp	x10, bio_stage_cfg+32
	ldr	x3, [x10, :lo12:bio_stage_cfg+32]
	.loc	4 295 25                // kernel/block/mas_blk_dump.c:295:25
	sxtw	x8, w22
	add	x9, sp, #24             // =24
	add	x0, x9, x8
	orr	w9, wzr, #0x200
	.loc	4 295 12 is_stmt 0      // kernel/block/mas_blk_dump.c:295:12
	adrp	x2, .L.str.8
	.loc	4 295 55                // kernel/block/mas_blk_dump.c:295:55
	sub	x1, x9, x8
	.loc	4 295 12                // kernel/block/mas_blk_dump.c:295:12
	add	x2, x2, :lo12:.L.str.8
	bl	snprintf
	.loc	4 295 9                 // kernel/block/mas_blk_dump.c:295:9
	add	w22, w0, w22
.Ltmp189:
	//DEBUG_VALUE: mas_blk_dump_bio:count <- $w22
.LBB1_43:
	//DEBUG_VALUE: mas_blk_dump_bio:count <- $w22
	//DEBUG_VALUE: mas_blk_dump_bio:prefix <- $x21
	//DEBUG_VALUE: mas_blk_dump_bio:mas_bio <- [DW_OP_plus_uconst 96, DW_OP_stack_value] $x19
	//DEBUG_VALUE: mas_blk_dump_bio:s <- $w20
	//DEBUG_VALUE: mas_blk_dump_bio:count <- $w22
	//DEBUG_VALUE: mas_blk_dump_bio:i <- 3
	//DEBUG_VALUE: mas_blk_dump_bio:i <- [DW_OP_plus_uconst 1, DW_OP_stack_value] undef
	.loc	4 293 9 is_stmt 1       // kernel/block/mas_blk_dump.c:293:9
	ldr	x4, [x19, #176]
	cbz	x4, .LBB1_45
.Ltmp190:
// %bb.44:
	//DEBUG_VALUE: mas_blk_dump_bio:count <- $w22
	//DEBUG_VALUE: mas_blk_dump_bio:prefix <- $x21
	//DEBUG_VALUE: mas_blk_dump_bio:mas_bio <- [DW_OP_plus_uconst 96, DW_OP_stack_value] $x19
	//DEBUG_VALUE: mas_blk_dump_bio:s <- $w20
	.loc	4 296 35                // kernel/block/mas_blk_dump.c:296:35
	adrp	x10, bio_stage_cfg+48
	ldr	x3, [x10, :lo12:bio_stage_cfg+48]
	.loc	4 295 25                // kernel/block/mas_blk_dump.c:295:25
	sxtw	x8, w22
	add	x9, sp, #24             // =24
	add	x0, x9, x8
	orr	w9, wzr, #0x200
	.loc	4 295 12 is_stmt 0      // kernel/block/mas_blk_dump.c:295:12
	adrp	x2, .L.str.8
	.loc	4 295 55                // kernel/block/mas_blk_dump.c:295:55
	sub	x1, x9, x8
	.loc	4 295 12                // kernel/block/mas_blk_dump.c:295:12
	add	x2, x2, :lo12:.L.str.8
	bl	snprintf
	.loc	4 295 9                 // kernel/block/mas_blk_dump.c:295:9
	add	w22, w0, w22
.Ltmp191:
	//DEBUG_VALUE: mas_blk_dump_bio:count <- $w22
.LBB1_45:
	//DEBUG_VALUE: mas_blk_dump_bio:count <- $w22
	//DEBUG_VALUE: mas_blk_dump_bio:prefix <- $x21
	//DEBUG_VALUE: mas_blk_dump_bio:mas_bio <- [DW_OP_plus_uconst 96, DW_OP_stack_value] $x19
	//DEBUG_VALUE: mas_blk_dump_bio:s <- $w20
	//DEBUG_VALUE: mas_blk_dump_bio:count <- $w22
	//DEBUG_VALUE: mas_blk_dump_bio:i <- [DW_OP_plus_uconst 1, DW_OP_stack_value] undef
	.loc	4 0 9                   // kernel/block/mas_blk_dump.c:0:9
	add	x8, sp, #24             // =24
	.loc	4 299 13 is_stmt 1      // kernel/block/mas_blk_dump.c:299:13
	strb	wzr, [x8, w22, sxtw]
	.loc	4 300 2                 // kernel/block/mas_blk_dump.c:300:2
	bl	ktime_get
	mov	x3, x0
	adrp	x0, .L.str.9
	add	x0, x0, :lo12:.L.str.9
	add	x2, sp, #24             // =24
	mov	x1, x21
	bl	printk
.Ltmp192:
	.loc	4 302 19                // kernel/block/mas_blk_dump.c:302:19
	ldr	x0, [x19, #104]
.Ltmp193:
	.loc	4 302 6 is_stmt 0       // kernel/block/mas_blk_dump.c:302:6
	cbz	x0, .LBB1_47
.Ltmp194:
// %bb.46:
	//DEBUG_VALUE: mas_blk_dump_bio:count <- $w22
	//DEBUG_VALUE: mas_blk_dump_bio:prefix <- $x21
	//DEBUG_VALUE: mas_blk_dump_bio:mas_bio <- [DW_OP_plus_uconst 96, DW_OP_stack_value] $x19
	//DEBUG_VALUE: mas_blk_dump_bio:s <- $w20
	.loc	4 303 3 is_stmt 1       // kernel/block/mas_blk_dump.c:303:3
	mov	w1, w20
	bl	mas_blk_dump_request
.Ltmp195:
.LBB1_47:
	//DEBUG_VALUE: mas_blk_dump_bio:count <- $w22
	//DEBUG_VALUE: mas_blk_dump_bio:prefix <- $x21
	//DEBUG_VALUE: mas_blk_dump_bio:mas_bio <- [DW_OP_plus_uconst 96, DW_OP_stack_value] $x19
	//DEBUG_VALUE: mas_blk_dump_bio:s <- $w20
	.loc	4 0 3 is_stmt 0         // kernel/block/mas_blk_dump.c:0:3
	adrp	x9, __stack_chk_guard
	ldr	x8, [x23]
	ldr	x9, [x9, :lo12:__stack_chk_guard]
	cmp	x9, x8
	b.ne	.LBB1_49
.Ltmp196:
// %bb.48:
	//DEBUG_VALUE: mas_blk_dump_bio:count <- $w22
	//DEBUG_VALUE: mas_blk_dump_bio:prefix <- $x21
	//DEBUG_VALUE: mas_blk_dump_bio:mas_bio <- [DW_OP_plus_uconst 96, DW_OP_stack_value] $x19
	//DEBUG_VALUE: mas_blk_dump_bio:s <- $w20
	.loc	4 304 1 is_stmt 1       // kernel/block/mas_blk_dump.c:304:1
	add	sp, sp, #544            // =544
	ldp	x29, x30, [sp, #64]     // 16-byte Folded Reload
	ldp	x20, x19, [sp, #48]     // 16-byte Folded Reload
.Ltmp197:
	ldp	x22, x21, [sp, #32]     // 16-byte Folded Reload
.Ltmp198:
	ldp	x24, x23, [sp, #16]     // 16-byte Folded Reload
	ldr	x28, [sp], #80          // 8-byte Folded Reload
	ret
.Ltmp199:
.LBB1_49:
	//DEBUG_VALUE: mas_blk_dump_bio:count <- $w22
	//DEBUG_VALUE: mas_blk_dump_bio:prefix <- $x21
	//DEBUG_VALUE: mas_blk_dump_bio:mas_bio <- [DW_OP_plus_uconst 96, DW_OP_stack_value] $x19
	//DEBUG_VALUE: mas_blk_dump_bio:s <- $w20
	.loc	4 0 1 is_stmt 0         // kernel/block/mas_blk_dump.c:0:1
	bl	__stack_chk_fail
.Lfunc_end1:
	.size	mas_blk_dump_bio, .Lfunc_end1-mas_blk_dump_bio
	.cfi_endproc
	.section	.rodata.mas_blk_dump_bio,"a",@progbits
.LJTI1_0:
	.byte	(.LBB1_2-.LBB1_2)>>2
	.byte	(.LBB1_3-.LBB1_2)>>2
	.byte	(.LBB1_4-.LBB1_2)>>2
	.byte	(.LBB1_5-.LBB1_2)>>2
	.byte	(.LBB1_6-.LBB1_2)>>2
	.byte	(.LBB1_7-.LBB1_2)>>2
	.byte	(.LBB1_6-.LBB1_2)>>2
	.byte	(.LBB1_8-.LBB1_2)>>2
                                        // -- End function
	.section	.text.mas_blk_dump_queue_status2,"ax",@progbits
	.hidden	mas_blk_dump_queue_status2 // -- Begin function mas_blk_dump_queue_status2
	.globl	mas_blk_dump_queue_status2
	.p2align	2
	.type	mas_blk_dump_queue_status2,@function
mas_blk_dump_queue_status2:             // @mas_blk_dump_queue_status2
.Lfunc_begin2:
	.loc	4 356 0 is_stmt 1       // kernel/block/mas_blk_dump.c:356:0
	.cfi_startproc
// %bb.0:
	//DEBUG_VALUE: mas_blk_dump_queue_status2:q <- $x0
	//DEBUG_VALUE: mas_blk_dump_queue_status2:buf <- $x1
	//DEBUG_VALUE: mas_blk_dump_queue_status2:len <- $w2
	str	x28, [sp, #-96]!        // 8-byte Folded Spill
	stp	x26, x25, [sp, #16]     // 16-byte Folded Spill
	stp	x24, x23, [sp, #32]     // 16-byte Folded Spill
	stp	x22, x21, [sp, #48]     // 16-byte Folded Spill
	stp	x20, x19, [sp, #64]     // 16-byte Folded Spill
	stp	x29, x30, [sp, #80]     // 16-byte Folded Spill
	add	x29, sp, #80            // =80
	sub	sp, sp, #528            // =528
	.cfi_def_cfa w29, 16
	.cfi_offset w30, -8
	.cfi_offset w29, -16
	.cfi_offset w19, -24
	.cfi_offset w20, -32
	.cfi_offset w21, -40
	.cfi_offset w22, -48
	.cfi_offset w23, -56
	.cfi_offset w24, -64
	.cfi_offset w25, -72
	.cfi_offset w26, -80
	.cfi_offset w28, -96
.Ltmp200:
	.loc	4 323 2 prologue_end    // kernel/block/mas_blk_dump.c:323:2
	adrp	x9, .L.str.24
	adrp	x8, __stack_chk_guard
	add	x9, x9, :lo12:.L.str.24
	ldr	x8, [x8, :lo12:__stack_chk_guard]
.Ltmp201:
	//DEBUG_VALUE: mas_blk_dump_queue_status2:len <- $w22
	//DEBUG_VALUE: mas_blk_dump_queue_status2:buf <- $x19
	//DEBUG_VALUE: mas_blk_dump_queue_status2:q <- $x21
	ldur	x10, [x9, #7]
	ldr	x9, [x9]
	mov	w22, w2
.Ltmp202:
	.loc	4 0 2 is_stmt 0         // kernel/block/mas_blk_dump.c:0:2
	mov	x19, x1
.Ltmp203:
	mov	x21, x0
.Ltmp204:
	stur	x8, [x29, #-88]
.Ltmp205:
	//DEBUG_VALUE: __mas_blk_dump_printf:str <- undef
	//DEBUG_VALUE: __mas_blk_dump_printf:str <- undef
	//DEBUG_VALUE: __mas_blk_dump_printf:str <- undef
	//DEBUG_VALUE: __mas_blk_dump_printf:str <- undef
	//DEBUG_VALUE: mas_blk_q_dump_header:len <- undef
	//DEBUG_VALUE: mas_blk_q_dump_header:buf <- $x19
	//DEBUG_VALUE: mas_blk_q_dump_header:q <- undef
	//DEBUG_VALUE: mas_blk_dump_queue_status2:offset <- 0
	.loc	4 323 2                 // kernel/block/mas_blk_dump.c:323:2
	stur	x10, [sp, #15]
	str	x9, [sp, #8]
.Ltmp206:
	//DEBUG_VALUE: __mas_blk_dump_printf:offset <- 0
	//DEBUG_VALUE: __mas_blk_dump_printf:len <- undef
	//DEBUG_VALUE: __mas_blk_dump_printf:buf <- $x19
	.loc	4 310 10 is_stmt 1      // kernel/block/mas_blk_dump.c:310:10
	cbz	x1, .LBB2_3
.Ltmp207:
// %bb.1:
	//DEBUG_VALUE: __mas_blk_dump_printf:buf <- $x19
	//DEBUG_VALUE: mas_blk_q_dump_header:buf <- $x19
	cmp	w22, #1                 // =1
	b.lt	.LBB2_3
.Ltmp208:
// %bb.2:
	//DEBUG_VALUE: __mas_blk_dump_printf:buf <- $x19
	//DEBUG_VALUE: mas_blk_q_dump_header:buf <- $x19
	.loc	4 311 13                // kernel/block/mas_blk_dump.c:311:13
	adrp	x2, .L.str.25
	.loc	4 311 27 is_stmt 0      // kernel/block/mas_blk_dump.c:311:27
	sxtw	x1, w22
	.loc	4 311 13                // kernel/block/mas_blk_dump.c:311:13
	add	x2, x2, :lo12:.L.str.25
	add	x3, sp, #8              // =8
	mov	x0, x19
	bl	snprintf
	mov	w20, w0
.Ltmp209:
	//DEBUG_VALUE: __mas_blk_dump_printf:offset <- $w20
	.loc	4 0 13                  // kernel/block/mas_blk_dump.c:0:13
	b	.LBB2_4
.Ltmp210:
.LBB2_3:
	//DEBUG_VALUE: __mas_blk_dump_printf:buf <- $x19
	//DEBUG_VALUE: mas_blk_q_dump_header:buf <- $x19
	.loc	4 313 3 is_stmt 1       // kernel/block/mas_blk_dump.c:313:3
	adrp	x0, .L.str.26
	add	x0, x0, :lo12:.L.str.26
	add	x1, sp, #8              // =8
	bl	printk
.Ltmp211:
	.loc	4 0 0 is_stmt 0         // kernel/block/mas_blk_dump.c:0:0
	mov	w20, wzr
.Ltmp212:
.LBB2_4:
	//DEBUG_VALUE: __mas_blk_dump_printf:buf <- $x19
	//DEBUG_VALUE: mas_blk_q_dump_header:buf <- $x19
	//DEBUG_VALUE: mas_blk_dump_queue_status2:offset <- $w20
	//DEBUG_VALUE: __mas_blk_dump_printf:offset <- $w20
	.loc	4 333 19 is_stmt 1      // kernel/block/mas_blk_dump.c:333:19
	ldr	w8, [x21, #1700]
.Ltmp213:
	.loc	4 360 61                // kernel/block/mas_blk_dump.c:360:61
	sub	w24, w22, w20
.Ltmp214:
	//DEBUG_VALUE: mas_blk_q_dump_opt_features:offset <- 0
	//DEBUG_VALUE: mas_blk_q_dump_opt_features:q <- $x21
	//DEBUG_VALUE: __mas_blk_dump_printf:len <- $w24
	.loc	4 333 6                 // kernel/block/mas_blk_dump.c:333:6
	cbz	w8, .LBB2_6
.Ltmp215:
// %bb.5:
	//DEBUG_VALUE: mas_blk_q_dump_opt_features:q <- $x21
	//DEBUG_VALUE: mas_blk_dump_queue_status2:offset <- $w20
	.loc	4 336 17                // kernel/block/mas_blk_dump.c:336:17
	ldr	w3, [x21, #1704]
	.loc	4 334 3                 // kernel/block/mas_blk_dump.c:334:3
	adrp	x2, .L.str.27
	add	x2, x2, :lo12:.L.str.27
	add	x0, sp, #8              // =8
	orr	w1, wzr, #0x200
	bl	snprintf
	b	.LBB2_7
.Ltmp216:
.LBB2_6:
	//DEBUG_VALUE: mas_blk_q_dump_opt_features:q <- $x21
	//DEBUG_VALUE: mas_blk_dump_queue_status2:offset <- $w20
	.loc	4 338 3                 // kernel/block/mas_blk_dump.c:338:3
	adrp	x8, .L.str.28
	add	x8, x8, :lo12:.L.str.28
	ldur	x9, [x8, #22]
	ldp	x11, x10, [x8, #8]
	ldr	x8, [x8]
	stur	x9, [sp, #30]
	stp	x11, x10, [sp, #16]
	str	x8, [sp, #8]
.Ltmp217:
.LBB2_7:
	//DEBUG_VALUE: mas_blk_q_dump_opt_features:q <- $x21
	//DEBUG_VALUE: mas_blk_dump_queue_status2:offset <- $w20
	.loc	4 310 10                // kernel/block/mas_blk_dump.c:310:10
	cmp	w24, #1                 // =1
.Ltmp218:
	.loc	4 0 0 is_stmt 0         // kernel/block/mas_blk_dump.c:0:0
	add	x22, x19, w20, sxtw
.Ltmp219:
	//DEBUG_VALUE: __mas_blk_dump_printf:offset <- 0
	//DEBUG_VALUE: mas_blk_q_dump_opt_features:buf <- $x22
	//DEBUG_VALUE: __mas_blk_dump_printf:buf <- $x22
	.loc	4 310 10                // kernel/block/mas_blk_dump.c:310:10
	b.lt	.LBB2_10
.Ltmp220:
// %bb.8:
	//DEBUG_VALUE: __mas_blk_dump_printf:buf <- $x22
	//DEBUG_VALUE: mas_blk_q_dump_opt_features:buf <- $x22
	//DEBUG_VALUE: mas_blk_q_dump_opt_features:q <- $x21
	//DEBUG_VALUE: mas_blk_dump_queue_status2:offset <- $w20
	cbz	x22, .LBB2_10
.Ltmp221:
// %bb.9:
	//DEBUG_VALUE: __mas_blk_dump_printf:buf <- $x22
	//DEBUG_VALUE: mas_blk_q_dump_opt_features:buf <- $x22
	//DEBUG_VALUE: mas_blk_q_dump_opt_features:q <- $x21
	//DEBUG_VALUE: mas_blk_dump_queue_status2:offset <- $w20
	.loc	4 311 13 is_stmt 1      // kernel/block/mas_blk_dump.c:311:13
	adrp	x2, .L.str.25
	.loc	4 311 27 is_stmt 0      // kernel/block/mas_blk_dump.c:311:27
	sxtw	x1, w24
	.loc	4 311 13                // kernel/block/mas_blk_dump.c:311:13
	add	x2, x2, :lo12:.L.str.25
	add	x3, sp, #8              // =8
	mov	x0, x22
	bl	snprintf
	mov	w23, w0
.Ltmp222:
	//DEBUG_VALUE: __mas_blk_dump_printf:offset <- $w23
	.loc	4 0 13                  // kernel/block/mas_blk_dump.c:0:13
	b	.LBB2_11
.Ltmp223:
.LBB2_10:
	//DEBUG_VALUE: __mas_blk_dump_printf:buf <- $x22
	//DEBUG_VALUE: mas_blk_q_dump_opt_features:buf <- $x22
	//DEBUG_VALUE: mas_blk_q_dump_opt_features:q <- $x21
	//DEBUG_VALUE: mas_blk_dump_queue_status2:offset <- $w20
	.loc	4 313 3 is_stmt 1       // kernel/block/mas_blk_dump.c:313:3
	adrp	x0, .L.str.26
	add	x0, x0, :lo12:.L.str.26
	add	x1, sp, #8              // =8
	bl	printk
.Ltmp224:
	.loc	4 0 0 is_stmt 0         // kernel/block/mas_blk_dump.c:0:0
	mov	w23, wzr
.Ltmp225:
.LBB2_11:
	//DEBUG_VALUE: __mas_blk_dump_printf:buf <- $x22
	//DEBUG_VALUE: mas_blk_q_dump_opt_features:buf <- $x22
	//DEBUG_VALUE: mas_blk_q_dump_opt_features:q <- $x21
	//DEBUG_VALUE: mas_blk_dump_queue_status2:offset <- $w20
	//DEBUG_VALUE: mas_blk_q_dump_opt_features:offset <- $w23
	//DEBUG_VALUE: __mas_blk_dump_printf:offset <- $w23
	.loc	4 343 16 is_stmt 1      // kernel/block/mas_blk_dump.c:343:16
	ldr	w8, [x21, #1696]
	.loc	4 343 3 is_stmt 0       // kernel/block/mas_blk_dump.c:343:3
	adrp	x25, .L.str.30
	adrp	x26, .L.str.31
	add	x25, x25, :lo12:.L.str.30
	add	x26, x26, :lo12:.L.str.31
	cmp	w8, #0                  // =0
	.loc	4 342 2 is_stmt 1       // kernel/block/mas_blk_dump.c:342:2
	adrp	x2, .L.str.29
	.loc	4 343 3                 // kernel/block/mas_blk_dump.c:343:3
	csel	x3, x26, x25, eq
	.loc	4 342 2                 // kernel/block/mas_blk_dump.c:342:2
	add	x2, x2, :lo12:.L.str.29
	add	x0, sp, #8              // =8
	orr	w1, wzr, #0x200
	bl	snprintf
	.loc	4 344 48                // kernel/block/mas_blk_dump.c:344:48
	sub	w8, w24, w23
.Ltmp226:
	//DEBUG_VALUE: __mas_blk_dump_printf:offset <- 0
	//DEBUG_VALUE: __mas_blk_dump_printf:len <- $w8
	.loc	4 310 10                // kernel/block/mas_blk_dump.c:310:10
	cmp	w8, #1                  // =1
	b.lt	.LBB2_14
.Ltmp227:
// %bb.12:
	//DEBUG_VALUE: __mas_blk_dump_printf:len <- $w8
	//DEBUG_VALUE: mas_blk_q_dump_opt_features:offset <- $w23
	//DEBUG_VALUE: mas_blk_q_dump_opt_features:buf <- $x22
	//DEBUG_VALUE: mas_blk_q_dump_opt_features:q <- $x21
	//DEBUG_VALUE: mas_blk_dump_queue_status2:offset <- $w20
	.loc	4 0 0 is_stmt 0         // kernel/block/mas_blk_dump.c:0:0
	add	x0, x22, w23, sxtw
.Ltmp228:
	//DEBUG_VALUE: __mas_blk_dump_printf:buf <- $x0
	.loc	4 310 10                // kernel/block/mas_blk_dump.c:310:10
	cbz	x0, .LBB2_14
.Ltmp229:
// %bb.13:
	//DEBUG_VALUE: __mas_blk_dump_printf:buf <- $x0
	//DEBUG_VALUE: __mas_blk_dump_printf:len <- $w8
	//DEBUG_VALUE: mas_blk_q_dump_opt_features:offset <- $w23
	//DEBUG_VALUE: mas_blk_q_dump_opt_features:buf <- $x22
	//DEBUG_VALUE: mas_blk_q_dump_opt_features:q <- $x21
	//DEBUG_VALUE: mas_blk_dump_queue_status2:offset <- $w20
	.loc	4 311 13 is_stmt 1      // kernel/block/mas_blk_dump.c:311:13
	adrp	x2, .L.str.25
	.loc	4 311 27 is_stmt 0      // kernel/block/mas_blk_dump.c:311:27
	sxtw	x1, w8
	.loc	4 311 13                // kernel/block/mas_blk_dump.c:311:13
	add	x2, x2, :lo12:.L.str.25
	add	x3, sp, #8              // =8
	bl	snprintf
.Ltmp230:
	//DEBUG_VALUE: __mas_blk_dump_printf:offset <- $w0
	.loc	4 0 13                  // kernel/block/mas_blk_dump.c:0:13
	b	.LBB2_15
.Ltmp231:
.LBB2_14:
	//DEBUG_VALUE: __mas_blk_dump_printf:len <- $w8
	//DEBUG_VALUE: mas_blk_q_dump_opt_features:offset <- $w23
	//DEBUG_VALUE: mas_blk_q_dump_opt_features:buf <- $x22
	//DEBUG_VALUE: mas_blk_q_dump_opt_features:q <- $x21
	//DEBUG_VALUE: mas_blk_dump_queue_status2:offset <- $w20
	.loc	4 313 3 is_stmt 1       // kernel/block/mas_blk_dump.c:313:3
	adrp	x0, .L.str.26
	add	x0, x0, :lo12:.L.str.26
	add	x1, sp, #8              // =8
	bl	printk
.Ltmp232:
	.loc	4 0 0 is_stmt 0         // kernel/block/mas_blk_dump.c:0:0
	mov	w0, wzr
.Ltmp233:
.LBB2_15:
	//DEBUG_VALUE: mas_blk_q_dump_opt_features:offset <- $w23
	//DEBUG_VALUE: mas_blk_q_dump_opt_features:buf <- $x22
	//DEBUG_VALUE: mas_blk_q_dump_opt_features:q <- $x21
	//DEBUG_VALUE: mas_blk_dump_queue_status2:offset <- $w20
	//DEBUG_VALUE: __mas_blk_dump_printf:offset <- $w0
	.loc	4 348 6 is_stmt 1       // kernel/block/mas_blk_dump.c:348:6
	ldr	w8, [x21, #1536]
	.loc	4 347 2                 // kernel/block/mas_blk_dump.c:347:2
	adrp	x2, .L.str.32
	.loc	4 344 9                 // kernel/block/mas_blk_dump.c:344:9
	add	w21, w0, w23
.Ltmp234:
	//DEBUG_VALUE: mas_blk_q_dump_opt_features:offset <- $w21
	.loc	4 347 2                 // kernel/block/mas_blk_dump.c:347:2
	add	x2, x2, :lo12:.L.str.32
	.loc	4 348 3                 // kernel/block/mas_blk_dump.c:348:3
	cmp	w8, #0                  // =0
	csel	x3, x26, x25, eq
	.loc	4 347 2                 // kernel/block/mas_blk_dump.c:347:2
	add	x0, sp, #8              // =8
.Ltmp235:
	orr	w1, wzr, #0x200
	bl	snprintf
	.loc	4 350 48                // kernel/block/mas_blk_dump.c:350:48
	sub	w8, w24, w21
.Ltmp236:
	//DEBUG_VALUE: __mas_blk_dump_printf:offset <- 0
	//DEBUG_VALUE: __mas_blk_dump_printf:len <- $w8
	.loc	4 310 10                // kernel/block/mas_blk_dump.c:310:10
	cmp	w8, #1                  // =1
	b.lt	.LBB2_18
.Ltmp237:
// %bb.16:
	//DEBUG_VALUE: __mas_blk_dump_printf:len <- $w8
	//DEBUG_VALUE: mas_blk_q_dump_opt_features:offset <- $w21
	//DEBUG_VALUE: mas_blk_q_dump_opt_features:buf <- $x22
	//DEBUG_VALUE: mas_blk_dump_queue_status2:offset <- $w20
	.loc	4 0 0 is_stmt 0         // kernel/block/mas_blk_dump.c:0:0
	add	x0, x22, w21, sxtw
.Ltmp238:
	//DEBUG_VALUE: __mas_blk_dump_printf:buf <- $x0
	.loc	4 310 10                // kernel/block/mas_blk_dump.c:310:10
	cbz	x0, .LBB2_18
.Ltmp239:
// %bb.17:
	//DEBUG_VALUE: __mas_blk_dump_printf:buf <- $x0
	//DEBUG_VALUE: __mas_blk_dump_printf:len <- $w8
	//DEBUG_VALUE: mas_blk_q_dump_opt_features:offset <- $w21
	//DEBUG_VALUE: mas_blk_q_dump_opt_features:buf <- $x22
	//DEBUG_VALUE: mas_blk_dump_queue_status2:offset <- $w20
	.loc	4 311 13 is_stmt 1      // kernel/block/mas_blk_dump.c:311:13
	adrp	x2, .L.str.25
	.loc	4 311 27 is_stmt 0      // kernel/block/mas_blk_dump.c:311:27
	sxtw	x1, w8
	.loc	4 311 13                // kernel/block/mas_blk_dump.c:311:13
	add	x2, x2, :lo12:.L.str.25
	add	x3, sp, #8              // =8
	bl	snprintf
.Ltmp240:
	//DEBUG_VALUE: __mas_blk_dump_printf:offset <- $w0
	.loc	4 0 13                  // kernel/block/mas_blk_dump.c:0:13
	b	.LBB2_19
.Ltmp241:
.LBB2_18:
	//DEBUG_VALUE: __mas_blk_dump_printf:len <- $w8
	//DEBUG_VALUE: mas_blk_q_dump_opt_features:offset <- $w21
	//DEBUG_VALUE: mas_blk_q_dump_opt_features:buf <- $x22
	//DEBUG_VALUE: mas_blk_dump_queue_status2:offset <- $w20
	.loc	4 313 3 is_stmt 1       // kernel/block/mas_blk_dump.c:313:3
	adrp	x0, .L.str.26
	add	x0, x0, :lo12:.L.str.26
	add	x1, sp, #8              // =8
	bl	printk
.Ltmp242:
	.loc	4 0 0 is_stmt 0         // kernel/block/mas_blk_dump.c:0:0
	mov	w0, wzr
.Ltmp243:
.LBB2_19:
	//DEBUG_VALUE: mas_blk_q_dump_opt_features:offset <- $w21
	//DEBUG_VALUE: mas_blk_q_dump_opt_features:buf <- $x22
	//DEBUG_VALUE: mas_blk_dump_queue_status2:offset <- $w20
	//DEBUG_VALUE: mas_blk_q_dump_opt_features:offset <- undef
	//DEBUG_VALUE: __mas_blk_dump_printf:offset <- $w0
	.loc	4 350 9 is_stmt 1       // kernel/block/mas_blk_dump.c:350:9
	add	w8, w21, w20
.Ltmp244:
	.loc	4 360 9                 // kernel/block/mas_blk_dump.c:360:9
	add	w0, w8, w0
.Ltmp245:
	//DEBUG_VALUE: mas_blk_dump_queue_status2:offset <- $w0
	.loc	4 361 6                 // kernel/block/mas_blk_dump.c:361:6
	cbz	x19, .LBB2_21
.Ltmp246:
// %bb.20:
	//DEBUG_VALUE: mas_blk_dump_queue_status2:offset <- $w0
	.loc	4 362 15                // kernel/block/mas_blk_dump.c:362:15
	strb	wzr, [x19, w0, sxtw]
.Ltmp247:
.LBB2_21:
	//DEBUG_VALUE: mas_blk_dump_queue_status2:offset <- $w0
	.loc	4 0 15 is_stmt 0        // kernel/block/mas_blk_dump.c:0:15
	adrp	x9, __stack_chk_guard
	ldur	x8, [x29, #-88]
	ldr	x9, [x9, :lo12:__stack_chk_guard]
	cmp	x9, x8
	b.ne	.LBB2_23
.Ltmp248:
// %bb.22:
	//DEBUG_VALUE: mas_blk_dump_queue_status2:offset <- $w0
	.loc	4 364 2 is_stmt 1       // kernel/block/mas_blk_dump.c:364:2
	add	sp, sp, #528            // =528
	ldp	x29, x30, [sp, #80]     // 16-byte Folded Reload
	ldp	x20, x19, [sp, #64]     // 16-byte Folded Reload
	ldp	x22, x21, [sp, #48]     // 16-byte Folded Reload
	ldp	x24, x23, [sp, #32]     // 16-byte Folded Reload
	ldp	x26, x25, [sp, #16]     // 16-byte Folded Reload
	ldr	x28, [sp], #96          // 8-byte Folded Reload
	ret
.Ltmp249:
.LBB2_23:
	//DEBUG_VALUE: mas_blk_dump_queue_status2:offset <- $w0
	.loc	4 0 2 is_stmt 0         // kernel/block/mas_blk_dump.c:0:2
	bl	__stack_chk_fail
.Ltmp250:
.Lfunc_end2:
	.size	mas_blk_dump_queue_status2, .Lfunc_end2-mas_blk_dump_queue_status2
	.cfi_endproc
                                        // -- End function
	.section	.text.mas_blk_dump_queue_status,"ax",@progbits
	.hidden	mas_blk_dump_queue_status // -- Begin function mas_blk_dump_queue_status
	.globl	mas_blk_dump_queue_status
	.p2align	2
	.type	mas_blk_dump_queue_status,@function
mas_blk_dump_queue_status:              // @mas_blk_dump_queue_status
.Lfunc_begin3:
	.loc	4 372 0 is_stmt 1       // kernel/block/mas_blk_dump.c:372:0
	.cfi_startproc
// %bb.0:
	//DEBUG_VALUE: mas_blk_dump_queue_status:q <- $x0
	//DEBUG_VALUE: mas_blk_dump_queue_status:s <- $w1
	//DEBUG_VALUE: mas_blk_prefix_str:s <- $w1
	stp	x20, x19, [sp, #-32]!   // 16-byte Folded Spill
	stp	x29, x30, [sp, #16]     // 16-byte Folded Spill
	add	x29, sp, #16            // =16
	.cfi_def_cfa w29, 16
	.cfi_offset w30, -8
	.cfi_offset w29, -16
	.cfi_offset w19, -24
	.cfi_offset w20, -32
.Ltmp251:
	//DEBUG_VALUE: mas_blk_dump_queue_status:prefix <- undef
	.loc	4 375 20 prologue_end   // kernel/block/mas_blk_dump.c:375:20
	ldr	x8, [x0, #1552]
.Ltmp252:
	.loc	4 375 6 is_stmt 0       // kernel/block/mas_blk_dump.c:375:6
	cbz	x8, .LBB3_6
.Ltmp253:
// %bb.1:
	//DEBUG_VALUE: mas_blk_prefix_str:s <- $w1
	//DEBUG_VALUE: mas_blk_dump_queue_status:s <- $w1
	//DEBUG_VALUE: mas_blk_dump_queue_status:q <- $x0
	.loc	4 378 2 is_stmt 1       // kernel/block/mas_blk_dump.c:378:2
	ldrb	w11, [x0, #1560]
.Ltmp254:
	.loc	21 502 9                // kernel/include/linux/blkdev.h:502:9
	adrp	x9, .L.str.20
	adrp	x10, .L.str.19
.Ltmp255:
	.file	131 "/mnt/disk/jenkins/ci/workspace/chipset_pipeline_release/opensource/component_code/vendor/huawei/extra/build/build_script/kirin_kernel_release/kernel/include/linux/compiler.h"
	.loc	131 183 2               // kernel/include/linux/compiler.h:183:2
	ldr	w4, [x8, #1016]
.Ltmp256:
	//DEBUG_VALUE: __read_once_size:p <- [DW_OP_plus_uconst 1020, DW_OP_stack_value] $x8
	//DEBUG_VALUE: __read_once_size:size <- 4
	//DEBUG_VALUE: __read_once_size:res <- undef
	.loc	131 183 2 is_stmt 0     // kernel/include/linux/compiler.h:183:2
	ldr	w5, [x8, #1020]
.Ltmp257:
	.loc	21 502 9 is_stmt 1      // kernel/include/linux/blkdev.h:502:9
	add	x9, x9, :lo12:.L.str.20
	add	x10, x10, :lo12:.L.str.19
	cmp	w1, #1                  // =1
.Ltmp258:
	.loc	4 378 2                 // kernel/block/mas_blk_dump.c:378:2
	add	x2, x8, #12             // =12
	adrp	x12, .L.str.11
	adrp	x8, .L.str.12
.Ltmp259:
	.loc	4 0 2 is_stmt 0         // kernel/block/mas_blk_dump.c:0:2
	mov	x19, x0
.Ltmp260:
	//DEBUG_VALUE: mas_blk_dump_queue_status:q <- $x19
	mov	w20, w1
.Ltmp261:
	//DEBUG_VALUE: mas_blk_dump_queue_status:s <- $w20
	//DEBUG_VALUE: mas_blk_prefix_str:s <- $w20
	.loc	4 378 2                 // kernel/block/mas_blk_dump.c:378:2
	add	x12, x12, :lo12:.L.str.11
.Ltmp262:
	.loc	21 502 9 is_stmt 1      // kernel/include/linux/blkdev.h:502:9
	csel	x1, x10, x9, eq
.Ltmp263:
	//DEBUG_VALUE: mas_blk_dump_queue_status:prefix <- $x1
	.loc	4 378 2                 // kernel/block/mas_blk_dump.c:378:2
	add	x8, x8, :lo12:.L.str.12
	cmp	w11, #0                 // =0
	adrp	x0, .L.str.10
	csel	x3, x8, x12, eq
.Ltmp264:
	//DEBUG_VALUE: __read_once_size:p <- [DW_OP_plus_uconst 1016, DW_OP_stack_value] undef
	//DEBUG_VALUE: __read_once_size:size <- 4
	//DEBUG_VALUE: __read_once_size:res <- undef
	add	x0, x0, :lo12:.L.str.10
	bl	printk
.Ltmp265:
	.loc	21 502 9                // kernel/include/linux/blkdev.h:502:9
	cmp	w20, #1                 // =1
.Ltmp266:
	.loc	4 388 6                 // kernel/block/mas_blk_dump.c:388:6
	b.ne	.LBB3_3
.Ltmp267:
// %bb.2:
	//DEBUG_VALUE: mas_blk_dump_queue_status:s <- $w20
	//DEBUG_VALUE: mas_blk_dump_queue_status:q <- $x19
	.loc	4 389 3                 // kernel/block/mas_blk_dump.c:389:3
	mov	x0, x19
	mov	x1, xzr
	mov	w2, wzr
	bl	mas_blk_dump_queue_status2
.Ltmp268:
.LBB3_3:
	//DEBUG_VALUE: mas_blk_dump_queue_status:s <- $w20
	//DEBUG_VALUE: mas_blk_dump_queue_status:q <- $x19
	.loc	4 391 9                 // kernel/block/mas_blk_dump.c:391:9
	ldr	x8, [x19, #1816]
	.loc	4 391 23 is_stmt 0      // kernel/block/mas_blk_dump.c:391:23
	cbz	x8, .LBB3_6
.Ltmp269:
// %bb.4:
	//DEBUG_VALUE: mas_blk_dump_queue_status:s <- $w20
	//DEBUG_VALUE: mas_blk_dump_queue_status:q <- $x19
	.loc	4 391 44                // kernel/block/mas_blk_dump.c:391:44
	ldr	x8, [x8, #160]
.Ltmp270:
	.loc	4 391 6                 // kernel/block/mas_blk_dump.c:391:6
	cbz	x8, .LBB3_6
.Ltmp271:
// %bb.5:
	//DEBUG_VALUE: mas_blk_dump_queue_status:s <- $w20
	//DEBUG_VALUE: mas_blk_dump_queue_status:q <- $x19
	.loc	4 392 3 is_stmt 1       // kernel/block/mas_blk_dump.c:392:3
	mov	x0, x19
	mov	w1, w20
	blr	x8
.Ltmp272:
.LBB3_6:
	.loc	4 394 1                 // kernel/block/mas_blk_dump.c:394:1
	ldp	x29, x30, [sp, #16]     // 16-byte Folded Reload
	ldp	x20, x19, [sp], #32     // 16-byte Folded Reload
	ret
.Ltmp273:
.Lfunc_end3:
	.size	mas_blk_dump_queue_status, .Lfunc_end3-mas_blk_dump_queue_status
	.cfi_endproc
                                        // -- End function
	.section	.text.mas_blk_dump_lld_status,"ax",@progbits
	.hidden	mas_blk_dump_lld_status // -- Begin function mas_blk_dump_lld_status
	.globl	mas_blk_dump_lld_status
	.p2align	2
	.type	mas_blk_dump_lld_status,@function
mas_blk_dump_lld_status:                // @mas_blk_dump_lld_status
.Lfunc_begin4:
	.loc	4 590 0                 // kernel/block/mas_blk_dump.c:590:0
	.cfi_startproc
// %bb.0:
	//DEBUG_VALUE: mas_blk_dump_lld_status:lld <- $x0
	//DEBUG_VALUE: mas_blk_dump_lld_status:buf <- $x1
	//DEBUG_VALUE: mas_blk_dump_lld_status:len <- $w2
	stp	x28, x27, [sp, #-96]!   // 16-byte Folded Spill
	stp	x26, x25, [sp, #16]     // 16-byte Folded Spill
	stp	x24, x23, [sp, #32]     // 16-byte Folded Spill
	stp	x22, x21, [sp, #48]     // 16-byte Folded Spill
	stp	x20, x19, [sp, #64]     // 16-byte Folded Spill
	stp	x29, x30, [sp, #80]     // 16-byte Folded Spill
	add	x29, sp, #80            // =80
	sub	sp, sp, #560            // =560
	.cfi_def_cfa w29, 16
	.cfi_offset w30, -8
	.cfi_offset w29, -16
	.cfi_offset w19, -24
	.cfi_offset w20, -32
	.cfi_offset w21, -40
	.cfi_offset w22, -48
	.cfi_offset w23, -56
	.cfi_offset w24, -64
	.cfi_offset w25, -72
	.cfi_offset w26, -80
	.cfi_offset w27, -88
	.cfi_offset w28, -96
.Ltmp274:
	.loc	4 575 2 prologue_end    // kernel/block/mas_blk_dump.c:575:2
	adrp	x9, .L.str.33
	adrp	x8, __stack_chk_guard
	add	x9, x9, :lo12:.L.str.33
	ldr	x8, [x8, :lo12:__stack_chk_guard]
.Ltmp275:
	//DEBUG_VALUE: mas_blk_dump_lld_status:len <- $w21
	//DEBUG_VALUE: mas_blk_dump_lld_status:buf <- $x19
	//DEBUG_VALUE: mas_blk_dump_lld_status:lld <- $x20
	ldur	x10, [x9, #5]
	ldr	x9, [x9]
	mov	w21, w2
.Ltmp276:
	.loc	4 0 2 is_stmt 0         // kernel/block/mas_blk_dump.c:0:2
	mov	x19, x1
.Ltmp277:
	mov	x20, x0
.Ltmp278:
	stur	x8, [x29, #-96]
.Ltmp279:
	//DEBUG_VALUE: mas_blk_lld_dump_header:offset <- 0
	//DEBUG_VALUE: __mas_blk_dump_printf:str <- undef
	//DEBUG_VALUE: __mas_blk_dump_printf:str <- undef
	//DEBUG_VALUE: __mas_blk_dump_printf:str <- undef
	//DEBUG_VALUE: __mas_blk_dump_printf:str <- undef
	//DEBUG_VALUE: __mas_blk_dump_printf:str <- undef
	//DEBUG_VALUE: __mas_blk_dump_printf:str <- undef
	//DEBUG_VALUE: __mas_blk_dump_printf:str <- undef
	//DEBUG_VALUE: __mas_blk_dump_printf:str <- undef
	//DEBUG_VALUE: __mas_blk_dump_printf:str <- undef
	//DEBUG_VALUE: __mas_blk_dump_printf:str <- undef
	//DEBUG_VALUE: __mas_blk_dump_printf:str <- undef
	//DEBUG_VALUE: __mas_blk_dump_printf:str <- undef
	//DEBUG_VALUE: __mas_blk_dump_printf:str <- undef
	//DEBUG_VALUE: __mas_blk_dump_printf:str <- undef
	//DEBUG_VALUE: mas_blk_lld_dump_opt_feature_unist:tmp_str <- undef
	//DEBUG_VALUE: __mas_blk_dump_printf:str <- undef
	//DEBUG_VALUE: __mas_blk_dump_printf:str <- undef
	//DEBUG_VALUE: __mas_blk_dump_printf:str <- undef
	//DEBUG_VALUE: __mas_blk_dump_printf:str <- undef
	//DEBUG_VALUE: mas_blk_lld_dump_header:len <- undef
	//DEBUG_VALUE: mas_blk_lld_dump_header:buf <- $x19
	//DEBUG_VALUE: mas_blk_lld_dump_header:lld <- undef
	//DEBUG_VALUE: mas_blk_dump_lld_status:offset <- 0
	.loc	4 575 2                 // kernel/block/mas_blk_dump.c:575:2
	stur	x10, [sp, #37]
	str	x9, [sp, #32]
.Ltmp280:
	//DEBUG_VALUE: __mas_blk_dump_printf:offset <- 0
	//DEBUG_VALUE: __mas_blk_dump_printf:len <- undef
	//DEBUG_VALUE: __mas_blk_dump_printf:buf <- $x19
	.loc	4 310 10 is_stmt 1      // kernel/block/mas_blk_dump.c:310:10
	cbz	x1, .LBB4_3
.Ltmp281:
// %bb.1:
	//DEBUG_VALUE: __mas_blk_dump_printf:buf <- $x19
	//DEBUG_VALUE: mas_blk_lld_dump_header:buf <- $x19
	cmp	w21, #1                 // =1
	b.lt	.LBB4_3
.Ltmp282:
// %bb.2:
	//DEBUG_VALUE: __mas_blk_dump_printf:buf <- $x19
	//DEBUG_VALUE: mas_blk_lld_dump_header:buf <- $x19
	.loc	4 311 13                // kernel/block/mas_blk_dump.c:311:13
	adrp	x2, .L.str.25
	.loc	4 311 27 is_stmt 0      // kernel/block/mas_blk_dump.c:311:27
	sxtw	x1, w21
	.loc	4 311 13                // kernel/block/mas_blk_dump.c:311:13
	add	x2, x2, :lo12:.L.str.25
	add	x3, sp, #32             // =32
	mov	x0, x19
	bl	snprintf
	mov	w22, w0
.Ltmp283:
	//DEBUG_VALUE: __mas_blk_dump_printf:offset <- $w22
	.loc	4 0 13                  // kernel/block/mas_blk_dump.c:0:13
	b	.LBB4_4
.Ltmp284:
.LBB4_3:
	//DEBUG_VALUE: __mas_blk_dump_printf:buf <- $x19
	//DEBUG_VALUE: mas_blk_lld_dump_header:buf <- $x19
	.loc	4 313 3 is_stmt 1       // kernel/block/mas_blk_dump.c:313:3
	adrp	x0, .L.str.26
	add	x0, x0, :lo12:.L.str.26
	add	x1, sp, #32             // =32
	bl	printk
.Ltmp285:
	.loc	4 0 0 is_stmt 0         // kernel/block/mas_blk_dump.c:0:0
	mov	w22, wzr
.Ltmp286:
.LBB4_4:
	//DEBUG_VALUE: __mas_blk_dump_printf:buf <- $x19
	//DEBUG_VALUE: mas_blk_lld_dump_header:buf <- $x19
	//DEBUG_VALUE: mas_blk_lld_dump_header:offset <- $w22
	//DEBUG_VALUE: __mas_blk_dump_printf:offset <- $w22
	.loc	4 579 9 is_stmt 1       // kernel/block/mas_blk_dump.c:579:9
	ldr	x8, [x20, #24]
	.loc	4 579 3 is_stmt 0       // kernel/block/mas_blk_dump.c:579:3
	adrp	x24, .L.str.30
	adrp	x25, .L.str.31
	add	x24, x24, :lo12:.L.str.30
	add	x25, x25, :lo12:.L.str.31
	tst	x8, #0x1
	.loc	4 578 2 is_stmt 1       // kernel/block/mas_blk_dump.c:578:2
	adrp	x2, .L.str.34
	.loc	4 579 3                 // kernel/block/mas_blk_dump.c:579:3
	csel	x3, x25, x24, eq
	.loc	4 578 2                 // kernel/block/mas_blk_dump.c:578:2
	add	x2, x2, :lo12:.L.str.34
	add	x0, sp, #32             // =32
	orr	w1, wzr, #0x200
	bl	snprintf
	.loc	4 581 52                // kernel/block/mas_blk_dump.c:581:52
	sub	w8, w21, w22
.Ltmp287:
	//DEBUG_VALUE: __mas_blk_dump_printf:offset <- 0
	//DEBUG_VALUE: __mas_blk_dump_printf:len <- $w8
	.loc	4 310 10                // kernel/block/mas_blk_dump.c:310:10
	cmp	w8, #1                  // =1
	b.lt	.LBB4_7
.Ltmp288:
// %bb.5:
	//DEBUG_VALUE: __mas_blk_dump_printf:len <- $w8
	//DEBUG_VALUE: mas_blk_lld_dump_header:offset <- $w22
	//DEBUG_VALUE: mas_blk_lld_dump_header:buf <- $x19
	.loc	4 0 0 is_stmt 0         // kernel/block/mas_blk_dump.c:0:0
	add	x0, x19, w22, sxtw
.Ltmp289:
	//DEBUG_VALUE: __mas_blk_dump_printf:buf <- $x0
	.loc	4 310 10                // kernel/block/mas_blk_dump.c:310:10
	cbz	x0, .LBB4_7
.Ltmp290:
// %bb.6:
	//DEBUG_VALUE: __mas_blk_dump_printf:buf <- $x0
	//DEBUG_VALUE: __mas_blk_dump_printf:len <- $w8
	//DEBUG_VALUE: mas_blk_lld_dump_header:offset <- $w22
	//DEBUG_VALUE: mas_blk_lld_dump_header:buf <- $x19
	.loc	4 311 13 is_stmt 1      // kernel/block/mas_blk_dump.c:311:13
	adrp	x2, .L.str.25
	.loc	4 311 27 is_stmt 0      // kernel/block/mas_blk_dump.c:311:27
	sxtw	x1, w8
	.loc	4 311 13                // kernel/block/mas_blk_dump.c:311:13
	add	x2, x2, :lo12:.L.str.25
	add	x3, sp, #32             // =32
	bl	snprintf
.Ltmp291:
	//DEBUG_VALUE: __mas_blk_dump_printf:offset <- $w0
	.loc	4 0 13                  // kernel/block/mas_blk_dump.c:0:13
	b	.LBB4_8
.Ltmp292:
.LBB4_7:
	//DEBUG_VALUE: __mas_blk_dump_printf:len <- $w8
	//DEBUG_VALUE: mas_blk_lld_dump_header:offset <- $w22
	//DEBUG_VALUE: mas_blk_lld_dump_header:buf <- $x19
	.loc	4 313 3 is_stmt 1       // kernel/block/mas_blk_dump.c:313:3
	adrp	x0, .L.str.26
	add	x0, x0, :lo12:.L.str.26
	add	x1, sp, #32             // =32
	bl	printk
.Ltmp293:
	.loc	4 0 0 is_stmt 0         // kernel/block/mas_blk_dump.c:0:0
	mov	w0, wzr
.Ltmp294:
.LBB4_8:
	//DEBUG_VALUE: mas_blk_lld_dump_header:offset <- $w22
	//DEBUG_VALUE: mas_blk_lld_dump_header:buf <- $x19
	//DEBUG_VALUE: __mas_blk_dump_printf:offset <- $w0
	.loc	4 401 6 is_stmt 1       // kernel/block/mas_blk_dump.c:401:6
	ldrb	w8, [x20, #24]
.Ltmp295:
	.loc	4 581 9                 // kernel/block/mas_blk_dump.c:581:9
	add	w22, w0, w22
.Ltmp296:
	//DEBUG_VALUE: mas_blk_lld_dump_header:offset <- $w22
	//DEBUG_VALUE: mas_blk_dump_lld_status:offset <- $w22
	.loc	4 595 60                // kernel/block/mas_blk_dump.c:595:60
	sub	w23, w21, w22
.Ltmp297:
	//DEBUG_VALUE: mas_blk_lld_dump_latency:lld <- $x20
	//DEBUG_VALUE: mas_blk_lld_dump_latency:len <- $w23
	//DEBUG_VALUE: __mas_blk_dump_printf:len <- $w23
	.loc	4 401 6                 // kernel/block/mas_blk_dump.c:401:6
	tbnz	w8, #1, .LBB4_12
.Ltmp298:
// %bb.9:
	//DEBUG_VALUE: __mas_blk_dump_printf:len <- $w23
	//DEBUG_VALUE: mas_blk_lld_dump_latency:len <- $w23
	//DEBUG_VALUE: mas_blk_lld_dump_latency:lld <- $x20
	//DEBUG_VALUE: mas_blk_dump_lld_status:offset <- $w22
	.loc	4 406 3                 // kernel/block/mas_blk_dump.c:406:3
	adrp	x8, .L.str.36
	add	x8, x8, :lo12:.L.str.36
	ldr	x10, [x8]
	ldp	x8, x9, [x8, #8]
	mov	w11, #25964
	movk	w11, #10, lsl #16
	stur	w11, [sp, #55]
	stp	x8, x9, [sp, #40]
	str	x10, [sp, #32]
.Ltmp299:
	//DEBUG_VALUE: __mas_blk_dump_printf:offset <- 0
	.loc	4 310 10                // kernel/block/mas_blk_dump.c:310:10
	cmp	w23, #1                 // =1
	b.lt	.LBB4_13
.Ltmp300:
.LBB4_10:
	//DEBUG_VALUE: __mas_blk_dump_printf:len <- $w23
	//DEBUG_VALUE: mas_blk_lld_dump_latency:len <- $w23
	//DEBUG_VALUE: mas_blk_lld_dump_latency:lld <- $x20
	//DEBUG_VALUE: mas_blk_dump_lld_status:offset <- $w22
	.loc	4 0 0 is_stmt 0         // kernel/block/mas_blk_dump.c:0:0
	add	x0, x19, w22, sxtw
.Ltmp301:
	//DEBUG_VALUE: mas_blk_lld_dump_latency:buf <- $x0
	//DEBUG_VALUE: __mas_blk_dump_printf:buf <- $x0
	.loc	4 310 10                // kernel/block/mas_blk_dump.c:310:10
	cbz	x0, .LBB4_13
.Ltmp302:
// %bb.11:
	//DEBUG_VALUE: __mas_blk_dump_printf:buf <- $x0
	//DEBUG_VALUE: mas_blk_lld_dump_latency:buf <- $x0
	//DEBUG_VALUE: __mas_blk_dump_printf:len <- $w23
	//DEBUG_VALUE: mas_blk_lld_dump_latency:len <- $w23
	//DEBUG_VALUE: mas_blk_lld_dump_latency:lld <- $x20
	//DEBUG_VALUE: mas_blk_dump_lld_status:offset <- $w22
	.loc	4 311 13 is_stmt 1      // kernel/block/mas_blk_dump.c:311:13
	adrp	x2, .L.str.25
	.loc	4 311 27 is_stmt 0      // kernel/block/mas_blk_dump.c:311:27
	sxtw	x1, w23
	.loc	4 311 13                // kernel/block/mas_blk_dump.c:311:13
	add	x2, x2, :lo12:.L.str.25
	add	x3, sp, #32             // =32
	bl	snprintf
.Ltmp303:
	//DEBUG_VALUE: __mas_blk_dump_printf:offset <- $w0
	.loc	4 0 13                  // kernel/block/mas_blk_dump.c:0:13
	b	.LBB4_14
.Ltmp304:
.LBB4_12:
	//DEBUG_VALUE: __mas_blk_dump_printf:len <- $w23
	//DEBUG_VALUE: mas_blk_lld_dump_latency:len <- $w23
	//DEBUG_VALUE: mas_blk_lld_dump_latency:lld <- $x20
	//DEBUG_VALUE: mas_blk_dump_lld_status:offset <- $w22
	.loc	4 404 9 is_stmt 1       // kernel/block/mas_blk_dump.c:404:9
	ldr	w3, [x20, #48]
	.loc	4 402 3                 // kernel/block/mas_blk_dump.c:402:3
	adrp	x2, .L.str.35
	add	x2, x2, :lo12:.L.str.35
	add	x0, sp, #32             // =32
	orr	w1, wzr, #0x200
	bl	snprintf
.Ltmp305:
	//DEBUG_VALUE: __mas_blk_dump_printf:offset <- 0
	.loc	4 310 10                // kernel/block/mas_blk_dump.c:310:10
	cmp	w23, #1                 // =1
	b.ge	.LBB4_10
.Ltmp306:
.LBB4_13:
	//DEBUG_VALUE: __mas_blk_dump_printf:len <- $w23
	//DEBUG_VALUE: mas_blk_lld_dump_latency:len <- $w23
	//DEBUG_VALUE: mas_blk_lld_dump_latency:lld <- $x20
	//DEBUG_VALUE: mas_blk_dump_lld_status:offset <- $w22
	.loc	4 313 3                 // kernel/block/mas_blk_dump.c:313:3
	adrp	x0, .L.str.26
	add	x0, x0, :lo12:.L.str.26
	add	x1, sp, #32             // =32
	bl	printk
.Ltmp307:
	.loc	4 0 0 is_stmt 0         // kernel/block/mas_blk_dump.c:0:0
	mov	w0, wzr
.Ltmp308:
.LBB4_14:
	//DEBUG_VALUE: __mas_blk_dump_printf:len <- $w23
	//DEBUG_VALUE: mas_blk_lld_dump_latency:len <- $w23
	//DEBUG_VALUE: mas_blk_lld_dump_latency:lld <- $x20
	//DEBUG_VALUE: mas_blk_dump_lld_status:offset <- $w22
	//DEBUG_VALUE: __mas_blk_dump_printf:offset <- $w0
	.loc	4 436 9 is_stmt 1       // kernel/block/mas_blk_dump.c:436:9
	ldr	x8, [x20, #24]
	.loc	4 435 2                 // kernel/block/mas_blk_dump.c:435:2
	adrp	x2, .L.str.37
.Ltmp309:
	.loc	4 595 9                 // kernel/block/mas_blk_dump.c:595:9
	add	w26, w0, w22
.Ltmp310:
	//DEBUG_VALUE: mas_blk_dump_lld_status:offset <- $w26
	.loc	4 435 2                 // kernel/block/mas_blk_dump.c:435:2
	add	x2, x2, :lo12:.L.str.37
	.loc	4 436 3                 // kernel/block/mas_blk_dump.c:436:3
	tst	x8, #0x8
	csel	x3, x25, x24, eq
	.loc	4 435 2                 // kernel/block/mas_blk_dump.c:435:2
	add	x0, sp, #32             // =32
.Ltmp311:
	orr	w1, wzr, #0x200
.Ltmp312:
	.loc	4 597 47                // kernel/block/mas_blk_dump.c:597:47
	add	x22, x19, w26, sxtw
	.loc	4 597 61 is_stmt 0      // kernel/block/mas_blk_dump.c:597:61
	sub	w27, w21, w26
.Ltmp313:
	//DEBUG_VALUE: mas_blk_lld_dump_busyidle:offset <- 0
	//DEBUG_VALUE: mas_blk_lld_dump_busyidle:lld <- $x20
	//DEBUG_VALUE: mas_blk_lld_dump_busyidle:len <- $w27
	//DEBUG_VALUE: mas_blk_lld_dump_busyidle:buf <- $x22
	.loc	4 435 2 is_stmt 1       // kernel/block/mas_blk_dump.c:435:2
	bl	snprintf
.Ltmp314:
	//DEBUG_VALUE: __mas_blk_dump_printf:offset <- 0
	//DEBUG_VALUE: __mas_blk_dump_printf:len <- $w27
	//DEBUG_VALUE: __mas_blk_dump_printf:buf <- $x22
	.loc	4 310 10                // kernel/block/mas_blk_dump.c:310:10
	cmp	w27, #1                 // =1
	b.lt	.LBB4_17
.Ltmp315:
// %bb.15:
	//DEBUG_VALUE: __mas_blk_dump_printf:buf <- $x22
	//DEBUG_VALUE: __mas_blk_dump_printf:len <- $w27
	//DEBUG_VALUE: mas_blk_lld_dump_busyidle:buf <- $x22
	//DEBUG_VALUE: mas_blk_lld_dump_busyidle:len <- $w27
	//DEBUG_VALUE: mas_blk_lld_dump_busyidle:lld <- $x20
	//DEBUG_VALUE: mas_blk_dump_lld_status:offset <- $w26
	cbz	x22, .LBB4_17
.Ltmp316:
// %bb.16:
	//DEBUG_VALUE: __mas_blk_dump_printf:buf <- $x22
	//DEBUG_VALUE: __mas_blk_dump_printf:len <- $w27
	//DEBUG_VALUE: mas_blk_lld_dump_busyidle:buf <- $x22
	//DEBUG_VALUE: mas_blk_lld_dump_busyidle:len <- $w27
	//DEBUG_VALUE: mas_blk_lld_dump_busyidle:lld <- $x20
	//DEBUG_VALUE: mas_blk_dump_lld_status:offset <- $w26
	.loc	4 311 13                // kernel/block/mas_blk_dump.c:311:13
	adrp	x2, .L.str.25
	.loc	4 311 27 is_stmt 0      // kernel/block/mas_blk_dump.c:311:27
	sxtw	x1, w27
	.loc	4 311 13                // kernel/block/mas_blk_dump.c:311:13
	add	x2, x2, :lo12:.L.str.25
	add	x3, sp, #32             // =32
	mov	x0, x22
	bl	snprintf
	mov	w23, w0
.Ltmp317:
	//DEBUG_VALUE: __mas_blk_dump_printf:offset <- $w23
	.loc	4 0 13                  // kernel/block/mas_blk_dump.c:0:13
	b	.LBB4_18
.Ltmp318:
.LBB4_17:
	//DEBUG_VALUE: __mas_blk_dump_printf:buf <- $x22
	//DEBUG_VALUE: __mas_blk_dump_printf:len <- $w27
	//DEBUG_VALUE: mas_blk_lld_dump_busyidle:buf <- $x22
	//DEBUG_VALUE: mas_blk_lld_dump_busyidle:len <- $w27
	//DEBUG_VALUE: mas_blk_lld_dump_busyidle:lld <- $x20
	//DEBUG_VALUE: mas_blk_dump_lld_status:offset <- $w26
	.loc	4 313 3 is_stmt 1       // kernel/block/mas_blk_dump.c:313:3
	adrp	x0, .L.str.26
	add	x0, x0, :lo12:.L.str.26
	add	x1, sp, #32             // =32
	bl	printk
.Ltmp319:
	.loc	4 0 0 is_stmt 0         // kernel/block/mas_blk_dump.c:0:0
	mov	w23, wzr
.Ltmp320:
.LBB4_18:
	//DEBUG_VALUE: __mas_blk_dump_printf:buf <- $x22
	//DEBUG_VALUE: __mas_blk_dump_printf:len <- $w27
	//DEBUG_VALUE: mas_blk_lld_dump_busyidle:buf <- $x22
	//DEBUG_VALUE: mas_blk_lld_dump_busyidle:len <- $w27
	//DEBUG_VALUE: mas_blk_lld_dump_busyidle:lld <- $x20
	//DEBUG_VALUE: mas_blk_dump_lld_status:offset <- $w26
	//DEBUG_VALUE: mas_blk_lld_dump_busyidle:offset <- $w23
	//DEBUG_VALUE: __mas_blk_dump_printf:offset <- $w23
	.loc	4 440 24 is_stmt 1      // kernel/block/mas_blk_dump.c:440:24
	ldr	w8, [x20, #1320]
	.loc	4 440 2 is_stmt 0       // kernel/block/mas_blk_dump.c:440:2
	cmp	w8, #1                  // =1
	b.eq	.LBB4_21
.Ltmp321:
// %bb.19:
	//DEBUG_VALUE: mas_blk_lld_dump_busyidle:offset <- $w23
	//DEBUG_VALUE: mas_blk_lld_dump_busyidle:buf <- $x22
	//DEBUG_VALUE: mas_blk_lld_dump_busyidle:len <- $w27
	//DEBUG_VALUE: mas_blk_lld_dump_busyidle:lld <- $x20
	//DEBUG_VALUE: mas_blk_dump_lld_status:offset <- $w26
	cbnz	w8, .LBB4_31
.Ltmp322:
// %bb.20:
	//DEBUG_VALUE: mas_blk_lld_dump_busyidle:offset <- $w23
	//DEBUG_VALUE: mas_blk_lld_dump_busyidle:buf <- $x22
	//DEBUG_VALUE: mas_blk_lld_dump_busyidle:len <- $w27
	//DEBUG_VALUE: mas_blk_lld_dump_busyidle:lld <- $x20
	//DEBUG_VALUE: mas_blk_dump_lld_status:offset <- $w26
	.loc	4 442 3 is_stmt 1       // kernel/block/mas_blk_dump.c:442:3
	adrp	x8, .L.str.38
	add	x8, x8, :lo12:.L.str.38
	b	.LBB4_22
.Ltmp323:
.LBB4_21:
	//DEBUG_VALUE: mas_blk_lld_dump_busyidle:offset <- $w23
	//DEBUG_VALUE: mas_blk_lld_dump_busyidle:buf <- $x22
	//DEBUG_VALUE: mas_blk_lld_dump_busyidle:len <- $w27
	//DEBUG_VALUE: mas_blk_lld_dump_busyidle:lld <- $x20
	//DEBUG_VALUE: mas_blk_dump_lld_status:offset <- $w26
	.loc	4 445 3                 // kernel/block/mas_blk_dump.c:445:3
	adrp	x8, .L.str.39
	add	x8, x8, :lo12:.L.str.39
.Ltmp324:
.LBB4_22:
	//DEBUG_VALUE: mas_blk_lld_dump_busyidle:offset <- $w23
	//DEBUG_VALUE: mas_blk_lld_dump_busyidle:buf <- $x22
	//DEBUG_VALUE: mas_blk_lld_dump_busyidle:len <- $w27
	//DEBUG_VALUE: mas_blk_lld_dump_busyidle:lld <- $x20
	//DEBUG_VALUE: mas_blk_dump_lld_status:offset <- $w26
	.loc	4 0 0 is_stmt 0         // kernel/block/mas_blk_dump.c:0:0
	ldur	x9, [x8, #6]
	ldr	x8, [x8]
	stur	x9, [sp, #38]
	str	x8, [sp, #32]
.Ltmp325:
	.loc	4 450 52 is_stmt 1      // kernel/block/mas_blk_dump.c:450:52
	sub	w8, w27, w23
.Ltmp326:
	//DEBUG_VALUE: __mas_blk_dump_printf:offset <- 0
	//DEBUG_VALUE: __mas_blk_dump_printf:len <- $w8
	.loc	4 310 10                // kernel/block/mas_blk_dump.c:310:10
	cmp	w8, #1                  // =1
	b.lt	.LBB4_25
.Ltmp327:
// %bb.23:
	//DEBUG_VALUE: __mas_blk_dump_printf:len <- $w8
	//DEBUG_VALUE: mas_blk_lld_dump_busyidle:offset <- $w23
	//DEBUG_VALUE: mas_blk_lld_dump_busyidle:buf <- $x22
	//DEBUG_VALUE: mas_blk_lld_dump_busyidle:len <- $w27
	//DEBUG_VALUE: mas_blk_lld_dump_busyidle:lld <- $x20
	//DEBUG_VALUE: mas_blk_dump_lld_status:offset <- $w26
	.loc	4 0 0 is_stmt 0         // kernel/block/mas_blk_dump.c:0:0
	add	x0, x22, w23, sxtw
.Ltmp328:
	//DEBUG_VALUE: __mas_blk_dump_printf:buf <- $x0
	.loc	4 310 10                // kernel/block/mas_blk_dump.c:310:10
	cbz	x0, .LBB4_25
.Ltmp329:
// %bb.24:
	//DEBUG_VALUE: __mas_blk_dump_printf:buf <- $x0
	//DEBUG_VALUE: __mas_blk_dump_printf:len <- $w8
	//DEBUG_VALUE: mas_blk_lld_dump_busyidle:offset <- $w23
	//DEBUG_VALUE: mas_blk_lld_dump_busyidle:buf <- $x22
	//DEBUG_VALUE: mas_blk_lld_dump_busyidle:len <- $w27
	//DEBUG_VALUE: mas_blk_lld_dump_busyidle:lld <- $x20
	//DEBUG_VALUE: mas_blk_dump_lld_status:offset <- $w26
	.loc	4 311 13 is_stmt 1      // kernel/block/mas_blk_dump.c:311:13
	adrp	x2, .L.str.25
	.loc	4 311 27 is_stmt 0      // kernel/block/mas_blk_dump.c:311:27
	sxtw	x1, w8
	.loc	4 311 13                // kernel/block/mas_blk_dump.c:311:13
	add	x2, x2, :lo12:.L.str.25
	add	x3, sp, #32             // =32
	bl	snprintf
.Ltmp330:
	//DEBUG_VALUE: __mas_blk_dump_printf:offset <- $w0
	.loc	4 0 13                  // kernel/block/mas_blk_dump.c:0:13
	b	.LBB4_26
.Ltmp331:
.LBB4_25:
	//DEBUG_VALUE: __mas_blk_dump_printf:len <- $w8
	//DEBUG_VALUE: mas_blk_lld_dump_busyidle:offset <- $w23
	//DEBUG_VALUE: mas_blk_lld_dump_busyidle:buf <- $x22
	//DEBUG_VALUE: mas_blk_lld_dump_busyidle:len <- $w27
	//DEBUG_VALUE: mas_blk_lld_dump_busyidle:lld <- $x20
	//DEBUG_VALUE: mas_blk_dump_lld_status:offset <- $w26
	.loc	4 313 3 is_stmt 1       // kernel/block/mas_blk_dump.c:313:3
	adrp	x0, .L.str.26
	add	x0, x0, :lo12:.L.str.26
	add	x1, sp, #32             // =32
	bl	printk
.Ltmp332:
	.loc	4 0 0 is_stmt 0         // kernel/block/mas_blk_dump.c:0:0
	mov	w0, wzr
.Ltmp333:
.LBB4_26:
	//DEBUG_VALUE: mas_blk_lld_dump_busyidle:offset <- $w23
	//DEBUG_VALUE: mas_blk_lld_dump_busyidle:buf <- $x22
	//DEBUG_VALUE: mas_blk_lld_dump_busyidle:len <- $w27
	//DEBUG_VALUE: mas_blk_lld_dump_busyidle:lld <- $x20
	//DEBUG_VALUE: mas_blk_dump_lld_status:offset <- $w26
	//DEBUG_VALUE: __mas_blk_dump_printf:offset <- $w0
	.loc	131 183 2 is_stmt 1     // kernel/include/linux/compiler.h:183:2
	ldr	w3, [x20, #1248]
.Ltmp334:
	.loc	4 452 2                 // kernel/block/mas_blk_dump.c:452:2
	adrp	x2, .L.str.40
	.loc	4 450 9                 // kernel/block/mas_blk_dump.c:450:9
	add	w23, w0, w23
.Ltmp335:
	//DEBUG_VALUE: __read_once_size:size <- 4
	//DEBUG_VALUE: __read_once_size:res <- undef
	//DEBUG_VALUE: __read_once_size:p <- [DW_OP_plus_uconst 1248, DW_OP_stack_value] $x20
	//DEBUG_VALUE: mas_blk_lld_dump_busyidle:offset <- $w23
	.loc	4 452 2                 // kernel/block/mas_blk_dump.c:452:2
	add	x2, x2, :lo12:.L.str.40
	add	x0, sp, #32             // =32
.Ltmp336:
	orr	w1, wzr, #0x200
	bl	snprintf
	.loc	4 454 52                // kernel/block/mas_blk_dump.c:454:52
	sub	w8, w27, w23
.Ltmp337:
	//DEBUG_VALUE: __mas_blk_dump_printf:offset <- 0
	//DEBUG_VALUE: __mas_blk_dump_printf:len <- $w8
	.loc	4 310 10                // kernel/block/mas_blk_dump.c:310:10
	cmp	w8, #1                  // =1
	b.lt	.LBB4_29
.Ltmp338:
// %bb.27:
	//DEBUG_VALUE: __mas_blk_dump_printf:len <- $w8
	//DEBUG_VALUE: mas_blk_lld_dump_busyidle:offset <- $w23
	//DEBUG_VALUE: mas_blk_lld_dump_busyidle:buf <- $x22
	//DEBUG_VALUE: mas_blk_lld_dump_busyidle:len <- $w27
	//DEBUG_VALUE: mas_blk_lld_dump_busyidle:lld <- $x20
	//DEBUG_VALUE: mas_blk_dump_lld_status:offset <- $w26
	.loc	4 0 0 is_stmt 0         // kernel/block/mas_blk_dump.c:0:0
	add	x0, x22, w23, sxtw
.Ltmp339:
	//DEBUG_VALUE: __mas_blk_dump_printf:buf <- $x0
	.loc	4 310 10                // kernel/block/mas_blk_dump.c:310:10
	cbz	x0, .LBB4_29
.Ltmp340:
// %bb.28:
	//DEBUG_VALUE: __mas_blk_dump_printf:buf <- $x0
	//DEBUG_VALUE: __mas_blk_dump_printf:len <- $w8
	//DEBUG_VALUE: mas_blk_lld_dump_busyidle:offset <- $w23
	//DEBUG_VALUE: mas_blk_lld_dump_busyidle:buf <- $x22
	//DEBUG_VALUE: mas_blk_lld_dump_busyidle:len <- $w27
	//DEBUG_VALUE: mas_blk_lld_dump_busyidle:lld <- $x20
	//DEBUG_VALUE: mas_blk_dump_lld_status:offset <- $w26
	.loc	4 311 13 is_stmt 1      // kernel/block/mas_blk_dump.c:311:13
	adrp	x2, .L.str.25
	.loc	4 311 27 is_stmt 0      // kernel/block/mas_blk_dump.c:311:27
	sxtw	x1, w8
	.loc	4 311 13                // kernel/block/mas_blk_dump.c:311:13
	add	x2, x2, :lo12:.L.str.25
	add	x3, sp, #32             // =32
	bl	snprintf
.Ltmp341:
	//DEBUG_VALUE: __mas_blk_dump_printf:offset <- $w0
	.loc	4 0 13                  // kernel/block/mas_blk_dump.c:0:13
	b	.LBB4_30
.Ltmp342:
.LBB4_29:
	//DEBUG_VALUE: __mas_blk_dump_printf:len <- $w8
	//DEBUG_VALUE: mas_blk_lld_dump_busyidle:offset <- $w23
	//DEBUG_VALUE: mas_blk_lld_dump_busyidle:buf <- $x22
	//DEBUG_VALUE: mas_blk_lld_dump_busyidle:len <- $w27
	//DEBUG_VALUE: mas_blk_lld_dump_busyidle:lld <- $x20
	//DEBUG_VALUE: mas_blk_dump_lld_status:offset <- $w26
	.loc	4 313 3 is_stmt 1       // kernel/block/mas_blk_dump.c:313:3
	adrp	x0, .L.str.26
	add	x0, x0, :lo12:.L.str.26
	add	x1, sp, #32             // =32
	bl	printk
.Ltmp343:
	.loc	4 0 0 is_stmt 0         // kernel/block/mas_blk_dump.c:0:0
	mov	w0, wzr
.Ltmp344:
.LBB4_30:
	//DEBUG_VALUE: mas_blk_lld_dump_busyidle:offset <- $w23
	//DEBUG_VALUE: mas_blk_lld_dump_busyidle:buf <- $x22
	//DEBUG_VALUE: mas_blk_lld_dump_busyidle:len <- $w27
	//DEBUG_VALUE: mas_blk_lld_dump_busyidle:lld <- $x20
	//DEBUG_VALUE: mas_blk_dump_lld_status:offset <- $w26
	//DEBUG_VALUE: __mas_blk_dump_printf:offset <- $w0
	.loc	4 454 9 is_stmt 1       // kernel/block/mas_blk_dump.c:454:9
	add	w23, w0, w23
.Ltmp345:
	//DEBUG_VALUE: mas_blk_lld_dump_busyidle:offset <- $w23
.LBB4_31:
	//DEBUG_VALUE: mas_blk_dump_lld_status:offset <- $w26
	.loc	4 599 11                // kernel/block/mas_blk_dump.c:599:11
	ldr	x8, [x20, #24]
.Ltmp346:
	.loc	4 597 9                 // kernel/block/mas_blk_dump.c:597:9
	add	w26, w23, w26
.Ltmp347:
	//DEBUG_VALUE: mas_blk_dump_lld_status:offset <- $w26
	.loc	4 599 6                 // kernel/block/mas_blk_dump.c:599:6
	tbz	w8, #8, .LBB4_50
.Ltmp348:
// %bb.32:
	//DEBUG_VALUE: mas_blk_dump_lld_status:offset <- $w26
	.loc	4 467 3                 // kernel/block/mas_blk_dump.c:467:3
	tst	x8, #0x8
	.loc	4 466 2                 // kernel/block/mas_blk_dump.c:466:2
	adrp	x2, .L.str.41
	.loc	4 467 3                 // kernel/block/mas_blk_dump.c:467:3
	csel	x3, x25, x24, eq
	.loc	4 466 2                 // kernel/block/mas_blk_dump.c:466:2
	add	x2, x2, :lo12:.L.str.41
	add	x0, sp, #32             // =32
	orr	w1, wzr, #0x200
.Ltmp349:
	.loc	4 601 53                // kernel/block/mas_blk_dump.c:601:53
	add	x22, x19, w26, sxtw
	.loc	4 601 67 is_stmt 0      // kernel/block/mas_blk_dump.c:601:67
	sub	w27, w21, w26
.Ltmp350:
	//DEBUG_VALUE: mas_blk_lld_dump_fgio_busyidle:offset <- 0
	//DEBUG_VALUE: mas_blk_lld_dump_fgio_busyidle:lld <- $x20
	//DEBUG_VALUE: mas_blk_lld_dump_fgio_busyidle:len <- $w27
	//DEBUG_VALUE: mas_blk_lld_dump_fgio_busyidle:buf <- $x22
	.loc	4 466 2 is_stmt 1       // kernel/block/mas_blk_dump.c:466:2
	bl	snprintf
.Ltmp351:
	//DEBUG_VALUE: __mas_blk_dump_printf:offset <- 0
	//DEBUG_VALUE: __mas_blk_dump_printf:len <- $w27
	//DEBUG_VALUE: __mas_blk_dump_printf:buf <- $x22
	.loc	4 310 10                // kernel/block/mas_blk_dump.c:310:10
	cmp	w27, #1                 // =1
	b.lt	.LBB4_35
.Ltmp352:
// %bb.33:
	//DEBUG_VALUE: __mas_blk_dump_printf:buf <- $x22
	//DEBUG_VALUE: __mas_blk_dump_printf:len <- $w27
	//DEBUG_VALUE: mas_blk_lld_dump_fgio_busyidle:buf <- $x22
	//DEBUG_VALUE: mas_blk_lld_dump_fgio_busyidle:len <- $w27
	//DEBUG_VALUE: mas_blk_lld_dump_fgio_busyidle:lld <- $x20
	//DEBUG_VALUE: mas_blk_dump_lld_status:offset <- $w26
	cbz	x22, .LBB4_35
.Ltmp353:
// %bb.34:
	//DEBUG_VALUE: __mas_blk_dump_printf:buf <- $x22
	//DEBUG_VALUE: __mas_blk_dump_printf:len <- $w27
	//DEBUG_VALUE: mas_blk_lld_dump_fgio_busyidle:buf <- $x22
	//DEBUG_VALUE: mas_blk_lld_dump_fgio_busyidle:len <- $w27
	//DEBUG_VALUE: mas_blk_lld_dump_fgio_busyidle:lld <- $x20
	//DEBUG_VALUE: mas_blk_dump_lld_status:offset <- $w26
	.loc	4 311 13                // kernel/block/mas_blk_dump.c:311:13
	adrp	x2, .L.str.25
	.loc	4 311 27 is_stmt 0      // kernel/block/mas_blk_dump.c:311:27
	sxtw	x1, w27
	.loc	4 311 13                // kernel/block/mas_blk_dump.c:311:13
	add	x2, x2, :lo12:.L.str.25
	add	x3, sp, #32             // =32
	mov	x0, x22
	bl	snprintf
	mov	w23, w0
.Ltmp354:
	//DEBUG_VALUE: __mas_blk_dump_printf:offset <- $w23
	.loc	4 0 13                  // kernel/block/mas_blk_dump.c:0:13
	b	.LBB4_36
.Ltmp355:
.LBB4_35:
	//DEBUG_VALUE: __mas_blk_dump_printf:buf <- $x22
	//DEBUG_VALUE: __mas_blk_dump_printf:len <- $w27
	//DEBUG_VALUE: mas_blk_lld_dump_fgio_busyidle:buf <- $x22
	//DEBUG_VALUE: mas_blk_lld_dump_fgio_busyidle:len <- $w27
	//DEBUG_VALUE: mas_blk_lld_dump_fgio_busyidle:lld <- $x20
	//DEBUG_VALUE: mas_blk_dump_lld_status:offset <- $w26
	.loc	4 313 3 is_stmt 1       // kernel/block/mas_blk_dump.c:313:3
	adrp	x0, .L.str.26
	add	x0, x0, :lo12:.L.str.26
	add	x1, sp, #32             // =32
	bl	printk
.Ltmp356:
	.loc	4 0 0 is_stmt 0         // kernel/block/mas_blk_dump.c:0:0
	mov	w23, wzr
.Ltmp357:
.LBB4_36:
	//DEBUG_VALUE: __mas_blk_dump_printf:buf <- $x22
	//DEBUG_VALUE: __mas_blk_dump_printf:len <- $w27
	//DEBUG_VALUE: mas_blk_lld_dump_fgio_busyidle:buf <- $x22
	//DEBUG_VALUE: mas_blk_lld_dump_fgio_busyidle:len <- $w27
	//DEBUG_VALUE: mas_blk_lld_dump_fgio_busyidle:lld <- $x20
	//DEBUG_VALUE: mas_blk_dump_lld_status:offset <- $w26
	//DEBUG_VALUE: mas_blk_lld_dump_fgio_busyidle:offset <- $w23
	//DEBUG_VALUE: __mas_blk_dump_printf:offset <- $w23
	.loc	4 471 24 is_stmt 1      // kernel/block/mas_blk_dump.c:471:24
	ldr	w8, [x20, #1496]
	.loc	4 471 2 is_stmt 0       // kernel/block/mas_blk_dump.c:471:2
	cmp	w8, #1                  // =1
	b.eq	.LBB4_39
.Ltmp358:
// %bb.37:
	//DEBUG_VALUE: mas_blk_lld_dump_fgio_busyidle:offset <- $w23
	//DEBUG_VALUE: mas_blk_lld_dump_fgio_busyidle:buf <- $x22
	//DEBUG_VALUE: mas_blk_lld_dump_fgio_busyidle:len <- $w27
	//DEBUG_VALUE: mas_blk_lld_dump_fgio_busyidle:lld <- $x20
	//DEBUG_VALUE: mas_blk_dump_lld_status:offset <- $w26
	cbnz	w8, .LBB4_49
.Ltmp359:
// %bb.38:
	//DEBUG_VALUE: mas_blk_lld_dump_fgio_busyidle:offset <- $w23
	//DEBUG_VALUE: mas_blk_lld_dump_fgio_busyidle:buf <- $x22
	//DEBUG_VALUE: mas_blk_lld_dump_fgio_busyidle:len <- $w27
	//DEBUG_VALUE: mas_blk_lld_dump_fgio_busyidle:lld <- $x20
	//DEBUG_VALUE: mas_blk_dump_lld_status:offset <- $w26
	.loc	4 473 3 is_stmt 1       // kernel/block/mas_blk_dump.c:473:3
	adrp	x8, .L.str.42
	add	x8, x8, :lo12:.L.str.42
	b	.LBB4_40
.Ltmp360:
.LBB4_39:
	//DEBUG_VALUE: mas_blk_lld_dump_fgio_busyidle:offset <- $w23
	//DEBUG_VALUE: mas_blk_lld_dump_fgio_busyidle:buf <- $x22
	//DEBUG_VALUE: mas_blk_lld_dump_fgio_busyidle:len <- $w27
	//DEBUG_VALUE: mas_blk_lld_dump_fgio_busyidle:lld <- $x20
	//DEBUG_VALUE: mas_blk_dump_lld_status:offset <- $w26
	.loc	4 476 3                 // kernel/block/mas_blk_dump.c:476:3
	adrp	x8, .L.str.43
	add	x8, x8, :lo12:.L.str.43
.Ltmp361:
.LBB4_40:
	//DEBUG_VALUE: mas_blk_lld_dump_fgio_busyidle:offset <- $w23
	//DEBUG_VALUE: mas_blk_lld_dump_fgio_busyidle:buf <- $x22
	//DEBUG_VALUE: mas_blk_lld_dump_fgio_busyidle:len <- $w27
	//DEBUG_VALUE: mas_blk_lld_dump_fgio_busyidle:lld <- $x20
	//DEBUG_VALUE: mas_blk_dump_lld_status:offset <- $w26
	.loc	4 0 0 is_stmt 0         // kernel/block/mas_blk_dump.c:0:0
	ldp	x8, x9, [x8]
	strb	wzr, [sp, #48]
	stp	x8, x9, [sp, #32]
.Ltmp362:
	.loc	4 481 52 is_stmt 1      // kernel/block/mas_blk_dump.c:481:52
	sub	w8, w27, w23
.Ltmp363:
	//DEBUG_VALUE: __mas_blk_dump_printf:offset <- 0
	//DEBUG_VALUE: __mas_blk_dump_printf:len <- $w8
	.loc	4 310 10                // kernel/block/mas_blk_dump.c:310:10
	cmp	w8, #1                  // =1
	b.lt	.LBB4_43
.Ltmp364:
// %bb.41:
	//DEBUG_VALUE: __mas_blk_dump_printf:len <- $w8
	//DEBUG_VALUE: mas_blk_lld_dump_fgio_busyidle:offset <- $w23
	//DEBUG_VALUE: mas_blk_lld_dump_fgio_busyidle:buf <- $x22
	//DEBUG_VALUE: mas_blk_lld_dump_fgio_busyidle:len <- $w27
	//DEBUG_VALUE: mas_blk_lld_dump_fgio_busyidle:lld <- $x20
	//DEBUG_VALUE: mas_blk_dump_lld_status:offset <- $w26
	.loc	4 0 0 is_stmt 0         // kernel/block/mas_blk_dump.c:0:0
	add	x0, x22, w23, sxtw
.Ltmp365:
	//DEBUG_VALUE: __mas_blk_dump_printf:buf <- $x0
	.loc	4 310 10                // kernel/block/mas_blk_dump.c:310:10
	cbz	x0, .LBB4_43
.Ltmp366:
// %bb.42:
	//DEBUG_VALUE: __mas_blk_dump_printf:buf <- $x0
	//DEBUG_VALUE: __mas_blk_dump_printf:len <- $w8
	//DEBUG_VALUE: mas_blk_lld_dump_fgio_busyidle:offset <- $w23
	//DEBUG_VALUE: mas_blk_lld_dump_fgio_busyidle:buf <- $x22
	//DEBUG_VALUE: mas_blk_lld_dump_fgio_busyidle:len <- $w27
	//DEBUG_VALUE: mas_blk_lld_dump_fgio_busyidle:lld <- $x20
	//DEBUG_VALUE: mas_blk_dump_lld_status:offset <- $w26
	.loc	4 311 13 is_stmt 1      // kernel/block/mas_blk_dump.c:311:13
	adrp	x2, .L.str.25
	.loc	4 311 27 is_stmt 0      // kernel/block/mas_blk_dump.c:311:27
	sxtw	x1, w8
	.loc	4 311 13                // kernel/block/mas_blk_dump.c:311:13
	add	x2, x2, :lo12:.L.str.25
	add	x3, sp, #32             // =32
	bl	snprintf
.Ltmp367:
	//DEBUG_VALUE: __mas_blk_dump_printf:offset <- $w0
	.loc	4 0 13                  // kernel/block/mas_blk_dump.c:0:13
	b	.LBB4_44
.Ltmp368:
.LBB4_43:
	//DEBUG_VALUE: __mas_blk_dump_printf:len <- $w8
	//DEBUG_VALUE: mas_blk_lld_dump_fgio_busyidle:offset <- $w23
	//DEBUG_VALUE: mas_blk_lld_dump_fgio_busyidle:buf <- $x22
	//DEBUG_VALUE: mas_blk_lld_dump_fgio_busyidle:len <- $w27
	//DEBUG_VALUE: mas_blk_lld_dump_fgio_busyidle:lld <- $x20
	//DEBUG_VALUE: mas_blk_dump_lld_status:offset <- $w26
	.loc	4 313 3 is_stmt 1       // kernel/block/mas_blk_dump.c:313:3
	adrp	x0, .L.str.26
	add	x0, x0, :lo12:.L.str.26
	add	x1, sp, #32             // =32
	bl	printk
.Ltmp369:
	.loc	4 0 0 is_stmt 0         // kernel/block/mas_blk_dump.c:0:0
	mov	w0, wzr
.Ltmp370:
.LBB4_44:
	//DEBUG_VALUE: mas_blk_lld_dump_fgio_busyidle:offset <- $w23
	//DEBUG_VALUE: mas_blk_lld_dump_fgio_busyidle:buf <- $x22
	//DEBUG_VALUE: mas_blk_lld_dump_fgio_busyidle:len <- $w27
	//DEBUG_VALUE: mas_blk_lld_dump_fgio_busyidle:lld <- $x20
	//DEBUG_VALUE: mas_blk_dump_lld_status:offset <- $w26
	//DEBUG_VALUE: __mas_blk_dump_printf:offset <- $w0
	.loc	131 183 2 is_stmt 1     // kernel/include/linux/compiler.h:183:2
	ldr	w3, [x20, #1428]
.Ltmp371:
	.loc	4 483 2                 // kernel/block/mas_blk_dump.c:483:2
	adrp	x2, .L.str.44
	.loc	4 481 9                 // kernel/block/mas_blk_dump.c:481:9
	add	w23, w0, w23
.Ltmp372:
	//DEBUG_VALUE: __read_once_size:size <- 4
	//DEBUG_VALUE: __read_once_size:res <- undef
	//DEBUG_VALUE: __read_once_size:p <- [DW_OP_plus_uconst 1428, DW_OP_stack_value] $x20
	//DEBUG_VALUE: mas_blk_lld_dump_fgio_busyidle:offset <- $w23
	.loc	4 483 2                 // kernel/block/mas_blk_dump.c:483:2
	add	x2, x2, :lo12:.L.str.44
	add	x0, sp, #32             // =32
.Ltmp373:
	orr	w1, wzr, #0x200
	bl	snprintf
	.loc	4 485 52                // kernel/block/mas_blk_dump.c:485:52
	sub	w8, w27, w23
.Ltmp374:
	//DEBUG_VALUE: __mas_blk_dump_printf:offset <- 0
	//DEBUG_VALUE: __mas_blk_dump_printf:len <- $w8
	.loc	4 310 10                // kernel/block/mas_blk_dump.c:310:10
	cmp	w8, #1                  // =1
	b.lt	.LBB4_47
.Ltmp375:
// %bb.45:
	//DEBUG_VALUE: __mas_blk_dump_printf:len <- $w8
	//DEBUG_VALUE: mas_blk_lld_dump_fgio_busyidle:offset <- $w23
	//DEBUG_VALUE: mas_blk_lld_dump_fgio_busyidle:buf <- $x22
	//DEBUG_VALUE: mas_blk_lld_dump_fgio_busyidle:len <- $w27
	//DEBUG_VALUE: mas_blk_lld_dump_fgio_busyidle:lld <- $x20
	//DEBUG_VALUE: mas_blk_dump_lld_status:offset <- $w26
	.loc	4 0 0 is_stmt 0         // kernel/block/mas_blk_dump.c:0:0
	add	x0, x22, w23, sxtw
.Ltmp376:
	//DEBUG_VALUE: __mas_blk_dump_printf:buf <- $x0
	.loc	4 310 10                // kernel/block/mas_blk_dump.c:310:10
	cbz	x0, .LBB4_47
.Ltmp377:
// %bb.46:
	//DEBUG_VALUE: __mas_blk_dump_printf:buf <- $x0
	//DEBUG_VALUE: __mas_blk_dump_printf:len <- $w8
	//DEBUG_VALUE: mas_blk_lld_dump_fgio_busyidle:offset <- $w23
	//DEBUG_VALUE: mas_blk_lld_dump_fgio_busyidle:buf <- $x22
	//DEBUG_VALUE: mas_blk_lld_dump_fgio_busyidle:len <- $w27
	//DEBUG_VALUE: mas_blk_lld_dump_fgio_busyidle:lld <- $x20
	//DEBUG_VALUE: mas_blk_dump_lld_status:offset <- $w26
	.loc	4 311 13 is_stmt 1      // kernel/block/mas_blk_dump.c:311:13
	adrp	x2, .L.str.25
	.loc	4 311 27 is_stmt 0      // kernel/block/mas_blk_dump.c:311:27
	sxtw	x1, w8
	.loc	4 311 13                // kernel/block/mas_blk_dump.c:311:13
	add	x2, x2, :lo12:.L.str.25
	add	x3, sp, #32             // =32
	bl	snprintf
.Ltmp378:
	//DEBUG_VALUE: __mas_blk_dump_printf:offset <- $w0
	.loc	4 0 13                  // kernel/block/mas_blk_dump.c:0:13
	b	.LBB4_48
.Ltmp379:
.LBB4_47:
	//DEBUG_VALUE: __mas_blk_dump_printf:len <- $w8
	//DEBUG_VALUE: mas_blk_lld_dump_fgio_busyidle:offset <- $w23
	//DEBUG_VALUE: mas_blk_lld_dump_fgio_busyidle:buf <- $x22
	//DEBUG_VALUE: mas_blk_lld_dump_fgio_busyidle:len <- $w27
	//DEBUG_VALUE: mas_blk_lld_dump_fgio_busyidle:lld <- $x20
	//DEBUG_VALUE: mas_blk_dump_lld_status:offset <- $w26
	.loc	4 313 3 is_stmt 1       // kernel/block/mas_blk_dump.c:313:3
	adrp	x0, .L.str.26
	add	x0, x0, :lo12:.L.str.26
	add	x1, sp, #32             // =32
	bl	printk
.Ltmp380:
	.loc	4 0 0 is_stmt 0         // kernel/block/mas_blk_dump.c:0:0
	mov	w0, wzr
.Ltmp381:
.LBB4_48:
	//DEBUG_VALUE: mas_blk_lld_dump_fgio_busyidle:offset <- $w23
	//DEBUG_VALUE: mas_blk_lld_dump_fgio_busyidle:buf <- $x22
	//DEBUG_VALUE: mas_blk_lld_dump_fgio_busyidle:len <- $w27
	//DEBUG_VALUE: mas_blk_lld_dump_fgio_busyidle:lld <- $x20
	//DEBUG_VALUE: mas_blk_dump_lld_status:offset <- $w26
	//DEBUG_VALUE: __mas_blk_dump_printf:offset <- $w0
	.loc	4 485 9 is_stmt 1       // kernel/block/mas_blk_dump.c:485:9
	add	w23, w0, w23
.Ltmp382:
	//DEBUG_VALUE: mas_blk_lld_dump_fgio_busyidle:offset <- $w23
.LBB4_49:
	//DEBUG_VALUE: mas_blk_dump_lld_status:offset <- $w26
	.loc	4 601 10                // kernel/block/mas_blk_dump.c:601:10
	add	w26, w23, w26
.Ltmp383:
	//DEBUG_VALUE: mas_blk_dump_lld_status:offset <- $w26
.LBB4_50:
	//DEBUG_VALUE: mas_blk_dump_lld_status:offset <- $w26
	//DEBUG_VALUE: mas_blk_dump_lld_status:offset <- $w26
	.loc	4 417 2                 // kernel/block/mas_blk_dump.c:417:2
	adrp	x8, .L.str.45
	add	x8, x8, :lo12:.L.str.45
	ldp	x9, x8, [x8]
.Ltmp384:
	.loc	4 604 26                // kernel/block/mas_blk_dump.c:604:26
	sub	w27, w21, w26
.Ltmp385:
	//DEBUG_VALUE: mas_blk_lld_dump_ioscheduler:offset <- 0
	//DEBUG_VALUE: mas_blk_lld_dump_ioscheduler:lld <- $x20
	//DEBUG_VALUE: mas_blk_lld_dump_ioscheduler:len <- $w27
	//DEBUG_VALUE: __mas_blk_dump_printf:len <- $w27
	//DEBUG_VALUE: mas_blk_lld_dump_ioscheduler:buf <- $x23
	//DEBUG_VALUE: __mas_blk_dump_printf:buf <- $x23
	.loc	4 604 12 is_stmt 0      // kernel/block/mas_blk_dump.c:604:12
	add	x23, x19, w26, sxtw
.Ltmp386:
	.loc	4 310 10 is_stmt 1      // kernel/block/mas_blk_dump.c:310:10
	cmp	w27, #1                 // =1
.Ltmp387:
	.loc	4 417 2                 // kernel/block/mas_blk_dump.c:417:2
	stp	x9, x8, [sp, #32]
.Ltmp388:
	//DEBUG_VALUE: __mas_blk_dump_printf:offset <- 0
	//DEBUG_VALUE: __mas_blk_dump_printf:buf <- $x23
	//DEBUG_VALUE: __mas_blk_dump_printf:len <- $w27
	.loc	4 310 10                // kernel/block/mas_blk_dump.c:310:10
	b.lt	.LBB4_54
.Ltmp389:
// %bb.51:
	//DEBUG_VALUE: __mas_blk_dump_printf:buf <- $x23
	//DEBUG_VALUE: __mas_blk_dump_printf:len <- $w27
	//DEBUG_VALUE: mas_blk_lld_dump_ioscheduler:len <- $w27
	//DEBUG_VALUE: mas_blk_lld_dump_ioscheduler:lld <- $x20
	//DEBUG_VALUE: mas_blk_dump_lld_status:offset <- $w26
	cbz	x23, .LBB4_54
.Ltmp390:
// %bb.52:
	//DEBUG_VALUE: __mas_blk_dump_printf:buf <- $x23
	//DEBUG_VALUE: __mas_blk_dump_printf:len <- $w27
	//DEBUG_VALUE: mas_blk_lld_dump_ioscheduler:len <- $w27
	//DEBUG_VALUE: mas_blk_lld_dump_ioscheduler:lld <- $x20
	//DEBUG_VALUE: mas_blk_dump_lld_status:offset <- $w26
	.loc	4 311 13                // kernel/block/mas_blk_dump.c:311:13
	adrp	x2, .L.str.25
	.loc	4 311 27 is_stmt 0      // kernel/block/mas_blk_dump.c:311:27
	sxtw	x1, w27
	.loc	4 311 13                // kernel/block/mas_blk_dump.c:311:13
	add	x2, x2, :lo12:.L.str.25
	add	x3, sp, #32             // =32
	mov	x0, x23
	bl	snprintf
	mov	w22, w0
.Ltmp391:
	//DEBUG_VALUE: __mas_blk_dump_printf:offset <- $w22
	//DEBUG_VALUE: mas_blk_lld_dump_ioscheduler:offset <- $w22
	//DEBUG_VALUE: __mas_blk_dump_printf:offset <- $w22
	.loc	4 420 6 is_stmt 1       // kernel/block/mas_blk_dump.c:420:6
	ldrb	w8, [x20, #24]
	tbz	w8, #4, .LBB4_55
.Ltmp392:
.LBB4_53:
	//DEBUG_VALUE: mas_blk_lld_dump_ioscheduler:offset <- $w22
	//DEBUG_VALUE: __mas_blk_dump_printf:offset <- $w22
	//DEBUG_VALUE: __mas_blk_dump_printf:buf <- $x23
	//DEBUG_VALUE: __mas_blk_dump_printf:len <- $w27
	//DEBUG_VALUE: mas_blk_lld_dump_ioscheduler:len <- $w27
	//DEBUG_VALUE: mas_blk_lld_dump_ioscheduler:lld <- $x20
	//DEBUG_VALUE: mas_blk_dump_lld_status:offset <- $w26
	.loc	4 0 6 is_stmt 0         // kernel/block/mas_blk_dump.c:0:6
	mov	x8, #16717
	movk	x8, #8275, lsl #16
	movk	x8, #20813, lsl #32
	movk	x8, #10, lsl #48
	b	.LBB4_56
.Ltmp393:
.LBB4_54:
	//DEBUG_VALUE: __mas_blk_dump_printf:buf <- $x23
	//DEBUG_VALUE: __mas_blk_dump_printf:len <- $w27
	//DEBUG_VALUE: mas_blk_lld_dump_ioscheduler:len <- $w27
	//DEBUG_VALUE: mas_blk_lld_dump_ioscheduler:lld <- $x20
	//DEBUG_VALUE: mas_blk_dump_lld_status:offset <- $w26
	.loc	4 313 3 is_stmt 1       // kernel/block/mas_blk_dump.c:313:3
	adrp	x0, .L.str.26
	add	x0, x0, :lo12:.L.str.26
	add	x1, sp, #32             // =32
	bl	printk
.Ltmp394:
	.loc	4 0 0 is_stmt 0         // kernel/block/mas_blk_dump.c:0:0
	mov	w22, wzr
.Ltmp395:
	//DEBUG_VALUE: mas_blk_lld_dump_ioscheduler:offset <- $w22
	//DEBUG_VALUE: __mas_blk_dump_printf:offset <- $w22
	.loc	4 420 6 is_stmt 1       // kernel/block/mas_blk_dump.c:420:6
	ldrb	w8, [x20, #24]
	tbnz	w8, #4, .LBB4_53
.Ltmp396:
.LBB4_55:
	//DEBUG_VALUE: mas_blk_lld_dump_ioscheduler:offset <- $w22
	//DEBUG_VALUE: mas_blk_lld_dump_ioscheduler:len <- $w27
	//DEBUG_VALUE: mas_blk_lld_dump_ioscheduler:lld <- $x20
	//DEBUG_VALUE: mas_blk_dump_lld_status:offset <- $w26
	.loc	4 423 3                 // kernel/block/mas_blk_dump.c:423:3
	adrp	x8, .L.str.47
	add	x8, x8, :lo12:.L.str.47
	ldp	x8, x9, [x8]
	mov	w10, #29285
	movk	w10, #10, lsl #16
	stur	w10, [sp, #47]
	str	x9, [sp, #40]
.Ltmp397:
.LBB4_56:
	//DEBUG_VALUE: mas_blk_lld_dump_ioscheduler:offset <- $w22
	//DEBUG_VALUE: mas_blk_lld_dump_ioscheduler:len <- $w27
	//DEBUG_VALUE: mas_blk_lld_dump_ioscheduler:lld <- $x20
	//DEBUG_VALUE: mas_blk_dump_lld_status:offset <- $w26
	.loc	4 0 0 is_stmt 0         // kernel/block/mas_blk_dump.c:0:0
	str	x8, [sp, #32]
.Ltmp398:
	.loc	4 424 52 is_stmt 1      // kernel/block/mas_blk_dump.c:424:52
	sub	w8, w27, w22
.Ltmp399:
	//DEBUG_VALUE: __mas_blk_dump_printf:offset <- 0
	//DEBUG_VALUE: __mas_blk_dump_printf:len <- $w8
	.loc	4 310 10                // kernel/block/mas_blk_dump.c:310:10
	cmp	w8, #1                  // =1
	b.lt	.LBB4_59
.Ltmp400:
// %bb.57:
	//DEBUG_VALUE: __mas_blk_dump_printf:len <- $w8
	//DEBUG_VALUE: mas_blk_lld_dump_ioscheduler:offset <- $w22
	//DEBUG_VALUE: mas_blk_lld_dump_ioscheduler:len <- $w27
	//DEBUG_VALUE: mas_blk_lld_dump_ioscheduler:lld <- $x20
	//DEBUG_VALUE: mas_blk_dump_lld_status:offset <- $w26
	.loc	4 0 0 is_stmt 0         // kernel/block/mas_blk_dump.c:0:0
	add	x0, x23, w22, sxtw
.Ltmp401:
	//DEBUG_VALUE: __mas_blk_dump_printf:buf <- $x0
	.loc	4 310 10                // kernel/block/mas_blk_dump.c:310:10
	cbz	x0, .LBB4_59
.Ltmp402:
// %bb.58:
	//DEBUG_VALUE: __mas_blk_dump_printf:buf <- $x0
	//DEBUG_VALUE: __mas_blk_dump_printf:len <- $w8
	//DEBUG_VALUE: mas_blk_lld_dump_ioscheduler:offset <- $w22
	//DEBUG_VALUE: mas_blk_lld_dump_ioscheduler:len <- $w27
	//DEBUG_VALUE: mas_blk_lld_dump_ioscheduler:lld <- $x20
	//DEBUG_VALUE: mas_blk_dump_lld_status:offset <- $w26
	.loc	4 311 13 is_stmt 1      // kernel/block/mas_blk_dump.c:311:13
	adrp	x2, .L.str.25
	.loc	4 311 27 is_stmt 0      // kernel/block/mas_blk_dump.c:311:27
	sxtw	x1, w8
	.loc	4 311 13                // kernel/block/mas_blk_dump.c:311:13
	add	x2, x2, :lo12:.L.str.25
	add	x3, sp, #32             // =32
	bl	snprintf
.Ltmp403:
	//DEBUG_VALUE: __mas_blk_dump_printf:offset <- $w0
	.loc	4 0 13                  // kernel/block/mas_blk_dump.c:0:13
	b	.LBB4_60
.Ltmp404:
.LBB4_59:
	//DEBUG_VALUE: __mas_blk_dump_printf:len <- $w8
	//DEBUG_VALUE: mas_blk_lld_dump_ioscheduler:offset <- $w22
	//DEBUG_VALUE: mas_blk_lld_dump_ioscheduler:len <- $w27
	//DEBUG_VALUE: mas_blk_lld_dump_ioscheduler:lld <- $x20
	//DEBUG_VALUE: mas_blk_dump_lld_status:offset <- $w26
	.loc	4 313 3 is_stmt 1       // kernel/block/mas_blk_dump.c:313:3
	adrp	x0, .L.str.26
	add	x0, x0, :lo12:.L.str.26
	add	x1, sp, #32             // =32
	bl	printk
.Ltmp405:
	.loc	4 0 0 is_stmt 0         // kernel/block/mas_blk_dump.c:0:0
	mov	w0, wzr
.Ltmp406:
.LBB4_60:
	//DEBUG_VALUE: mas_blk_lld_dump_ioscheduler:offset <- $w22
	//DEBUG_VALUE: mas_blk_lld_dump_ioscheduler:len <- $w27
	//DEBUG_VALUE: mas_blk_lld_dump_ioscheduler:lld <- $x20
	//DEBUG_VALUE: mas_blk_dump_lld_status:offset <- $w26
	//DEBUG_VALUE: mas_blk_lld_dump_ioscheduler:offset <- undef
	//DEBUG_VALUE: __mas_blk_dump_printf:offset <- $w0
	.loc	4 549 10 is_stmt 1      // kernel/block/mas_blk_dump.c:549:10
	ldr	x9, [x20, #24]
.Ltmp407:
	.loc	4 424 9                 // kernel/block/mas_blk_dump.c:424:9
	add	w8, w22, w26
.Ltmp408:
	.loc	4 548 2                 // kernel/block/mas_blk_dump.c:548:2
	adrp	x2, .L.str.29
.Ltmp409:
	.loc	4 603 9                 // kernel/block/mas_blk_dump.c:603:9
	add	w23, w8, w0
.Ltmp410:
	//DEBUG_VALUE: mas_blk_dump_lld_status:offset <- $w23
	.loc	4 549 4                 // kernel/block/mas_blk_dump.c:549:4
	tst	x9, #0x4
	csel	x3, x25, x24, eq
	.loc	4 548 2                 // kernel/block/mas_blk_dump.c:548:2
	add	x2, x2, :lo12:.L.str.29
	add	x0, sp, #32             // =32
.Ltmp411:
	orr	w1, wzr, #0x200
.Ltmp412:
	.loc	4 606 12                // kernel/block/mas_blk_dump.c:606:12
	add	x22, x19, w23, sxtw
	.loc	4 606 26 is_stmt 0      // kernel/block/mas_blk_dump.c:606:26
	sub	w26, w21, w23
.Ltmp413:
	//DEBUG_VALUE: mas_blk_lld_dump_opt_feature:offset <- 0
	//DEBUG_VALUE: mas_blk_lld_dump_opt_feature:lld <- $x20
	//DEBUG_VALUE: mas_blk_lld_dump_opt_feature:len <- $w26
	//DEBUG_VALUE: mas_blk_lld_dump_opt_feature:buf <- $x22
	.loc	4 548 2 is_stmt 1       // kernel/block/mas_blk_dump.c:548:2
	bl	snprintf
.Ltmp414:
	//DEBUG_VALUE: __mas_blk_dump_printf:offset <- 0
	//DEBUG_VALUE: __mas_blk_dump_printf:len <- $w26
	//DEBUG_VALUE: __mas_blk_dump_printf:buf <- $x22
	.loc	4 310 10                // kernel/block/mas_blk_dump.c:310:10
	cmp	w26, #1                 // =1
	b.lt	.LBB4_63
.Ltmp415:
// %bb.61:
	//DEBUG_VALUE: __mas_blk_dump_printf:buf <- $x22
	//DEBUG_VALUE: __mas_blk_dump_printf:len <- $w26
	//DEBUG_VALUE: mas_blk_lld_dump_opt_feature:buf <- $x22
	//DEBUG_VALUE: mas_blk_lld_dump_opt_feature:len <- $w26
	//DEBUG_VALUE: mas_blk_lld_dump_opt_feature:lld <- $x20
	//DEBUG_VALUE: mas_blk_dump_lld_status:offset <- $w23
	cbz	x22, .LBB4_63
.Ltmp416:
// %bb.62:
	//DEBUG_VALUE: __mas_blk_dump_printf:buf <- $x22
	//DEBUG_VALUE: __mas_blk_dump_printf:len <- $w26
	//DEBUG_VALUE: mas_blk_lld_dump_opt_feature:buf <- $x22
	//DEBUG_VALUE: mas_blk_lld_dump_opt_feature:len <- $w26
	//DEBUG_VALUE: mas_blk_lld_dump_opt_feature:lld <- $x20
	//DEBUG_VALUE: mas_blk_dump_lld_status:offset <- $w23
	.loc	4 311 13                // kernel/block/mas_blk_dump.c:311:13
	adrp	x2, .L.str.25
	.loc	4 311 27 is_stmt 0      // kernel/block/mas_blk_dump.c:311:27
	sxtw	x1, w26
	.loc	4 311 13                // kernel/block/mas_blk_dump.c:311:13
	add	x2, x2, :lo12:.L.str.25
	add	x3, sp, #32             // =32
	mov	x0, x22
	bl	snprintf
	mov	w21, w0
.Ltmp417:
	//DEBUG_VALUE: __mas_blk_dump_printf:offset <- $w21
	.loc	4 0 13                  // kernel/block/mas_blk_dump.c:0:13
	b	.LBB4_64
.Ltmp418:
.LBB4_63:
	//DEBUG_VALUE: __mas_blk_dump_printf:buf <- $x22
	//DEBUG_VALUE: __mas_blk_dump_printf:len <- $w26
	//DEBUG_VALUE: mas_blk_lld_dump_opt_feature:buf <- $x22
	//DEBUG_VALUE: mas_blk_lld_dump_opt_feature:len <- $w26
	//DEBUG_VALUE: mas_blk_lld_dump_opt_feature:lld <- $x20
	//DEBUG_VALUE: mas_blk_dump_lld_status:offset <- $w23
	.loc	4 313 3 is_stmt 1       // kernel/block/mas_blk_dump.c:313:3
	adrp	x0, .L.str.26
	add	x0, x0, :lo12:.L.str.26
	add	x1, sp, #32             // =32
	bl	printk
.Ltmp419:
	.loc	4 0 0 is_stmt 0         // kernel/block/mas_blk_dump.c:0:0
	mov	w21, wzr
.Ltmp420:
.LBB4_64:
	//DEBUG_VALUE: __mas_blk_dump_printf:buf <- $x22
	//DEBUG_VALUE: __mas_blk_dump_printf:len <- $w26
	//DEBUG_VALUE: mas_blk_lld_dump_opt_feature:buf <- $x22
	//DEBUG_VALUE: mas_blk_lld_dump_opt_feature:len <- $w26
	//DEBUG_VALUE: mas_blk_lld_dump_opt_feature:lld <- $x20
	//DEBUG_VALUE: mas_blk_dump_lld_status:offset <- $w23
	//DEBUG_VALUE: mas_blk_lld_dump_opt_feature:offset <- $w21
	//DEBUG_VALUE: __mas_blk_dump_printf:offset <- $w21
	.loc	4 554 9 is_stmt 1       // kernel/block/mas_blk_dump.c:554:9
	ldr	x8, [x20, #24]
	.loc	4 553 2                 // kernel/block/mas_blk_dump.c:553:2
	adrp	x2, .L.str.48
	add	x2, x2, :lo12:.L.str.48
	add	x0, sp, #32             // =32
	.loc	4 554 3                 // kernel/block/mas_blk_dump.c:554:3
	tst	x8, #0x40
	csel	x3, x25, x24, eq
	.loc	4 553 2                 // kernel/block/mas_blk_dump.c:553:2
	orr	w1, wzr, #0x200
	bl	snprintf
	.loc	4 555 52                // kernel/block/mas_blk_dump.c:555:52
	sub	w8, w26, w21
.Ltmp421:
	//DEBUG_VALUE: __mas_blk_dump_printf:offset <- 0
	//DEBUG_VALUE: __mas_blk_dump_printf:len <- $w8
	.loc	4 310 10                // kernel/block/mas_blk_dump.c:310:10
	cmp	w8, #1                  // =1
	b.lt	.LBB4_67
.Ltmp422:
// %bb.65:
	//DEBUG_VALUE: __mas_blk_dump_printf:len <- $w8
	//DEBUG_VALUE: mas_blk_lld_dump_opt_feature:offset <- $w21
	//DEBUG_VALUE: mas_blk_lld_dump_opt_feature:buf <- $x22
	//DEBUG_VALUE: mas_blk_lld_dump_opt_feature:len <- $w26
	//DEBUG_VALUE: mas_blk_lld_dump_opt_feature:lld <- $x20
	//DEBUG_VALUE: mas_blk_dump_lld_status:offset <- $w23
	.loc	4 0 0 is_stmt 0         // kernel/block/mas_blk_dump.c:0:0
	add	x0, x22, w21, sxtw
.Ltmp423:
	//DEBUG_VALUE: __mas_blk_dump_printf:buf <- $x0
	.loc	4 310 10                // kernel/block/mas_blk_dump.c:310:10
	cbz	x0, .LBB4_67
.Ltmp424:
// %bb.66:
	//DEBUG_VALUE: __mas_blk_dump_printf:buf <- $x0
	//DEBUG_VALUE: __mas_blk_dump_printf:len <- $w8
	//DEBUG_VALUE: mas_blk_lld_dump_opt_feature:offset <- $w21
	//DEBUG_VALUE: mas_blk_lld_dump_opt_feature:buf <- $x22
	//DEBUG_VALUE: mas_blk_lld_dump_opt_feature:len <- $w26
	//DEBUG_VALUE: mas_blk_lld_dump_opt_feature:lld <- $x20
	//DEBUG_VALUE: mas_blk_dump_lld_status:offset <- $w23
	.loc	4 311 13 is_stmt 1      // kernel/block/mas_blk_dump.c:311:13
	adrp	x2, .L.str.25
	.loc	4 311 27 is_stmt 0      // kernel/block/mas_blk_dump.c:311:27
	sxtw	x1, w8
	.loc	4 311 13                // kernel/block/mas_blk_dump.c:311:13
	add	x2, x2, :lo12:.L.str.25
	add	x3, sp, #32             // =32
	bl	snprintf
.Ltmp425:
	//DEBUG_VALUE: __mas_blk_dump_printf:offset <- $w0
	.loc	4 0 13                  // kernel/block/mas_blk_dump.c:0:13
	b	.LBB4_68
.Ltmp426:
.LBB4_67:
	//DEBUG_VALUE: __mas_blk_dump_printf:len <- $w8
	//DEBUG_VALUE: mas_blk_lld_dump_opt_feature:offset <- $w21
	//DEBUG_VALUE: mas_blk_lld_dump_opt_feature:buf <- $x22
	//DEBUG_VALUE: mas_blk_lld_dump_opt_feature:len <- $w26
	//DEBUG_VALUE: mas_blk_lld_dump_opt_feature:lld <- $x20
	//DEBUG_VALUE: mas_blk_dump_lld_status:offset <- $w23
	.loc	4 313 3 is_stmt 1       // kernel/block/mas_blk_dump.c:313:3
	adrp	x0, .L.str.26
	add	x0, x0, :lo12:.L.str.26
	add	x1, sp, #32             // =32
	bl	printk
.Ltmp427:
	.loc	4 0 0 is_stmt 0         // kernel/block/mas_blk_dump.c:0:0
	mov	w0, wzr
.Ltmp428:
.LBB4_68:
	//DEBUG_VALUE: mas_blk_lld_dump_opt_feature:offset <- $w21
	//DEBUG_VALUE: mas_blk_lld_dump_opt_feature:buf <- $x22
	//DEBUG_VALUE: mas_blk_lld_dump_opt_feature:len <- $w26
	//DEBUG_VALUE: mas_blk_lld_dump_opt_feature:lld <- $x20
	//DEBUG_VALUE: mas_blk_dump_lld_status:offset <- $w23
	//DEBUG_VALUE: __mas_blk_dump_printf:offset <- $w0
	.loc	4 558 9 is_stmt 1       // kernel/block/mas_blk_dump.c:558:9
	ldr	x8, [x20, #24]
	.loc	4 557 2                 // kernel/block/mas_blk_dump.c:557:2
	adrp	x2, .L.str.49
	.loc	4 555 9                 // kernel/block/mas_blk_dump.c:555:9
	add	w21, w0, w21
.Ltmp429:
	//DEBUG_VALUE: mas_blk_lld_dump_opt_feature:offset <- $w21
	.loc	4 557 2                 // kernel/block/mas_blk_dump.c:557:2
	add	x2, x2, :lo12:.L.str.49
	.loc	4 558 3                 // kernel/block/mas_blk_dump.c:558:3
	tst	x8, #0x80
	csel	x3, x25, x24, eq
	.loc	4 557 2                 // kernel/block/mas_blk_dump.c:557:2
	add	x0, sp, #32             // =32
.Ltmp430:
	orr	w1, wzr, #0x200
	bl	snprintf
	.loc	4 559 52                // kernel/block/mas_blk_dump.c:559:52
	sub	w8, w26, w21
.Ltmp431:
	//DEBUG_VALUE: __mas_blk_dump_printf:offset <- 0
	//DEBUG_VALUE: __mas_blk_dump_printf:len <- $w8
	.loc	4 310 10                // kernel/block/mas_blk_dump.c:310:10
	cmp	w8, #1                  // =1
	b.lt	.LBB4_71
.Ltmp432:
// %bb.69:
	//DEBUG_VALUE: __mas_blk_dump_printf:len <- $w8
	//DEBUG_VALUE: mas_blk_lld_dump_opt_feature:offset <- $w21
	//DEBUG_VALUE: mas_blk_lld_dump_opt_feature:buf <- $x22
	//DEBUG_VALUE: mas_blk_lld_dump_opt_feature:len <- $w26
	//DEBUG_VALUE: mas_blk_lld_dump_opt_feature:lld <- $x20
	//DEBUG_VALUE: mas_blk_dump_lld_status:offset <- $w23
	.loc	4 0 0 is_stmt 0         // kernel/block/mas_blk_dump.c:0:0
	add	x0, x22, w21, sxtw
.Ltmp433:
	//DEBUG_VALUE: __mas_blk_dump_printf:buf <- $x0
	.loc	4 310 10                // kernel/block/mas_blk_dump.c:310:10
	cbz	x0, .LBB4_71
.Ltmp434:
// %bb.70:
	//DEBUG_VALUE: __mas_blk_dump_printf:buf <- $x0
	//DEBUG_VALUE: __mas_blk_dump_printf:len <- $w8
	//DEBUG_VALUE: mas_blk_lld_dump_opt_feature:offset <- $w21
	//DEBUG_VALUE: mas_blk_lld_dump_opt_feature:buf <- $x22
	//DEBUG_VALUE: mas_blk_lld_dump_opt_feature:len <- $w26
	//DEBUG_VALUE: mas_blk_lld_dump_opt_feature:lld <- $x20
	//DEBUG_VALUE: mas_blk_dump_lld_status:offset <- $w23
	.loc	4 311 13 is_stmt 1      // kernel/block/mas_blk_dump.c:311:13
	adrp	x2, .L.str.25
	.loc	4 311 27 is_stmt 0      // kernel/block/mas_blk_dump.c:311:27
	sxtw	x1, w8
	.loc	4 311 13                // kernel/block/mas_blk_dump.c:311:13
	add	x2, x2, :lo12:.L.str.25
	add	x3, sp, #32             // =32
	bl	snprintf
.Ltmp435:
	//DEBUG_VALUE: __mas_blk_dump_printf:offset <- $w0
	.loc	4 0 13                  // kernel/block/mas_blk_dump.c:0:13
	b	.LBB4_72
.Ltmp436:
.LBB4_71:
	//DEBUG_VALUE: __mas_blk_dump_printf:len <- $w8
	//DEBUG_VALUE: mas_blk_lld_dump_opt_feature:offset <- $w21
	//DEBUG_VALUE: mas_blk_lld_dump_opt_feature:buf <- $x22
	//DEBUG_VALUE: mas_blk_lld_dump_opt_feature:len <- $w26
	//DEBUG_VALUE: mas_blk_lld_dump_opt_feature:lld <- $x20
	//DEBUG_VALUE: mas_blk_dump_lld_status:offset <- $w23
	.loc	4 313 3 is_stmt 1       // kernel/block/mas_blk_dump.c:313:3
	adrp	x0, .L.str.26
	add	x0, x0, :lo12:.L.str.26
	add	x1, sp, #32             // =32
	bl	printk
.Ltmp437:
	.loc	4 0 0 is_stmt 0         // kernel/block/mas_blk_dump.c:0:0
	mov	w0, wzr
.Ltmp438:
.LBB4_72:
	//DEBUG_VALUE: mas_blk_lld_dump_opt_feature:offset <- $w21
	//DEBUG_VALUE: mas_blk_lld_dump_opt_feature:buf <- $x22
	//DEBUG_VALUE: mas_blk_lld_dump_opt_feature:len <- $w26
	//DEBUG_VALUE: mas_blk_lld_dump_opt_feature:lld <- $x20
	//DEBUG_VALUE: mas_blk_dump_lld_status:offset <- $w23
	//DEBUG_VALUE: __mas_blk_dump_printf:offset <- $w0
	.loc	4 497 6 is_stmt 1       // kernel/block/mas_blk_dump.c:497:6
	ldrb	w8, [x20, #25]
.Ltmp439:
	.loc	4 559 9                 // kernel/block/mas_blk_dump.c:559:9
	add	w24, w0, w21
.Ltmp440:
	//DEBUG_VALUE: mas_blk_lld_dump_opt_feature_unist:offset <- 0
	//DEBUG_VALUE: mas_blk_lld_dump_opt_feature_unist:lld <- $x20
	//DEBUG_VALUE: mas_blk_lld_dump_opt_feature:offset <- $w24
	.loc	4 497 6                 // kernel/block/mas_blk_dump.c:497:6
	tbnz	w8, #0, .LBB4_74
.Ltmp441:
// %bb.73:
	//DEBUG_VALUE: mas_blk_lld_dump_opt_feature:offset <- $w24
	//DEBUG_VALUE: mas_blk_lld_dump_opt_feature_unist:lld <- $x20
	//DEBUG_VALUE: __mas_blk_dump_printf:offset <- $w0
	//DEBUG_VALUE: mas_blk_lld_dump_opt_feature:buf <- $x22
	//DEBUG_VALUE: mas_blk_lld_dump_opt_feature:len <- $w26
	//DEBUG_VALUE: mas_blk_lld_dump_opt_feature:lld <- $x20
	//DEBUG_VALUE: mas_blk_dump_lld_status:offset <- $w23
	.loc	4 0 0 is_stmt 0         // kernel/block/mas_blk_dump.c:0:0
	mov	w8, wzr
	b	.LBB4_93
.Ltmp442:
.LBB4_74:
	//DEBUG_VALUE: mas_blk_lld_dump_opt_feature:offset <- $w24
	//DEBUG_VALUE: mas_blk_lld_dump_opt_feature_unist:lld <- $x20
	//DEBUG_VALUE: mas_blk_lld_dump_opt_feature:buf <- $x22
	//DEBUG_VALUE: mas_blk_lld_dump_opt_feature:len <- $w26
	//DEBUG_VALUE: mas_blk_lld_dump_opt_feature:lld <- $x20
	//DEBUG_VALUE: mas_blk_dump_lld_status:offset <- $w23
	.loc	4 498 13 is_stmt 1      // kernel/block/mas_blk_dump.c:498:13
	ldr	w8, [x20, #216]
.Ltmp443:
	.loc	4 498 7 is_stmt 0       // kernel/block/mas_blk_dump.c:498:7
	cbz	w8, .LBB4_78
.Ltmp444:
// %bb.75:
	//DEBUG_VALUE: mas_blk_lld_dump_opt_feature:offset <- $w24
	//DEBUG_VALUE: mas_blk_lld_dump_opt_feature_unist:lld <- $x20
	//DEBUG_VALUE: mas_blk_lld_dump_opt_feature:buf <- $x22
	//DEBUG_VALUE: mas_blk_lld_dump_opt_feature:len <- $w26
	//DEBUG_VALUE: mas_blk_lld_dump_opt_feature:lld <- $x20
	//DEBUG_VALUE: mas_blk_dump_lld_status:offset <- $w23
	.loc	4 506 48 is_stmt 1      // kernel/block/mas_blk_dump.c:506:48
	ldrb	w8, [x20, #261]
	.loc	4 506 9 is_stmt 0       // kernel/block/mas_blk_dump.c:506:9
	ldr	w4, [x20, #1596]
	.loc	4 506 25                // kernel/block/mas_blk_dump.c:506:25
	ldrb	w5, [x20, #260]
	.loc	4 506 43                // kernel/block/mas_blk_dump.c:506:43
	adrp	x9, .L.str.52
	adrp	x10, .L.str.53
	add	x9, x9, :lo12:.L.str.52
	add	x10, x10, :lo12:.L.str.53
	cmp	w8, #0                  // =0
	.loc	4 503 3 is_stmt 1       // kernel/block/mas_blk_dump.c:503:3
	adrp	x2, .L.str.51
	adrp	x3, .L.str.30
	.loc	4 506 43                // kernel/block/mas_blk_dump.c:506:43
	csel	x6, x10, x9, eq
	.loc	4 503 3                 // kernel/block/mas_blk_dump.c:503:3
	add	x2, x2, :lo12:.L.str.51
	add	x3, x3, :lo12:.L.str.30
	add	x0, sp, #32             // =32
	orr	w1, wzr, #0x200
.Ltmp445:
	.loc	4 0 0 is_stmt 0         // kernel/block/mas_blk_dump.c:0:0
	add	x21, x22, w24, sxtw
	sub	w25, w26, w24
.Ltmp446:
	//DEBUG_VALUE: mas_blk_lld_dump_opt_feature_unist:len <- $w25
	//DEBUG_VALUE: mas_blk_lld_dump_opt_feature_unist:buf <- $x21
	.loc	4 503 3                 // kernel/block/mas_blk_dump.c:503:3
	bl	snprintf
.Ltmp447:
	//DEBUG_VALUE: __mas_blk_dump_printf:offset <- 0
	//DEBUG_VALUE: __mas_blk_dump_printf:len <- $w25
	//DEBUG_VALUE: __mas_blk_dump_printf:buf <- $x21
	.loc	4 310 10 is_stmt 1      // kernel/block/mas_blk_dump.c:310:10
	cmp	w25, #1                 // =1
	b.lt	.LBB4_79
.Ltmp448:
// %bb.76:
	//DEBUG_VALUE: __mas_blk_dump_printf:buf <- $x21
	//DEBUG_VALUE: __mas_blk_dump_printf:len <- $w25
	//DEBUG_VALUE: mas_blk_lld_dump_opt_feature_unist:buf <- $x21
	//DEBUG_VALUE: mas_blk_lld_dump_opt_feature_unist:len <- $w25
	//DEBUG_VALUE: mas_blk_lld_dump_opt_feature:offset <- $w24
	//DEBUG_VALUE: mas_blk_lld_dump_opt_feature_unist:lld <- $x20
	//DEBUG_VALUE: mas_blk_lld_dump_opt_feature:buf <- $x22
	//DEBUG_VALUE: mas_blk_lld_dump_opt_feature:len <- $w26
	//DEBUG_VALUE: mas_blk_lld_dump_opt_feature:lld <- $x20
	//DEBUG_VALUE: mas_blk_dump_lld_status:offset <- $w23
	cbz	x21, .LBB4_79
.Ltmp449:
// %bb.77:
	//DEBUG_VALUE: __mas_blk_dump_printf:buf <- $x21
	//DEBUG_VALUE: __mas_blk_dump_printf:len <- $w25
	//DEBUG_VALUE: mas_blk_lld_dump_opt_feature_unist:buf <- $x21
	//DEBUG_VALUE: mas_blk_lld_dump_opt_feature_unist:len <- $w25
	//DEBUG_VALUE: mas_blk_lld_dump_opt_feature:offset <- $w24
	//DEBUG_VALUE: mas_blk_lld_dump_opt_feature_unist:lld <- $x20
	//DEBUG_VALUE: mas_blk_lld_dump_opt_feature:buf <- $x22
	//DEBUG_VALUE: mas_blk_lld_dump_opt_feature:len <- $w26
	//DEBUG_VALUE: mas_blk_lld_dump_opt_feature:lld <- $x20
	//DEBUG_VALUE: mas_blk_dump_lld_status:offset <- $w23
	.loc	4 311 13                // kernel/block/mas_blk_dump.c:311:13
	adrp	x2, .L.str.25
	.loc	4 311 27 is_stmt 0      // kernel/block/mas_blk_dump.c:311:27
	sxtw	x1, w25
	.loc	4 311 13                // kernel/block/mas_blk_dump.c:311:13
	add	x2, x2, :lo12:.L.str.25
	add	x3, sp, #32             // =32
	mov	x0, x21
	bl	snprintf
	mov	w22, w0
.Ltmp450:
	//DEBUG_VALUE: __mas_blk_dump_printf:offset <- $w22
	.loc	4 0 13                  // kernel/block/mas_blk_dump.c:0:13
	b	.LBB4_80
.Ltmp451:
.LBB4_78:
	//DEBUG_VALUE: mas_blk_lld_dump_opt_feature:offset <- $w24
	//DEBUG_VALUE: mas_blk_lld_dump_opt_feature_unist:lld <- $x20
	//DEBUG_VALUE: mas_blk_lld_dump_opt_feature:buf <- $x22
	//DEBUG_VALUE: mas_blk_lld_dump_opt_feature:len <- $w26
	//DEBUG_VALUE: mas_blk_lld_dump_opt_feature:lld <- $x20
	//DEBUG_VALUE: mas_blk_dump_lld_status:offset <- $w23
	.loc	4 499 4 is_stmt 1       // kernel/block/mas_blk_dump.c:499:4
	adrp	x0, .L.str.50
	adrp	x1, .L__func__.mas_blk_lld_dump_opt_feature_unist
	add	x0, x0, :lo12:.L.str.50
	add	x1, x1, :lo12:.L__func__.mas_blk_lld_dump_opt_feature_unist
	mov	w2, wzr
	bl	printk
.Ltmp452:
	.loc	4 0 0 is_stmt 0         // kernel/block/mas_blk_dump.c:0:0
	mov	w8, wzr
	b	.LBB4_93
.Ltmp453:
.LBB4_79:
	//DEBUG_VALUE: __mas_blk_dump_printf:buf <- $x21
	//DEBUG_VALUE: __mas_blk_dump_printf:len <- $w25
	//DEBUG_VALUE: mas_blk_lld_dump_opt_feature_unist:buf <- $x21
	//DEBUG_VALUE: mas_blk_lld_dump_opt_feature_unist:len <- $w25
	//DEBUG_VALUE: mas_blk_lld_dump_opt_feature:offset <- $w24
	//DEBUG_VALUE: mas_blk_lld_dump_opt_feature_unist:lld <- $x20
	//DEBUG_VALUE: mas_blk_lld_dump_opt_feature:buf <- $x22
	//DEBUG_VALUE: mas_blk_lld_dump_opt_feature:len <- $w26
	//DEBUG_VALUE: mas_blk_lld_dump_opt_feature:lld <- $x20
	//DEBUG_VALUE: mas_blk_dump_lld_status:offset <- $w23
	.loc	4 313 3 is_stmt 1       // kernel/block/mas_blk_dump.c:313:3
	adrp	x0, .L.str.26
	add	x0, x0, :lo12:.L.str.26
	add	x1, sp, #32             // =32
	bl	printk
.Ltmp454:
	.loc	4 0 0 is_stmt 0         // kernel/block/mas_blk_dump.c:0:0
	mov	w22, wzr
.Ltmp455:
.LBB4_80:
	//DEBUG_VALUE: __mas_blk_dump_printf:buf <- $x21
	//DEBUG_VALUE: __mas_blk_dump_printf:len <- $w25
	//DEBUG_VALUE: mas_blk_lld_dump_opt_feature_unist:buf <- $x21
	//DEBUG_VALUE: mas_blk_lld_dump_opt_feature_unist:len <- $w25
	//DEBUG_VALUE: mas_blk_lld_dump_opt_feature:offset <- $w24
	//DEBUG_VALUE: mas_blk_lld_dump_opt_feature_unist:lld <- $x20
	//DEBUG_VALUE: mas_blk_lld_dump_opt_feature:len <- $w26
	//DEBUG_VALUE: mas_blk_lld_dump_opt_feature:lld <- $x20
	//DEBUG_VALUE: mas_blk_dump_lld_status:offset <- $w23
	//DEBUG_VALUE: mas_blk_lld_dump_opt_feature_unist:offset <- $w22
	//DEBUG_VALUE: __mas_blk_dump_printf:offset <- $w22
	.loc	4 511 56 is_stmt 1      // kernel/block/mas_blk_dump.c:511:56
	ldr	w8, [x20, #216]
	.loc	4 511 4 is_stmt 0       // kernel/block/mas_blk_dump.c:511:4
	ldp	x9, x10, [x20, #392]
	.loc	4 515 4 is_stmt 1       // kernel/block/mas_blk_dump.c:515:4
	ldp	x11, x12, [x20, #408]
	.loc	4 509 3                 // kernel/block/mas_blk_dump.c:509:3
	adrp	x2, .L.str.54
	add	x2, x2, :lo12:.L.str.54
	.loc	4 511 48                // kernel/block/mas_blk_dump.c:511:48
	udiv	x3, x9, x8
	.loc	4 513 48                // kernel/block/mas_blk_dump.c:513:48
	udiv	x5, x10, x8
	.loc	4 515 47                // kernel/block/mas_blk_dump.c:515:47
	udiv	x7, x11, x8
	.loc	4 517 47                // kernel/block/mas_blk_dump.c:517:47
	udiv	x13, x12, x8
	msub	x4, x3, x8, x9
	msub	x6, x5, x8, x10
	msub	x9, x7, x8, x11
	msub	x8, x13, x8, x12
	.loc	4 509 3                 // kernel/block/mas_blk_dump.c:509:3
	add	x0, sp, #32             // =32
	orr	w1, wzr, #0x200
	stp	x9, x13, [sp]
	str	x8, [sp, #16]
	bl	snprintf
	.loc	4 519 53                // kernel/block/mas_blk_dump.c:519:53
	sub	w8, w25, w22
.Ltmp456:
	//DEBUG_VALUE: __mas_blk_dump_printf:offset <- 0
	//DEBUG_VALUE: __mas_blk_dump_printf:len <- $w8
	.loc	4 310 10                // kernel/block/mas_blk_dump.c:310:10
	cmp	w8, #1                  // =1
	b.lt	.LBB4_83
.Ltmp457:
// %bb.81:
	//DEBUG_VALUE: __mas_blk_dump_printf:len <- $w8
	//DEBUG_VALUE: mas_blk_lld_dump_opt_feature_unist:offset <- $w22
	//DEBUG_VALUE: mas_blk_lld_dump_opt_feature_unist:buf <- $x21
	//DEBUG_VALUE: mas_blk_lld_dump_opt_feature_unist:len <- $w25
	//DEBUG_VALUE: mas_blk_lld_dump_opt_feature:offset <- $w24
	//DEBUG_VALUE: mas_blk_lld_dump_opt_feature_unist:lld <- $x20
	//DEBUG_VALUE: mas_blk_lld_dump_opt_feature:len <- $w26
	//DEBUG_VALUE: mas_blk_lld_dump_opt_feature:lld <- $x20
	//DEBUG_VALUE: mas_blk_dump_lld_status:offset <- $w23
	.loc	4 0 0 is_stmt 0         // kernel/block/mas_blk_dump.c:0:0
	add	x0, x21, w22, sxtw
.Ltmp458:
	//DEBUG_VALUE: __mas_blk_dump_printf:buf <- $x0
	.loc	4 310 10                // kernel/block/mas_blk_dump.c:310:10
	cbz	x0, .LBB4_83
.Ltmp459:
// %bb.82:
	//DEBUG_VALUE: __mas_blk_dump_printf:buf <- $x0
	//DEBUG_VALUE: __mas_blk_dump_printf:len <- $w8
	//DEBUG_VALUE: mas_blk_lld_dump_opt_feature_unist:offset <- $w22
	//DEBUG_VALUE: mas_blk_lld_dump_opt_feature_unist:buf <- $x21
	//DEBUG_VALUE: mas_blk_lld_dump_opt_feature_unist:len <- $w25
	//DEBUG_VALUE: mas_blk_lld_dump_opt_feature:offset <- $w24
	//DEBUG_VALUE: mas_blk_lld_dump_opt_feature_unist:lld <- $x20
	//DEBUG_VALUE: mas_blk_lld_dump_opt_feature:len <- $w26
	//DEBUG_VALUE: mas_blk_lld_dump_opt_feature:lld <- $x20
	//DEBUG_VALUE: mas_blk_dump_lld_status:offset <- $w23
	.loc	4 311 13 is_stmt 1      // kernel/block/mas_blk_dump.c:311:13
	adrp	x2, .L.str.25
	.loc	4 311 27 is_stmt 0      // kernel/block/mas_blk_dump.c:311:27
	sxtw	x1, w8
	.loc	4 311 13                // kernel/block/mas_blk_dump.c:311:13
	add	x2, x2, :lo12:.L.str.25
	add	x3, sp, #32             // =32
	bl	snprintf
.Ltmp460:
	//DEBUG_VALUE: __mas_blk_dump_printf:offset <- $w0
	.loc	4 0 13                  // kernel/block/mas_blk_dump.c:0:13
	b	.LBB4_84
.Ltmp461:
.LBB4_83:
	//DEBUG_VALUE: __mas_blk_dump_printf:len <- $w8
	//DEBUG_VALUE: mas_blk_lld_dump_opt_feature_unist:offset <- $w22
	//DEBUG_VALUE: mas_blk_lld_dump_opt_feature_unist:buf <- $x21
	//DEBUG_VALUE: mas_blk_lld_dump_opt_feature_unist:len <- $w25
	//DEBUG_VALUE: mas_blk_lld_dump_opt_feature:offset <- $w24
	//DEBUG_VALUE: mas_blk_lld_dump_opt_feature_unist:lld <- $x20
	//DEBUG_VALUE: mas_blk_lld_dump_opt_feature:len <- $w26
	//DEBUG_VALUE: mas_blk_lld_dump_opt_feature:lld <- $x20
	//DEBUG_VALUE: mas_blk_dump_lld_status:offset <- $w23
	.loc	4 313 3 is_stmt 1       // kernel/block/mas_blk_dump.c:313:3
	adrp	x0, .L.str.26
	add	x0, x0, :lo12:.L.str.26
	add	x1, sp, #32             // =32
	bl	printk
.Ltmp462:
	.loc	4 0 0 is_stmt 0         // kernel/block/mas_blk_dump.c:0:0
	mov	w0, wzr
.Ltmp463:
.LBB4_84:
	//DEBUG_VALUE: mas_blk_lld_dump_opt_feature_unist:offset <- $w22
	//DEBUG_VALUE: mas_blk_lld_dump_opt_feature_unist:buf <- $x21
	//DEBUG_VALUE: mas_blk_lld_dump_opt_feature_unist:len <- $w25
	//DEBUG_VALUE: mas_blk_lld_dump_opt_feature:offset <- $w24
	//DEBUG_VALUE: mas_blk_lld_dump_opt_feature_unist:lld <- $x20
	//DEBUG_VALUE: mas_blk_lld_dump_opt_feature:len <- $w26
	//DEBUG_VALUE: mas_blk_lld_dump_opt_feature:lld <- $x20
	//DEBUG_VALUE: mas_blk_dump_lld_status:offset <- $w23
	//DEBUG_VALUE: __mas_blk_dump_printf:offset <- $w0
	.loc	4 523 4 is_stmt 1       // kernel/block/mas_blk_dump.c:523:4
	ldp	x3, x4, [x20, #424]
	.loc	4 525 4                 // kernel/block/mas_blk_dump.c:525:4
	ldp	x5, x6, [x20, #440]
	.loc	4 521 3                 // kernel/block/mas_blk_dump.c:521:3
	adrp	x2, .L.str.55
	.loc	4 519 10                // kernel/block/mas_blk_dump.c:519:10
	add	w22, w0, w22
.Ltmp464:
	//DEBUG_VALUE: mas_blk_lld_dump_opt_feature_unist:offset <- $w22
	.loc	4 521 3                 // kernel/block/mas_blk_dump.c:521:3
	add	x2, x2, :lo12:.L.str.55
	add	x0, sp, #32             // =32
.Ltmp465:
	orr	w1, wzr, #0x200
	bl	snprintf
	.loc	4 527 53                // kernel/block/mas_blk_dump.c:527:53
	sub	w8, w25, w22
.Ltmp466:
	//DEBUG_VALUE: __mas_blk_dump_printf:offset <- 0
	//DEBUG_VALUE: __mas_blk_dump_printf:len <- $w8
	.loc	4 310 10                // kernel/block/mas_blk_dump.c:310:10
	cmp	w8, #1                  // =1
	b.lt	.LBB4_87
.Ltmp467:
// %bb.85:
	//DEBUG_VALUE: __mas_blk_dump_printf:len <- $w8
	//DEBUG_VALUE: mas_blk_lld_dump_opt_feature_unist:offset <- $w22
	//DEBUG_VALUE: mas_blk_lld_dump_opt_feature_unist:buf <- $x21
	//DEBUG_VALUE: mas_blk_lld_dump_opt_feature_unist:len <- $w25
	//DEBUG_VALUE: mas_blk_lld_dump_opt_feature:offset <- $w24
	//DEBUG_VALUE: mas_blk_lld_dump_opt_feature_unist:lld <- $x20
	//DEBUG_VALUE: mas_blk_lld_dump_opt_feature:len <- $w26
	//DEBUG_VALUE: mas_blk_lld_dump_opt_feature:lld <- $x20
	//DEBUG_VALUE: mas_blk_dump_lld_status:offset <- $w23
	.loc	4 0 0 is_stmt 0         // kernel/block/mas_blk_dump.c:0:0
	add	x0, x21, w22, sxtw
.Ltmp468:
	//DEBUG_VALUE: __mas_blk_dump_printf:buf <- $x0
	.loc	4 310 10                // kernel/block/mas_blk_dump.c:310:10
	cbz	x0, .LBB4_87
.Ltmp469:
// %bb.86:
	//DEBUG_VALUE: __mas_blk_dump_printf:buf <- $x0
	//DEBUG_VALUE: __mas_blk_dump_printf:len <- $w8
	//DEBUG_VALUE: mas_blk_lld_dump_opt_feature_unist:offset <- $w22
	//DEBUG_VALUE: mas_blk_lld_dump_opt_feature_unist:buf <- $x21
	//DEBUG_VALUE: mas_blk_lld_dump_opt_feature_unist:len <- $w25
	//DEBUG_VALUE: mas_blk_lld_dump_opt_feature:offset <- $w24
	//DEBUG_VALUE: mas_blk_lld_dump_opt_feature_unist:lld <- $x20
	//DEBUG_VALUE: mas_blk_lld_dump_opt_feature:len <- $w26
	//DEBUG_VALUE: mas_blk_lld_dump_opt_feature:lld <- $x20
	//DEBUG_VALUE: mas_blk_dump_lld_status:offset <- $w23
	.loc	4 311 13 is_stmt 1      // kernel/block/mas_blk_dump.c:311:13
	adrp	x2, .L.str.25
	.loc	4 311 27 is_stmt 0      // kernel/block/mas_blk_dump.c:311:27
	sxtw	x1, w8
	.loc	4 311 13                // kernel/block/mas_blk_dump.c:311:13
	add	x2, x2, :lo12:.L.str.25
	add	x3, sp, #32             // =32
	bl	snprintf
.Ltmp470:
	//DEBUG_VALUE: __mas_blk_dump_printf:offset <- $w0
	.loc	4 0 13                  // kernel/block/mas_blk_dump.c:0:13
	b	.LBB4_88
.Ltmp471:
.LBB4_87:
	//DEBUG_VALUE: __mas_blk_dump_printf:len <- $w8
	//DEBUG_VALUE: mas_blk_lld_dump_opt_feature_unist:offset <- $w22
	//DEBUG_VALUE: mas_blk_lld_dump_opt_feature_unist:buf <- $x21
	//DEBUG_VALUE: mas_blk_lld_dump_opt_feature_unist:len <- $w25
	//DEBUG_VALUE: mas_blk_lld_dump_opt_feature:offset <- $w24
	//DEBUG_VALUE: mas_blk_lld_dump_opt_feature_unist:lld <- $x20
	//DEBUG_VALUE: mas_blk_lld_dump_opt_feature:len <- $w26
	//DEBUG_VALUE: mas_blk_lld_dump_opt_feature:lld <- $x20
	//DEBUG_VALUE: mas_blk_dump_lld_status:offset <- $w23
	.loc	4 313 3 is_stmt 1       // kernel/block/mas_blk_dump.c:313:3
	adrp	x0, .L.str.26
	add	x0, x0, :lo12:.L.str.26
	add	x1, sp, #32             // =32
	bl	printk
.Ltmp472:
	.loc	4 0 0 is_stmt 0         // kernel/block/mas_blk_dump.c:0:0
	mov	w0, wzr
.Ltmp473:
.LBB4_88:
	//DEBUG_VALUE: mas_blk_lld_dump_opt_feature_unist:offset <- $w22
	//DEBUG_VALUE: mas_blk_lld_dump_opt_feature_unist:buf <- $x21
	//DEBUG_VALUE: mas_blk_lld_dump_opt_feature_unist:len <- $w25
	//DEBUG_VALUE: mas_blk_lld_dump_opt_feature:offset <- $w24
	//DEBUG_VALUE: mas_blk_lld_dump_opt_feature_unist:lld <- $x20
	//DEBUG_VALUE: mas_blk_lld_dump_opt_feature:len <- $w26
	//DEBUG_VALUE: mas_blk_lld_dump_opt_feature:lld <- $x20
	//DEBUG_VALUE: mas_blk_dump_lld_status:offset <- $w23
	//DEBUG_VALUE: __mas_blk_dump_printf:offset <- $w0
	.loc	4 531 4 is_stmt 1       // kernel/block/mas_blk_dump.c:531:4
	ldp	x3, x4, [x20, #456]
	.loc	4 533 4                 // kernel/block/mas_blk_dump.c:533:4
	ldp	x5, x6, [x20, #472]
	.loc	4 529 3                 // kernel/block/mas_blk_dump.c:529:3
	adrp	x2, .L.str.56
	.loc	4 527 10                // kernel/block/mas_blk_dump.c:527:10
	add	w20, w0, w22
.Ltmp474:
	//DEBUG_VALUE: mas_blk_lld_dump_opt_feature_unist:offset <- $w20
	.loc	4 529 3                 // kernel/block/mas_blk_dump.c:529:3
	add	x2, x2, :lo12:.L.str.56
	add	x0, sp, #32             // =32
.Ltmp475:
	orr	w1, wzr, #0x200
	bl	snprintf
	.loc	4 535 53                // kernel/block/mas_blk_dump.c:535:53
	sub	w8, w25, w20
.Ltmp476:
	//DEBUG_VALUE: __mas_blk_dump_printf:offset <- 0
	//DEBUG_VALUE: __mas_blk_dump_printf:len <- $w8
	.loc	4 310 10                // kernel/block/mas_blk_dump.c:310:10
	cmp	w8, #1                  // =1
	b.lt	.LBB4_91
.Ltmp477:
// %bb.89:
	//DEBUG_VALUE: __mas_blk_dump_printf:len <- $w8
	//DEBUG_VALUE: mas_blk_lld_dump_opt_feature_unist:offset <- $w20
	//DEBUG_VALUE: mas_blk_lld_dump_opt_feature_unist:buf <- $x21
	//DEBUG_VALUE: mas_blk_lld_dump_opt_feature_unist:len <- $w25
	//DEBUG_VALUE: mas_blk_lld_dump_opt_feature:offset <- $w24
	//DEBUG_VALUE: mas_blk_lld_dump_opt_feature:len <- $w26
	//DEBUG_VALUE: mas_blk_dump_lld_status:offset <- $w23
	.loc	4 0 0 is_stmt 0         // kernel/block/mas_blk_dump.c:0:0
	add	x0, x21, w20, sxtw
.Ltmp478:
	//DEBUG_VALUE: __mas_blk_dump_printf:buf <- $x0
	.loc	4 310 10                // kernel/block/mas_blk_dump.c:310:10
	cbz	x0, .LBB4_91
.Ltmp479:
// %bb.90:
	//DEBUG_VALUE: __mas_blk_dump_printf:buf <- $x0
	//DEBUG_VALUE: __mas_blk_dump_printf:len <- $w8
	//DEBUG_VALUE: mas_blk_lld_dump_opt_feature_unist:offset <- $w20
	//DEBUG_VALUE: mas_blk_lld_dump_opt_feature_unist:buf <- $x21
	//DEBUG_VALUE: mas_blk_lld_dump_opt_feature_unist:len <- $w25
	//DEBUG_VALUE: mas_blk_lld_dump_opt_feature:offset <- $w24
	//DEBUG_VALUE: mas_blk_lld_dump_opt_feature:len <- $w26
	//DEBUG_VALUE: mas_blk_dump_lld_status:offset <- $w23
	.loc	4 311 13 is_stmt 1      // kernel/block/mas_blk_dump.c:311:13
	adrp	x2, .L.str.25
	.loc	4 311 27 is_stmt 0      // kernel/block/mas_blk_dump.c:311:27
	sxtw	x1, w8
	.loc	4 311 13                // kernel/block/mas_blk_dump.c:311:13
	add	x2, x2, :lo12:.L.str.25
	add	x3, sp, #32             // =32
	bl	snprintf
.Ltmp480:
	//DEBUG_VALUE: __mas_blk_dump_printf:offset <- $w0
	.loc	4 0 13                  // kernel/block/mas_blk_dump.c:0:13
	b	.LBB4_92
.Ltmp481:
.LBB4_91:
	//DEBUG_VALUE: __mas_blk_dump_printf:len <- $w8
	//DEBUG_VALUE: mas_blk_lld_dump_opt_feature_unist:offset <- $w20
	//DEBUG_VALUE: mas_blk_lld_dump_opt_feature_unist:buf <- $x21
	//DEBUG_VALUE: mas_blk_lld_dump_opt_feature_unist:len <- $w25
	//DEBUG_VALUE: mas_blk_lld_dump_opt_feature:offset <- $w24
	//DEBUG_VALUE: mas_blk_lld_dump_opt_feature:len <- $w26
	//DEBUG_VALUE: mas_blk_dump_lld_status:offset <- $w23
	.loc	4 313 3 is_stmt 1       // kernel/block/mas_blk_dump.c:313:3
	adrp	x0, .L.str.26
	add	x0, x0, :lo12:.L.str.26
	add	x1, sp, #32             // =32
	bl	printk
.Ltmp482:
	.loc	4 0 0 is_stmt 0         // kernel/block/mas_blk_dump.c:0:0
	mov	w0, wzr
.Ltmp483:
.LBB4_92:
	//DEBUG_VALUE: mas_blk_lld_dump_opt_feature_unist:offset <- $w20
	//DEBUG_VALUE: mas_blk_lld_dump_opt_feature_unist:buf <- $x21
	//DEBUG_VALUE: mas_blk_lld_dump_opt_feature_unist:len <- $w25
	//DEBUG_VALUE: mas_blk_lld_dump_opt_feature:offset <- $w24
	//DEBUG_VALUE: mas_blk_lld_dump_opt_feature:len <- $w26
	//DEBUG_VALUE: mas_blk_dump_lld_status:offset <- $w23
	//DEBUG_VALUE: __mas_blk_dump_printf:offset <- $w0
	.loc	4 535 10 is_stmt 1      // kernel/block/mas_blk_dump.c:535:10
	add	w8, w0, w20
.Ltmp484:
	//DEBUG_VALUE: mas_blk_lld_dump_opt_feature_unist:offset <- $w8
.LBB4_93:
	//DEBUG_VALUE: mas_blk_lld_dump_opt_feature:offset <- $w24
	//DEBUG_VALUE: mas_blk_lld_dump_opt_feature:len <- $w26
	//DEBUG_VALUE: mas_blk_dump_lld_status:offset <- $w23
	//DEBUG_VALUE: mas_blk_lld_dump_opt_feature:offset <- undef
	.loc	4 562 9                 // kernel/block/mas_blk_dump.c:562:9
	add	w9, w24, w23
.Ltmp485:
	.loc	4 605 9                 // kernel/block/mas_blk_dump.c:605:9
	add	w0, w9, w8
.Ltmp486:
	//DEBUG_VALUE: mas_blk_dump_lld_status:offset <- $w0
	.loc	4 607 6                 // kernel/block/mas_blk_dump.c:607:6
	cbz	x19, .LBB4_95
.Ltmp487:
// %bb.94:
	//DEBUG_VALUE: mas_blk_dump_lld_status:offset <- $w0
	.loc	4 608 15                // kernel/block/mas_blk_dump.c:608:15
	strb	wzr, [x19, w0, sxtw]
.Ltmp488:
.LBB4_95:
	//DEBUG_VALUE: mas_blk_dump_lld_status:offset <- $w0
	.loc	4 0 15 is_stmt 0        // kernel/block/mas_blk_dump.c:0:15
	adrp	x9, __stack_chk_guard
	ldur	x8, [x29, #-96]
	ldr	x9, [x9, :lo12:__stack_chk_guard]
	cmp	x9, x8
	b.ne	.LBB4_97
.Ltmp489:
// %bb.96:
	//DEBUG_VALUE: mas_blk_dump_lld_status:offset <- $w0
	.loc	4 610 2 is_stmt 1       // kernel/block/mas_blk_dump.c:610:2
	add	sp, sp, #560            // =560
	ldp	x29, x30, [sp, #80]     // 16-byte Folded Reload
	ldp	x20, x19, [sp, #64]     // 16-byte Folded Reload
	ldp	x22, x21, [sp, #48]     // 16-byte Folded Reload
	ldp	x24, x23, [sp, #32]     // 16-byte Folded Reload
	ldp	x26, x25, [sp, #16]     // 16-byte Folded Reload
	ldp	x28, x27, [sp], #96     // 16-byte Folded Reload
	ret
.Ltmp490:
.LBB4_97:
	//DEBUG_VALUE: mas_blk_dump_lld_status:offset <- $w0
	.loc	4 0 2 is_stmt 0         // kernel/block/mas_blk_dump.c:0:2
	bl	__stack_chk_fail
.Ltmp491:
.Lfunc_end4:
	.size	mas_blk_dump_lld_status, .Lfunc_end4-mas_blk_dump_lld_status
	.cfi_endproc
                                        // -- End function
	.section	.text.mas_blk_panic_notify,"ax",@progbits
	.hidden	mas_blk_panic_notify    // -- Begin function mas_blk_panic_notify
	.globl	mas_blk_panic_notify
	.p2align	2
	.type	mas_blk_panic_notify,@function
mas_blk_panic_notify:                   // @mas_blk_panic_notify
.Lfunc_begin5:
	.loc	4 680 0 is_stmt 1       // kernel/block/mas_blk_dump.c:680:0
	.cfi_startproc
// %bb.0:
	//DEBUG_VALUE: mas_blk_panic_notify:nb <- $x0
	//DEBUG_VALUE: mas_blk_panic_notify:event <- $x1
	//DEBUG_VALUE: mas_blk_panic_notify:buf <- $x2
	str	x19, [sp, #-32]!        // 8-byte Folded Spill
	stp	x29, x30, [sp, #16]     // 16-byte Folded Spill
	add	x29, sp, #16            // =16
	.cfi_def_cfa w29, 16
	.cfi_offset w30, -8
	.cfi_offset w29, -16
	.cfi_offset w19, -32
.Ltmp492:
	.loc	4 681 2 prologue_end    // kernel/block/mas_blk_dump.c:681:2
	bl	ktime_get
.Ltmp493:
	adrp	x19, .L__func__.mas_blk_panic_notify
	mov	x2, x0
	adrp	x0, .L.str.13
	add	x19, x19, :lo12:.L__func__.mas_blk_panic_notify
	add	x0, x0, :lo12:.L.str.13
	mov	x1, x19
	bl	printk
	.loc	4 682 2                 // kernel/block/mas_blk_dump.c:682:2
	bl	mas_blk_panic_dump
	.loc	4 683 2                 // kernel/block/mas_blk_dump.c:683:2
	adrp	x0, .L.str.14
	add	x0, x0, :lo12:.L.str.14
	mov	x1, x19
	bl	printk
	.loc	4 684 2                 // kernel/block/mas_blk_dump.c:684:2
	ldp	x29, x30, [sp, #16]     // 16-byte Folded Reload
	mov	w0, wzr
	ldr	x19, [sp], #32          // 8-byte Folded Reload
	ret
.Ltmp494:
.Lfunc_end5:
	.size	mas_blk_panic_notify, .Lfunc_end5-mas_blk_panic_notify
	.cfi_endproc
                                        // -- End function
	.section	.text.mas_blk_panic_dump,"ax",@progbits
	.p2align	2               // -- Begin function mas_blk_panic_dump
	.type	mas_blk_panic_dump,@function
mas_blk_panic_dump:                     // @mas_blk_panic_dump
.Lfunc_begin6:
	.loc	4 667 0                 // kernel/block/mas_blk_dump.c:667:0
	.cfi_startproc
// %bb.0:
	stp	x28, x27, [sp, #-96]!   // 16-byte Folded Spill
	stp	x26, x25, [sp, #16]     // 16-byte Folded Spill
	stp	x24, x23, [sp, #32]     // 16-byte Folded Spill
	stp	x22, x21, [sp, #48]     // 16-byte Folded Spill
	stp	x20, x19, [sp, #64]     // 16-byte Folded Spill
	stp	x29, x30, [sp, #80]     // 16-byte Folded Spill
	add	x29, sp, #80            // =80
	.cfi_def_cfa w29, 16
	.cfi_offset w30, -8
	.cfi_offset w29, -16
	.cfi_offset w19, -24
	.cfi_offset w20, -32
	.cfi_offset w21, -40
	.cfi_offset w22, -48
	.cfi_offset w23, -56
	.cfi_offset w24, -64
	.cfi_offset w25, -72
	.cfi_offset w26, -80
	.cfi_offset w27, -88
	.cfi_offset w28, -96
.Ltmp495:
	//DEBUG_VALUE: mas_blk_panic_dump:q <- 0
	//DEBUG_VALUE: mas_blk_panic_dump:mas_queue <- 0
	.loc	4 0 0 prologue_end      // kernel/block/mas_blk_dump.c:0:0
	adrp	x26, dump_list
	add	x26, x26, :lo12:dump_list
	ldr	x27, [x26]
.Ltmp496:
	//DEBUG_VALUE: mas_blk_panic_dump:mas_queue <- [DW_OP_constu 160, DW_OP_minus, DW_OP_stack_value] $x27
	.loc	4 671 2                 // kernel/block/mas_blk_dump.c:671:2
	cmp	x27, x26
	b.eq	.LBB6_22
.Ltmp497:
// %bb.1:
	//DEBUG_VALUE: mas_blk_panic_dump:mas_queue <- [DW_OP_constu 160, DW_OP_minus, DW_OP_stack_value] $x27
	.loc	4 0 2 is_stmt 0         // kernel/block/mas_blk_dump.c:0:2
	adrp	x20, .L.str.58
	adrp	x21, .L.str.10
	adrp	x22, .L.str.19
	adrp	x23, .L.str.57
	add	x20, x20, :lo12:.L.str.58
	add	x21, x21, :lo12:.L.str.10
	add	x22, x22, :lo12:.L.str.19
	add	x23, x23, :lo12:.L.str.57
.Ltmp498:
.LBB6_2:                                // =>This Loop Header: Depth=1
                                        //     Child Loop BB6_11 Depth 2
                                        //     Child Loop BB6_16 Depth 2
	//DEBUG_VALUE: mas_blk_panic_dump:mas_queue <- [DW_OP_constu 160, DW_OP_minus, DW_OP_stack_value] $x27
	//DEBUG_VALUE: mas_blk_panic_dump:mas_queue <- [DW_OP_constu 160, DW_OP_minus, DW_OP_stack_value] $x27
	//DEBUG_VALUE: __mptr <- [DW_OP_constu 160, DW_OP_minus, DW_OP_stack_value] $x27
	.loc	4 672 31 is_stmt 1      // kernel/block/mas_blk_dump.c:672:31
	sub	x24, x27, #1712         // =1712
.Ltmp499:
	//DEBUG_VALUE: mas_blk_dump_queue:s <- 1
	//DEBUG_VALUE: mas_blk_dump_queue:q <- $x24
	//DEBUG_VALUE: mas_blk_dump_queue_status:q <- $x24
	//DEBUG_VALUE: mas_blk_dump_counted_io:q <- $x24
	//DEBUG_VALUE: mas_blk_panic_dump:q <- $x24
	.loc	4 640 28                // kernel/block/mas_blk_dump.c:640:28
	mov	x0, x24
	bl	mas_blk_get_lld
.Ltmp500:
	.loc	4 642 11                // kernel/block/mas_blk_dump.c:642:11
	ldr	x8, [x0, #40]
.Ltmp501:
	.loc	4 640 28                // kernel/block/mas_blk_dump.c:640:28
	mov	x25, x0
.Ltmp502:
	//DEBUG_VALUE: mas_blk_dump_queue:lld <- $x25
	//DEBUG_VALUE: mas_blk_dump_counted_io:lld <- $x25
	.loc	4 642 6                 // kernel/block/mas_blk_dump.c:642:6
	cbz	x8, .LBB6_4
.Ltmp503:
// %bb.3:                               //   in Loop: Header=BB6_2 Depth=1
	//DEBUG_VALUE: mas_blk_dump_queue:lld <- $x25
	//DEBUG_VALUE: mas_blk_panic_dump:q <- $x24
	//DEBUG_VALUE: mas_blk_dump_queue:q <- $x24
	//DEBUG_VALUE: mas_blk_panic_dump:mas_queue <- [DW_OP_constu 160, DW_OP_minus, DW_OP_stack_value] $x27
	.loc	4 643 3                 // kernel/block/mas_blk_dump.c:643:3
	mov	x0, x25
	mov	x1, xzr
	mov	w2, wzr
	bl	mas_blk_dump_lld_status
	.loc	4 644 3                 // kernel/block/mas_blk_dump.c:644:3
	ldr	x1, [x25, #1504]
	ldr	x2, [x25, #1512]
	mov	x0, x23
	bl	printk
	.loc	4 646 8                 // kernel/block/mas_blk_dump.c:646:8
	ldr	x8, [x25, #40]
	.loc	4 646 3 is_stmt 0       // kernel/block/mas_blk_dump.c:646:3
	orr	w1, wzr, #0x1
	mov	x0, x24
	blr	x8
	.loc	4 647 16 is_stmt 1      // kernel/block/mas_blk_dump.c:647:16
	str	xzr, [x25, #40]
.Ltmp504:
.LBB6_4:                                //   in Loop: Header=BB6_2 Depth=1
	//DEBUG_VALUE: mas_blk_dump_queue:lld <- $x25
	//DEBUG_VALUE: mas_blk_panic_dump:q <- $x24
	//DEBUG_VALUE: mas_blk_dump_queue:q <- $x24
	//DEBUG_VALUE: mas_blk_panic_dump:mas_queue <- [DW_OP_constu 160, DW_OP_minus, DW_OP_stack_value] $x27
	//DEBUG_VALUE: mas_blk_dump_queue_status:s <- 1
	//DEBUG_VALUE: mas_blk_dump_queue_status:prefix <- undef
	.loc	4 375 20                // kernel/block/mas_blk_dump.c:375:20
	ldur	x8, [x27, #-160]
.Ltmp505:
	.loc	4 375 6 is_stmt 0       // kernel/block/mas_blk_dump.c:375:6
	cbz	x8, .LBB6_8
.Ltmp506:
// %bb.5:                               //   in Loop: Header=BB6_2 Depth=1
	//DEBUG_VALUE: mas_blk_dump_queue:lld <- $x25
	//DEBUG_VALUE: mas_blk_panic_dump:q <- $x24
	//DEBUG_VALUE: mas_blk_dump_queue:q <- $x24
	//DEBUG_VALUE: mas_blk_panic_dump:mas_queue <- [DW_OP_constu 160, DW_OP_minus, DW_OP_stack_value] $x27
	.loc	4 378 2 is_stmt 1       // kernel/block/mas_blk_dump.c:378:2
	ldurb	w9, [x27, #-152]
.Ltmp507:
	.loc	131 183 2               // kernel/include/linux/compiler.h:183:2
	ldr	w4, [x8, #1016]
.Ltmp508:
	//DEBUG_VALUE: __read_once_size:p <- [DW_OP_plus_uconst 1020, DW_OP_stack_value] $x8
	//DEBUG_VALUE: __read_once_size:size <- 4
	//DEBUG_VALUE: __read_once_size:res <- undef
	.loc	131 183 2 is_stmt 0     // kernel/include/linux/compiler.h:183:2
	ldr	w5, [x8, #1020]
.Ltmp509:
	.loc	4 378 2 is_stmt 1       // kernel/block/mas_blk_dump.c:378:2
	add	x2, x8, #12             // =12
	cmp	w9, #0                  // =0
	adrp	x8, .L.str.11
.Ltmp510:
	adrp	x9, .L.str.12
	add	x8, x8, :lo12:.L.str.11
	add	x9, x9, :lo12:.L.str.12
	csel	x3, x9, x8, eq
.Ltmp511:
	//DEBUG_VALUE: __read_once_size:p <- [DW_OP_plus_uconst 1016, DW_OP_stack_value] undef
	//DEBUG_VALUE: __read_once_size:size <- 4
	//DEBUG_VALUE: __read_once_size:res <- undef
	//DEBUG_VALUE: mas_blk_dump_queue_status:prefix <- $x22
	mov	x0, x21
	mov	x1, x22
	bl	printk
.Ltmp512:
	.loc	4 389 3                 // kernel/block/mas_blk_dump.c:389:3
	mov	x0, x24
	mov	x1, xzr
	mov	w2, wzr
	bl	mas_blk_dump_queue_status2
.Ltmp513:
	.loc	4 391 9                 // kernel/block/mas_blk_dump.c:391:9
	ldr	x8, [x27, #104]
	.loc	4 391 23 is_stmt 0      // kernel/block/mas_blk_dump.c:391:23
	cbz	x8, .LBB6_8
.Ltmp514:
// %bb.6:                               //   in Loop: Header=BB6_2 Depth=1
	//DEBUG_VALUE: mas_blk_dump_queue_status:prefix <- $x22
	//DEBUG_VALUE: mas_blk_dump_queue:lld <- $x25
	//DEBUG_VALUE: mas_blk_panic_dump:q <- $x24
	//DEBUG_VALUE: mas_blk_dump_queue:q <- $x24
	//DEBUG_VALUE: mas_blk_panic_dump:mas_queue <- [DW_OP_constu 160, DW_OP_minus, DW_OP_stack_value] $x27
	.loc	4 391 44                // kernel/block/mas_blk_dump.c:391:44
	ldr	x8, [x8, #160]
.Ltmp515:
	.loc	4 391 6                 // kernel/block/mas_blk_dump.c:391:6
	cbz	x8, .LBB6_8
.Ltmp516:
// %bb.7:                               //   in Loop: Header=BB6_2 Depth=1
	//DEBUG_VALUE: mas_blk_dump_queue_status:prefix <- $x22
	//DEBUG_VALUE: mas_blk_dump_queue:lld <- $x25
	//DEBUG_VALUE: mas_blk_panic_dump:q <- $x24
	//DEBUG_VALUE: mas_blk_dump_queue:q <- $x24
	//DEBUG_VALUE: mas_blk_panic_dump:mas_queue <- [DW_OP_constu 160, DW_OP_minus, DW_OP_stack_value] $x27
	.loc	4 392 3 is_stmt 1       // kernel/block/mas_blk_dump.c:392:3
	orr	w1, wzr, #0x1
	mov	x0, x24
	blr	x8
.Ltmp517:
.LBB6_8:                                //   in Loop: Header=BB6_2 Depth=1
	//DEBUG_VALUE: mas_blk_dump_queue:lld <- $x25
	//DEBUG_VALUE: mas_blk_panic_dump:q <- $x24
	//DEBUG_VALUE: mas_blk_dump_queue:q <- $x24
	//DEBUG_VALUE: mas_blk_panic_dump:mas_queue <- [DW_OP_constu 160, DW_OP_minus, DW_OP_stack_value] $x27
	//DEBUG_VALUE: mas_blk_dump_counted_io:s <- 1
	.loc	131 183 2               // kernel/include/linux/compiler.h:183:2
	ldr	x8, [x25, #1520]
.Ltmp518:
	.loc	4 617 33                // kernel/block/mas_blk_dump.c:617:33
	add	x19, x25, #1520         // =1520
.Ltmp519:
	//DEBUG_VALUE: __read_once_size:p <- $x19
	//DEBUG_VALUE: __read_once_size:size <- 8
	//DEBUG_VALUE: __read_once_size:res <- undef
	//DEBUG_VALUE: list_empty:head <- $x19
	.loc	4 617 6 is_stmt 0       // kernel/block/mas_blk_dump.c:617:6
	cmp	x19, x8
	b.eq	.LBB6_13
.Ltmp520:
// %bb.9:                               //   in Loop: Header=BB6_2 Depth=1
	//DEBUG_VALUE: mas_blk_dump_queue:lld <- $x25
	//DEBUG_VALUE: mas_blk_panic_dump:q <- $x24
	//DEBUG_VALUE: mas_blk_dump_queue:q <- $x24
	//DEBUG_VALUE: mas_blk_panic_dump:mas_queue <- [DW_OP_constu 160, DW_OP_minus, DW_OP_stack_value] $x27
	//DEBUG_VALUE: pos <- 0
	.loc	4 620 3 is_stmt 1       // kernel/block/mas_blk_dump.c:620:3
	mov	x0, x20
	bl	printk
.Ltmp521:
	//DEBUG_VALUE: __mptr <- undef
	.loc	4 0 0 is_stmt 0         // kernel/block/mas_blk_dump.c:0:0
	ldr	x28, [x19]
.Ltmp522:
	//DEBUG_VALUE: pos <- [DW_OP_constu 296, DW_OP_minus, DW_OP_stack_value] $x28
	.loc	4 621 3 is_stmt 1       // kernel/block/mas_blk_dump.c:621:3
	cmp	x19, x28
	b.ne	.LBB6_11
	b	.LBB6_13
.Ltmp523:
.LBB6_10:                               //   in Loop: Header=BB6_11 Depth=2
	//DEBUG_VALUE: pos <- [DW_OP_constu 296, DW_OP_minus, DW_OP_stack_value] $x28
	//DEBUG_VALUE: mas_blk_dump_queue:lld <- $x25
	//DEBUG_VALUE: mas_blk_panic_dump:q <- $x24
	//DEBUG_VALUE: mas_blk_dump_queue:q <- $x24
	//DEBUG_VALUE: mas_blk_panic_dump:mas_queue <- [DW_OP_constu 160, DW_OP_minus, DW_OP_stack_value] $x27
	//DEBUG_VALUE: __mptr <- undef
	.loc	4 0 0 is_stmt 0         // kernel/block/mas_blk_dump.c:0:0
	ldr	x28, [x28]
.Ltmp524:
	//DEBUG_VALUE: pos <- [DW_OP_constu 296, DW_OP_minus, DW_OP_stack_value] $x28
	.loc	4 621 3                 // kernel/block/mas_blk_dump.c:621:3
	cmp	x19, x28
	b.eq	.LBB6_13
.Ltmp525:
.LBB6_11:                               //   Parent Loop BB6_2 Depth=1
                                        // =>  This Inner Loop Header: Depth=2
	//DEBUG_VALUE: pos <- [DW_OP_constu 296, DW_OP_minus, DW_OP_stack_value] $x28
	//DEBUG_VALUE: mas_blk_dump_queue:lld <- $x25
	//DEBUG_VALUE: mas_blk_panic_dump:q <- $x24
	//DEBUG_VALUE: mas_blk_dump_queue:q <- $x24
	//DEBUG_VALUE: mas_blk_panic_dump:mas_queue <- [DW_OP_constu 160, DW_OP_minus, DW_OP_stack_value] $x27
	.loc	4 622 21 is_stmt 1      // kernel/block/mas_blk_dump.c:622:21
	ldur	x8, [x28, #-200]
.Ltmp526:
	.loc	4 622 8 is_stmt 0       // kernel/block/mas_blk_dump.c:622:8
	cmp	x8, x24
	b.ne	.LBB6_10
.Ltmp527:
// %bb.12:                              //   in Loop: Header=BB6_11 Depth=2
	//DEBUG_VALUE: pos <- [DW_OP_constu 296, DW_OP_minus, DW_OP_stack_value] $x28
	//DEBUG_VALUE: mas_blk_dump_queue:lld <- $x25
	//DEBUG_VALUE: mas_blk_panic_dump:q <- $x24
	//DEBUG_VALUE: mas_blk_dump_queue:q <- $x24
	//DEBUG_VALUE: mas_blk_panic_dump:mas_queue <- [DW_OP_constu 160, DW_OP_minus, DW_OP_stack_value] $x27
	.loc	4 0 0                   // kernel/block/mas_blk_dump.c:0:0
	sub	x0, x28, #296           // =296
.Ltmp528:
	.loc	4 623 5 is_stmt 1       // kernel/block/mas_blk_dump.c:623:5
	orr	w1, wzr, #0x1
	bl	mas_blk_dump_bio
	b	.LBB6_10
.Ltmp529:
.LBB6_13:                               //   in Loop: Header=BB6_2 Depth=1
	//DEBUG_VALUE: mas_blk_dump_queue:lld <- $x25
	//DEBUG_VALUE: mas_blk_panic_dump:q <- $x24
	//DEBUG_VALUE: mas_blk_dump_queue:q <- $x24
	//DEBUG_VALUE: mas_blk_panic_dump:mas_queue <- [DW_OP_constu 160, DW_OP_minus, DW_OP_stack_value] $x27
	.loc	131 183 2               // kernel/include/linux/compiler.h:183:2
	ldr	x8, [x25, #1536]
.Ltmp530:
	.loc	4 626 33                // kernel/block/mas_blk_dump.c:626:33
	add	x25, x25, #1536         // =1536
.Ltmp531:
	//DEBUG_VALUE: __read_once_size:p <- $x25
	//DEBUG_VALUE: __read_once_size:size <- 8
	//DEBUG_VALUE: __read_once_size:res <- undef
	//DEBUG_VALUE: list_empty:head <- $x25
	.loc	4 626 6 is_stmt 0       // kernel/block/mas_blk_dump.c:626:6
	cmp	x25, x8
	b.eq	.LBB6_18
.Ltmp532:
// %bb.14:                              //   in Loop: Header=BB6_2 Depth=1
	//DEBUG_VALUE: mas_blk_panic_dump:q <- $x24
	//DEBUG_VALUE: mas_blk_dump_queue:q <- $x24
	//DEBUG_VALUE: mas_blk_panic_dump:mas_queue <- [DW_OP_constu 160, DW_OP_minus, DW_OP_stack_value] $x27
	//DEBUG_VALUE: pos <- 0
	.loc	4 629 3 is_stmt 1       // kernel/block/mas_blk_dump.c:629:3
	adrp	x0, .L.str.59
	add	x0, x0, :lo12:.L.str.59
	bl	printk
.Ltmp533:
	//DEBUG_VALUE: __mptr <- undef
	.loc	4 0 0 is_stmt 0         // kernel/block/mas_blk_dump.c:0:0
	ldr	x19, [x25]
.Ltmp534:
	//DEBUG_VALUE: pos <- [DW_OP_constu 480, DW_OP_minus, DW_OP_stack_value] $x19
	.loc	4 630 3 is_stmt 1       // kernel/block/mas_blk_dump.c:630:3
	cmp	x25, x19
	b.ne	.LBB6_16
	b	.LBB6_18
.Ltmp535:
.LBB6_15:                               //   in Loop: Header=BB6_16 Depth=2
	//DEBUG_VALUE: pos <- [DW_OP_constu 480, DW_OP_minus, DW_OP_stack_value] $x19
	//DEBUG_VALUE: mas_blk_panic_dump:q <- $x24
	//DEBUG_VALUE: mas_blk_dump_queue:q <- $x24
	//DEBUG_VALUE: mas_blk_panic_dump:mas_queue <- [DW_OP_constu 160, DW_OP_minus, DW_OP_stack_value] $x27
	//DEBUG_VALUE: __mptr <- undef
	.loc	4 0 0 is_stmt 0         // kernel/block/mas_blk_dump.c:0:0
	ldr	x19, [x19]
.Ltmp536:
	//DEBUG_VALUE: pos <- [DW_OP_constu 480, DW_OP_minus, DW_OP_stack_value] $x19
	.loc	4 630 3                 // kernel/block/mas_blk_dump.c:630:3
	cmp	x25, x19
	b.eq	.LBB6_18
.Ltmp537:
.LBB6_16:                               //   Parent Loop BB6_2 Depth=1
                                        // =>  This Inner Loop Header: Depth=2
	//DEBUG_VALUE: pos <- [DW_OP_constu 480, DW_OP_minus, DW_OP_stack_value] $x19
	//DEBUG_VALUE: mas_blk_panic_dump:q <- $x24
	//DEBUG_VALUE: mas_blk_dump_queue:q <- $x24
	//DEBUG_VALUE: mas_blk_panic_dump:mas_queue <- [DW_OP_constu 160, DW_OP_minus, DW_OP_stack_value] $x27
	.loc	4 631 13 is_stmt 1      // kernel/block/mas_blk_dump.c:631:13
	sub	x8, x19, #416           // =416
	ldr	x8, [x8]
.Ltmp538:
	.loc	4 631 8 is_stmt 0       // kernel/block/mas_blk_dump.c:631:8
	cmp	x8, x24
	b.ne	.LBB6_15
.Ltmp539:
// %bb.17:                              //   in Loop: Header=BB6_16 Depth=2
	//DEBUG_VALUE: pos <- [DW_OP_constu 480, DW_OP_minus, DW_OP_stack_value] $x19
	//DEBUG_VALUE: mas_blk_panic_dump:q <- $x24
	//DEBUG_VALUE: mas_blk_dump_queue:q <- $x24
	//DEBUG_VALUE: mas_blk_panic_dump:mas_queue <- [DW_OP_constu 160, DW_OP_minus, DW_OP_stack_value] $x27
	.loc	4 0 0                   // kernel/block/mas_blk_dump.c:0:0
	sub	x0, x19, #480           // =480
.Ltmp540:
	.loc	4 632 5 is_stmt 1       // kernel/block/mas_blk_dump.c:632:5
	orr	w1, wzr, #0x1
	bl	mas_blk_dump_request
	b	.LBB6_15
.Ltmp541:
.LBB6_18:                               //   in Loop: Header=BB6_2 Depth=1
	//DEBUG_VALUE: mas_blk_panic_dump:q <- $x24
	//DEBUG_VALUE: mas_blk_dump_queue:q <- $x24
	//DEBUG_VALUE: mas_blk_panic_dump:mas_queue <- [DW_OP_constu 160, DW_OP_minus, DW_OP_stack_value] $x27
	.loc	4 653 9                 // kernel/block/mas_blk_dump.c:653:9
	ldr	x8, [x27, #104]
	.loc	4 653 23 is_stmt 0      // kernel/block/mas_blk_dump.c:653:23
	cbz	x8, .LBB6_21
.Ltmp542:
// %bb.19:                              //   in Loop: Header=BB6_2 Depth=1
	//DEBUG_VALUE: mas_blk_panic_dump:q <- $x24
	//DEBUG_VALUE: mas_blk_dump_queue:q <- $x24
	//DEBUG_VALUE: mas_blk_panic_dump:mas_queue <- [DW_OP_constu 160, DW_OP_minus, DW_OP_stack_value] $x27
	.loc	4 653 44                // kernel/block/mas_blk_dump.c:653:44
	ldr	x8, [x8, #168]
.Ltmp543:
	.loc	4 653 6                 // kernel/block/mas_blk_dump.c:653:6
	cbz	x8, .LBB6_21
.Ltmp544:
// %bb.20:                              //   in Loop: Header=BB6_2 Depth=1
	//DEBUG_VALUE: mas_blk_panic_dump:q <- $x24
	//DEBUG_VALUE: mas_blk_dump_queue:q <- $x24
	//DEBUG_VALUE: mas_blk_panic_dump:mas_queue <- [DW_OP_constu 160, DW_OP_minus, DW_OP_stack_value] $x27
	.loc	4 654 3 is_stmt 1       // kernel/block/mas_blk_dump.c:654:3
	orr	w1, wzr, #0x1
	mov	x0, x24
	blr	x8
.Ltmp545:
.LBB6_21:                               //   in Loop: Header=BB6_2 Depth=1
	//DEBUG_VALUE: mas_blk_panic_dump:q <- $x24
	//DEBUG_VALUE: mas_blk_panic_dump:mas_queue <- [DW_OP_constu 160, DW_OP_minus, DW_OP_stack_value] $x27
	//DEBUG_VALUE: __mptr <- undef
	.loc	4 0 0 is_stmt 0         // kernel/block/mas_blk_dump.c:0:0
	ldr	x27, [x27]
.Ltmp546:
	//DEBUG_VALUE: mas_blk_panic_dump:mas_queue <- [DW_OP_constu 160, DW_OP_minus, DW_OP_stack_value] $x27
	.loc	4 671 2 is_stmt 1       // kernel/block/mas_blk_dump.c:671:2
	cmp	x27, x26
	b.ne	.LBB6_2
.Ltmp547:
.LBB6_22:
	//DEBUG_VALUE: mas_blk_panic_dump:mas_queue <- [DW_OP_constu 160, DW_OP_minus, DW_OP_stack_value] $x27
	.loc	4 676 1                 // kernel/block/mas_blk_dump.c:676:1
	ldp	x29, x30, [sp, #80]     // 16-byte Folded Reload
	ldp	x20, x19, [sp, #64]     // 16-byte Folded Reload
	ldp	x22, x21, [sp, #48]     // 16-byte Folded Reload
	ldp	x24, x23, [sp, #32]     // 16-byte Folded Reload
	ldp	x26, x25, [sp, #16]     // 16-byte Folded Reload
	ldp	x28, x27, [sp], #96     // 16-byte Folded Reload
.Ltmp548:
	ret
.Ltmp549:
.Lfunc_end6:
	.size	mas_blk_panic_dump, .Lfunc_end6-mas_blk_panic_dump
	.cfi_endproc
	.file	132 "/mnt/disk/jenkins/ci/workspace/chipset_pipeline_release/opensource/component_code/vendor/huawei/extra/build/build_script/kirin_kernel_release/kernel/include/linux/list.h"
                                        // -- End function
	.section	.text.mas_blk_dump_unistore,"ax",@progbits
	.hidden	mas_blk_dump_unistore   // -- Begin function mas_blk_dump_unistore
	.globl	mas_blk_dump_unistore
	.p2align	2
	.type	mas_blk_dump_unistore,@function
mas_blk_dump_unistore:                  // @mas_blk_dump_unistore
.Lfunc_begin7:
	.loc	4 690 0                 // kernel/block/mas_blk_dump.c:690:0
	.cfi_startproc
// %bb.0:
	//DEBUG_VALUE: mas_blk_dump_unistore:q <- $x0
	//DEBUG_VALUE: mas_blk_dump_unistore:prefix <- $x1
	sub	sp, sp, #48             // =48
	stp	x20, x19, [sp, #16]     // 16-byte Folded Spill
	stp	x29, x30, [sp, #32]     // 16-byte Folded Spill
	add	x29, sp, #32            // =32
	.cfi_def_cfa w29, 16
	.cfi_offset w30, -8
	.cfi_offset w29, -16
	.cfi_offset w19, -24
	.cfi_offset w20, -32
	mov	x20, x1
	mov	x19, x0
.Ltmp550:
	//DEBUG_VALUE: mas_blk_dump_unistore:lld <- 0
	//DEBUG_VALUE: mas_blk_dump_unistore:prefix <- $x20
	//DEBUG_VALUE: mas_blk_dump_unistore:q <- $x19
	.loc	4 693 7 prologue_end    // kernel/block/mas_blk_dump.c:693:7
	bl	blk_queue_query_unistore_enable
.Ltmp551:
	.loc	4 693 6 is_stmt 0       // kernel/block/mas_blk_dump.c:693:6
	tbz	w0, #0, .LBB7_5
.Ltmp552:
// %bb.1:
	//DEBUG_VALUE: mas_blk_dump_unistore:q <- $x19
	//DEBUG_VALUE: mas_blk_dump_unistore:prefix <- $x20
	.loc	4 696 2 is_stmt 1       // kernel/block/mas_blk_dump.c:696:2
	adrp	x0, .L.str.15
	adrp	x1, .L__func__.mas_blk_dump_unistore
	add	x0, x0, :lo12:.L.str.15
	add	x1, x1, :lo12:.L__func__.mas_blk_dump_unistore
	mov	x2, x20
	bl	printk
	.loc	4 698 8                 // kernel/block/mas_blk_dump.c:698:8
	mov	x0, x19
	bl	mas_blk_get_lld
.Ltmp553:
	.loc	4 699 10                // kernel/block/mas_blk_dump.c:699:10
	cbz	x0, .LBB7_4
.Ltmp554:
// %bb.2:
	//DEBUG_VALUE: mas_blk_dump_unistore:q <- $x19
	//DEBUG_VALUE: mas_blk_dump_unistore:prefix <- $x20
	.loc	4 699 18 is_stmt 0      // kernel/block/mas_blk_dump.c:699:18
	ldr	w8, [x0, #216]
.Ltmp555:
	.loc	4 0 0                   // kernel/block/mas_blk_dump.c:0:0
	mov	x19, x0
.Ltmp556:
	//DEBUG_VALUE: mas_blk_dump_unistore:lld <- $x19
	.loc	4 699 6                 // kernel/block/mas_blk_dump.c:699:6
	cbz	w8, .LBB7_4
.Ltmp557:
// %bb.3:
	//DEBUG_VALUE: mas_blk_dump_unistore:lld <- $x19
	//DEBUG_VALUE: mas_blk_dump_unistore:prefix <- $x20
	.loc	4 700 3 is_stmt 1       // kernel/block/mas_blk_dump.c:700:3
	ldp	x9, x10, [x19, #392]
	ldp	x11, x12, [x19, #408]
	adrp	x0, .L.str.16
	add	x0, x0, :lo12:.L.str.16
	udiv	x1, x9, x8
	udiv	x3, x10, x8
	udiv	x5, x11, x8
	udiv	x7, x12, x8
	msub	x2, x1, x8, x9
	msub	x4, x3, x8, x10
	msub	x6, x5, x8, x11
	msub	x8, x7, x8, x12
	str	x8, [sp]
	bl	printk
	.loc	4 711 3                 // kernel/block/mas_blk_dump.c:711:3
	ldp	x1, x2, [x19, #456]
	ldp	x3, x4, [x19, #472]
	adrp	x0, .L.str.17
	add	x0, x0, :lo12:.L.str.17
	bl	printk
.Ltmp558:
.LBB7_4:
	//DEBUG_VALUE: mas_blk_dump_unistore:prefix <- $x20
	.loc	4 718 2                 // kernel/block/mas_blk_dump.c:718:2
	bl	mas_blk_panic_dump
.Ltmp559:
.LBB7_5:
	//DEBUG_VALUE: mas_blk_dump_unistore:prefix <- $x20
	.loc	4 719 1                 // kernel/block/mas_blk_dump.c:719:1
	ldp	x29, x30, [sp, #32]     // 16-byte Folded Reload
	ldp	x20, x19, [sp, #16]     // 16-byte Folded Reload
.Ltmp560:
	add	sp, sp, #48             // =48
	ret
.Ltmp561:
.Lfunc_end7:
	.size	mas_blk_dump_unistore, .Lfunc_end7-mas_blk_dump_unistore
	.cfi_endproc
                                        // -- End function
	.section	.text.mas_blk_dump_register_queue,"ax",@progbits
	.hidden	mas_blk_dump_register_queue // -- Begin function mas_blk_dump_register_queue
	.globl	mas_blk_dump_register_queue
	.p2align	2
	.type	mas_blk_dump_register_queue,@function
mas_blk_dump_register_queue:            // @mas_blk_dump_register_queue
.Lfunc_begin8:
	.loc	4 726 0                 // kernel/block/mas_blk_dump.c:726:0
	.cfi_startproc
// %bb.0:
	//DEBUG_VALUE: mas_blk_dump_register_queue:q <- $x0
	str	x21, [sp, #-48]!        // 8-byte Folded Spill
	stp	x20, x19, [sp, #16]     // 16-byte Folded Spill
	stp	x29, x30, [sp, #32]     // 16-byte Folded Spill
	add	x29, sp, #32            // =32
	.cfi_def_cfa w29, 16
	.cfi_offset w30, -8
	.cfi_offset w29, -16
	.cfi_offset w19, -24
	.cfi_offset w20, -32
	.cfi_offset w21, -48
	mov	x19, x0
.Ltmp562:
	//DEBUG_VALUE: mas_blk_dump_register_queue:q <- $x19
	.loc	4 727 32 prologue_end   // kernel/block/mas_blk_dump.c:727:32
	bl	mas_blk_get_lld
.Ltmp563:
	//DEBUG_VALUE: mas_blk_dump_register_queue:blk_lld <- $x0
	.loc	4 729 6                 // kernel/block/mas_blk_dump.c:729:6
	ldrb	w8, [x0, #24]
	tbz	w8, #0, .LBB8_3
.Ltmp564:
// %bb.1:
	//DEBUG_VALUE: mas_blk_dump_register_queue:blk_lld <- $x0
	//DEBUG_VALUE: mas_blk_dump_register_queue:q <- $x19
	.loc	131 183 2               // kernel/include/linux/compiler.h:183:2
	ldr	x8, [x19, #1712]
.Ltmp565:
	.loc	4 730 33                // kernel/block/mas_blk_dump.c:730:33
	add	x21, x19, #1712         // =1712
.Ltmp566:
	//DEBUG_VALUE: __read_once_size:p <- $x21
	//DEBUG_VALUE: __read_once_size:size <- 8
	//DEBUG_VALUE: __read_once_size:res <- undef
	//DEBUG_VALUE: list_empty:head <- $x21
	//DEBUG_VALUE: list_add_tail:new <- $x21
	//DEBUG_VALUE: __list_add:new <- $x21
	.loc	4 730 7 is_stmt 0       // kernel/block/mas_blk_dump.c:730:7
	cmp	x21, x8
	b.ne	.LBB8_3
.Ltmp567:
// %bb.2:
	//DEBUG_VALUE: __list_add:new <- $x21
	//DEBUG_VALUE: list_add_tail:new <- $x21
	//DEBUG_VALUE: mas_blk_dump_register_queue:blk_lld <- $x0
	//DEBUG_VALUE: mas_blk_dump_register_queue:q <- $x19
	.file	133 "/mnt/disk/jenkins/ci/workspace/chipset_pipeline_release/opensource/component_code/vendor/huawei/extra/build/build_script/kirin_kernel_release/kernel/include/linux/spinlock.h"
	.loc	133 317 2 is_stmt 1     // kernel/include/linux/spinlock.h:317:2
	adrp	x20, dump_list_lock
	add	x20, x20, :lo12:dump_list_lock
.Ltmp568:
	//DEBUG_VALUE: spin_lock:lock <- $x20
	mov	x0, x20
.Ltmp569:
	bl	_raw_spin_lock
.Ltmp570:
	.loc	132 93 24               // kernel/include/linux/list.h:93:24
	adrp	x8, dump_list
	add	x8, x8, :lo12:dump_list
.Ltmp571:
	//DEBUG_VALUE: list_add_tail:head <- $x8
	ldr	x9, [x8, #8]
.Ltmp572:
	//DEBUG_VALUE: __write_once_size:res <- undef
	//DEBUG_VALUE: __list_add:prev <- $x9
	//DEBUG_VALUE: __list_add:next <- $x8
	.loc	133 357 2               // kernel/include/linux/spinlock.h:357:2
	mov	x0, x20
.Ltmp573:
	.loc	132 63 13               // kernel/include/linux/list.h:63:13
	str	x21, [x8, #8]
	.loc	132 64 12               // kernel/include/linux/list.h:64:12
	str	x8, [x19, #1712]
	.loc	132 65 12               // kernel/include/linux/list.h:65:12
	str	x9, [x19, #1720]
.Ltmp574:
	//DEBUG_VALUE: __write_once_size:p <- $x9
	//DEBUG_VALUE: __write_once_size:size <- 8
	.loc	131 210 31              // kernel/include/linux/compiler.h:210:31
	str	x21, [x9]
.Ltmp575:
	//DEBUG_VALUE: spin_unlock:lock <- $x20
	.loc	133 357 2               // kernel/include/linux/spinlock.h:357:2
	bl	_raw_spin_unlock
.Ltmp576:
.LBB8_3:
	//DEBUG_VALUE: mas_blk_dump_register_queue:q <- $x19
	.loc	4 736 1                 // kernel/block/mas_blk_dump.c:736:1
	ldp	x29, x30, [sp, #32]     // 16-byte Folded Reload
	ldp	x20, x19, [sp, #16]     // 16-byte Folded Reload
.Ltmp577:
	ldr	x21, [sp], #48          // 8-byte Folded Reload
	ret
.Ltmp578:
.Lfunc_end8:
	.size	mas_blk_dump_register_queue, .Lfunc_end8-mas_blk_dump_register_queue
	.cfi_endproc
                                        // -- End function
	.section	.text.mas_blk_dump_unregister_queue,"ax",@progbits
	.hidden	mas_blk_dump_unregister_queue // -- Begin function mas_blk_dump_unregister_queue
	.globl	mas_blk_dump_unregister_queue
	.p2align	2
	.type	mas_blk_dump_unregister_queue,@function
mas_blk_dump_unregister_queue:          // @mas_blk_dump_unregister_queue
.Lfunc_begin9:
	.loc	4 742 0                 // kernel/block/mas_blk_dump.c:742:0
	.cfi_startproc
// %bb.0:
	//DEBUG_VALUE: mas_blk_dump_unregister_queue:q <- $x0
	str	x19, [sp, #-32]!        // 8-byte Folded Spill
	stp	x29, x30, [sp, #16]     // 16-byte Folded Spill
	add	x29, sp, #16            // =16
	.cfi_def_cfa w29, 16
	.cfi_offset w30, -8
	.cfi_offset w29, -16
	.cfi_offset w19, -32
	mov	x19, x0
.Ltmp579:
	//DEBUG_VALUE: mas_blk_dump_unregister_queue:mas_queue_backup <- 0
	//DEBUG_VALUE: mas_blk_dump_unregister_queue:mas_queue <- 0
	//DEBUG_VALUE: mas_blk_dump_unregister_queue:q_node <- 0
	//DEBUG_VALUE: mas_blk_dump_unregister_queue:q <- $x19
	.loc	133 317 2 prologue_end  // kernel/include/linux/spinlock.h:317:2
	adrp	x0, dump_list_lock
	add	x0, x0, :lo12:dump_list_lock
.Ltmp580:
	//DEBUG_VALUE: spin_lock:lock <- $x0
	bl	_raw_spin_lock
.Ltmp581:
	.loc	133 0 2 is_stmt 0       // kernel/include/linux/spinlock.h:0:2
	adrp	x9, dump_list
	add	x9, x9, :lo12:dump_list
	mov	x8, x9
.Ltmp582:
.LBB9_1:                                // =>This Inner Loop Header: Depth=1
	//DEBUG_VALUE: mas_blk_dump_unregister_queue:q <- $x19
	ldr	x8, [x8]
.Ltmp583:
	//DEBUG_VALUE: mas_blk_dump_unregister_queue:mas_queue_backup <- [DW_OP_constu 160, DW_OP_minus, DW_OP_stack_value] undef
	//DEBUG_VALUE: __mptr <- [DW_OP_constu 160, DW_OP_minus, DW_OP_stack_value] $x8
	//DEBUG_VALUE: list_del:entry <- $x8
	//DEBUG_VALUE: __list_del_entry:entry <- $x8
	.loc	4 748 2 is_stmt 1       // kernel/block/mas_blk_dump.c:748:2
	cmp	x8, x9
	b.eq	.LBB9_4
.Ltmp584:
// %bb.2:                               //   in Loop: Header=BB9_1 Depth=1
	//DEBUG_VALUE: __mptr <- [DW_OP_constu 160, DW_OP_minus, DW_OP_stack_value] $x8
	//DEBUG_VALUE: mas_blk_dump_unregister_queue:q <- $x19
	.loc	4 750 36                // kernel/block/mas_blk_dump.c:750:36
	sub	x10, x8, #1712          // =1712
.Ltmp585:
	//DEBUG_VALUE: mas_blk_dump_unregister_queue:q_node <- $x10
	.loc	4 752 7                 // kernel/block/mas_blk_dump.c:752:7
	cmp	x10, x19
	b.ne	.LBB9_1
.Ltmp586:
// %bb.3:
	//DEBUG_VALUE: mas_blk_dump_unregister_queue:q_node <- $x10
	//DEBUG_VALUE: mas_blk_dump_unregister_queue:q <- $x19
	.loc	132 120 33              // kernel/include/linux/list.h:120:33
	ldp	x9, x10, [x8]
.Ltmp587:
	.loc	132 0 33 is_stmt 0      // kernel/include/linux/list.h:0:33
	mov	x11, #256
	movk	x11, #57005, lsl #48
.Ltmp588:
	.loc	132 127 14 is_stmt 1    // kernel/include/linux/list.h:127:14
	add	x12, x11, #256          // =256
.Ltmp589:
	//DEBUG_VALUE: __list_del:prev <- $x10
	//DEBUG_VALUE: __list_del:next <- $x9
	.loc	132 105 13              // kernel/include/linux/list.h:105:13
	str	x10, [x9, #8]
.Ltmp590:
	//DEBUG_VALUE: __write_once_size:p <- $x10
	//DEBUG_VALUE: __write_once_size:size <- 8
	//DEBUG_VALUE: __write_once_size:res <- undef
	.loc	131 210 31              // kernel/include/linux/compiler.h:210:31
	str	x9, [x10]
.Ltmp591:
	.loc	132 126 14              // kernel/include/linux/list.h:126:14
	stp	x11, x12, [x8]
.Ltmp592:
.LBB9_4:
	//DEBUG_VALUE: mas_blk_dump_unregister_queue:q <- $x19
	.loc	133 357 2               // kernel/include/linux/spinlock.h:357:2
	adrp	x0, dump_list_lock
	add	x0, x0, :lo12:dump_list_lock
.Ltmp593:
	//DEBUG_VALUE: spin_unlock:lock <- $x0
	bl	_raw_spin_unlock
.Ltmp594:
	.loc	4 758 1                 // kernel/block/mas_blk_dump.c:758:1
	ldp	x29, x30, [sp, #16]     // 16-byte Folded Reload
	ldr	x19, [sp], #32          // 8-byte Folded Reload
.Ltmp595:
	ret
.Ltmp596:
.Lfunc_end9:
	.size	mas_blk_dump_unregister_queue, .Lfunc_end9-mas_blk_dump_unregister_queue
	.cfi_endproc
                                        // -- End function
	.section	.init.text,"ax",@progbits
	.hidden	mas_blk_dump_init       // -- Begin function mas_blk_dump_init
	.globl	mas_blk_dump_init
	.p2align	2
	.type	mas_blk_dump_init,@function
mas_blk_dump_init:                      // @mas_blk_dump_init
.Lfunc_begin10:
	.loc	4 766 0                 // kernel/block/mas_blk_dump.c:766:0
	.cfi_startproc
// %bb.0:
	stp	x29, x30, [sp, #-16]!   // 16-byte Folded Spill
	mov	x29, sp
	.cfi_def_cfa w29, 16
	.cfi_offset w30, -8
	.cfi_offset w29, -16
.Ltmp597:
	.loc	4 767 2 prologue_end    // kernel/block/mas_blk_dump.c:767:2
	adrp	x0, panic_notifier_list
	adrp	x1, mas_blk_panic_nb
	add	x0, x0, :lo12:panic_notifier_list
	add	x1, x1, :lo12:mas_blk_panic_nb
	bl	atomic_notifier_chain_register
	.loc	4 769 1                 // kernel/block/mas_blk_dump.c:769:1
	ldp	x29, x30, [sp], #16     // 16-byte Folded Reload
	ret
.Ltmp598:
.Lfunc_end10:
	.size	mas_blk_dump_init, .Lfunc_end10-mas_blk_dump_init
	.cfi_endproc
                                        // -- End function
	.section	.text.blk_mq_tagset_dump_register,"ax",@progbits
	.hidden	blk_mq_tagset_dump_register // -- Begin function blk_mq_tagset_dump_register
	.globl	blk_mq_tagset_dump_register
	.p2align	2
	.type	blk_mq_tagset_dump_register,@function
blk_mq_tagset_dump_register:            // @blk_mq_tagset_dump_register
.Lfunc_begin11:
	.loc	4 776 0                 // kernel/block/mas_blk_dump.c:776:0
	.cfi_startproc
// %bb.0:
	//DEBUG_VALUE: blk_mq_tagset_dump_register:tag_set <- $x0
	//DEBUG_VALUE: blk_mq_tagset_dump_register:tag_set <- $x0
	//DEBUG_VALUE: blk_mq_tagset_dump_register:func <- $x1
	//DEBUG_VALUE: blk_mq_tagset_dump_register:func <- $x1
	//DEBUG_VALUE: blk_mq_tagset_dump_register:blk_lld <- [DW_OP_plus_uconst 16, DW_OP_stack_value] $x0
	//DEBUG_VALUE: blk_mq_tagset_dump_register:blk_lld <- [DW_OP_plus_uconst 16, DW_OP_stack_value] $x0
	.loc	4 780 20 prologue_end   // kernel/block/mas_blk_dump.c:780:20
	ldr	x8, [x0, #40]
	.loc	4 779 19                // kernel/block/mas_blk_dump.c:779:19
	str	x1, [x0, #56]
	.loc	4 780 20                // kernel/block/mas_blk_dump.c:780:20
	orr	x8, x8, #0x1
	str	x8, [x0, #40]
	.loc	4 781 1                 // kernel/block/mas_blk_dump.c:781:1
	ret
.Ltmp599:
.Lfunc_end11:
	.size	blk_mq_tagset_dump_register, .Lfunc_end11-blk_mq_tagset_dump_register
	.cfi_endproc
                                        // -- End function
	.section	.text.blk_queue_dump_register,"ax",@progbits
	.hidden	blk_queue_dump_register // -- Begin function blk_queue_dump_register
	.globl	blk_queue_dump_register
	.p2align	2
	.type	blk_queue_dump_register,@function
blk_queue_dump_register:                // @blk_queue_dump_register
.Lfunc_begin12:
	.loc	4 787 0                 // kernel/block/mas_blk_dump.c:787:0
	.cfi_startproc
// %bb.0:
	//DEBUG_VALUE: blk_queue_dump_register:q <- $x0
	//DEBUG_VALUE: blk_queue_dump_register:func <- $x1
	str	x21, [sp, #-48]!        // 8-byte Folded Spill
	stp	x20, x19, [sp, #16]     // 16-byte Folded Spill
	stp	x29, x30, [sp, #32]     // 16-byte Folded Spill
	add	x29, sp, #32            // =32
	.cfi_def_cfa w29, 16
	.cfi_offset w30, -8
	.cfi_offset w29, -16
	.cfi_offset w19, -24
	.cfi_offset w20, -32
	.cfi_offset w21, -48
	mov	x20, x1
	mov	x19, x0
.Ltmp600:
	//DEBUG_VALUE: blk_queue_dump_register:func <- $x20
	//DEBUG_VALUE: blk_queue_dump_register:q <- $x19
	.loc	4 788 32 prologue_end   // kernel/block/mas_blk_dump.c:788:32
	bl	mas_blk_get_lld
.Ltmp601:
	//DEBUG_VALUE: blk_queue_dump_register:blk_lld <- $x0
	.loc	4 791 20                // kernel/block/mas_blk_dump.c:791:20
	ldr	x8, [x0, #24]
	.loc	4 790 19                // kernel/block/mas_blk_dump.c:790:19
	str	x20, [x0, #40]
	.loc	4 791 20                // kernel/block/mas_blk_dump.c:791:20
	orr	x8, x8, #0x1
	str	x8, [x0, #24]
.Ltmp602:
	//DEBUG_VALUE: mas_blk_dump_register_queue:q <- $x19
	.loc	4 727 32                // kernel/block/mas_blk_dump.c:727:32
	mov	x0, x19
.Ltmp603:
	bl	mas_blk_get_lld
.Ltmp604:
	//DEBUG_VALUE: mas_blk_dump_register_queue:blk_lld <- $x0
	.loc	4 729 6                 // kernel/block/mas_blk_dump.c:729:6
	ldrb	w8, [x0, #24]
	tbz	w8, #0, .LBB12_3
.Ltmp605:
// %bb.1:
	//DEBUG_VALUE: mas_blk_dump_register_queue:blk_lld <- $x0
	//DEBUG_VALUE: mas_blk_dump_register_queue:q <- $x19
	//DEBUG_VALUE: blk_queue_dump_register:q <- $x19
	//DEBUG_VALUE: blk_queue_dump_register:func <- $x20
	.loc	131 183 2               // kernel/include/linux/compiler.h:183:2
	ldr	x8, [x19, #1712]
.Ltmp606:
	.loc	4 730 33                // kernel/block/mas_blk_dump.c:730:33
	add	x21, x19, #1712         // =1712
.Ltmp607:
	//DEBUG_VALUE: __read_once_size:p <- $x21
	//DEBUG_VALUE: __read_once_size:size <- 8
	//DEBUG_VALUE: __read_once_size:res <- undef
	//DEBUG_VALUE: list_empty:head <- $x21
	//DEBUG_VALUE: list_add_tail:new <- $x21
	//DEBUG_VALUE: __list_add:new <- $x21
	.loc	4 730 7 is_stmt 0       // kernel/block/mas_blk_dump.c:730:7
	cmp	x21, x8
	b.ne	.LBB12_3
.Ltmp608:
// %bb.2:
	//DEBUG_VALUE: __list_add:new <- $x21
	//DEBUG_VALUE: list_add_tail:new <- $x21
	//DEBUG_VALUE: mas_blk_dump_register_queue:blk_lld <- $x0
	//DEBUG_VALUE: mas_blk_dump_register_queue:q <- $x19
	//DEBUG_VALUE: blk_queue_dump_register:q <- $x19
	//DEBUG_VALUE: blk_queue_dump_register:func <- $x20
	.loc	133 317 2 is_stmt 1     // kernel/include/linux/spinlock.h:317:2
	adrp	x20, dump_list_lock
.Ltmp609:
	add	x20, x20, :lo12:dump_list_lock
.Ltmp610:
	//DEBUG_VALUE: spin_lock:lock <- $x20
	mov	x0, x20
.Ltmp611:
	bl	_raw_spin_lock
.Ltmp612:
	.loc	132 93 24               // kernel/include/linux/list.h:93:24
	adrp	x8, dump_list
	add	x8, x8, :lo12:dump_list
.Ltmp613:
	//DEBUG_VALUE: list_add_tail:head <- $x8
	ldr	x9, [x8, #8]
.Ltmp614:
	//DEBUG_VALUE: __write_once_size:res <- undef
	//DEBUG_VALUE: __list_add:prev <- $x9
	//DEBUG_VALUE: __list_add:next <- $x8
	.loc	133 357 2               // kernel/include/linux/spinlock.h:357:2
	mov	x0, x20
.Ltmp615:
	.loc	132 63 13               // kernel/include/linux/list.h:63:13
	str	x21, [x8, #8]
	.loc	132 64 12               // kernel/include/linux/list.h:64:12
	str	x8, [x19, #1712]
	.loc	132 65 12               // kernel/include/linux/list.h:65:12
	str	x9, [x19, #1720]
.Ltmp616:
	//DEBUG_VALUE: __write_once_size:p <- $x9
	//DEBUG_VALUE: __write_once_size:size <- 8
	.loc	131 210 31              // kernel/include/linux/compiler.h:210:31
	str	x21, [x9]
.Ltmp617:
	//DEBUG_VALUE: spin_unlock:lock <- $x20
	.loc	133 357 2               // kernel/include/linux/spinlock.h:357:2
	bl	_raw_spin_unlock
.Ltmp618:
.LBB12_3:
	//DEBUG_VALUE: blk_queue_dump_register:q <- $x19
	.loc	4 793 1                 // kernel/block/mas_blk_dump.c:793:1
	ldp	x29, x30, [sp, #32]     // 16-byte Folded Reload
	ldp	x20, x19, [sp, #16]     // 16-byte Folded Reload
.Ltmp619:
	ldr	x21, [sp], #48          // 8-byte Folded Reload
	ret
.Ltmp620:
.Lfunc_end12:
	.size	blk_queue_dump_register, .Lfunc_end12-blk_queue_dump_register
	.cfi_endproc
                                        // -- End function
	.type	.L.str,@object          // @.str
	.section	.rodata.str1.1,"aMS",@progbits,1
.L.str:
	.asciz	"rq: 0x%pK, type:%s len:%u %s requeue_reason: %d tag: %d "
	.size	.L.str, 57

	.type	.L.str.1,@object        // @.str.1
.L.str.1:
	.asciz	"rq_hoq_flag: %llx rq_cp_flag: %llx "
	.size	.L.str.1, 36

	.type	.L.str.2,@object        // @.str.2
.L.str.2:
	.asciz	"disp_pid: %d %s\n"
	.size	.L.str.2, 17

	.type	.L.str.3,@object        // @.str.3
.L.str.3:
	.asciz	"\n"
	.size	.L.str.3, 2

	.type	.L.str.4,@object        // @.str.4
.L.str.4:
	.asciz	"%s: %lld "
	.size	.L.str.4, 10

	.type	.L.str.5,@object        // @.str.5
.L.str.5:
	.asciz	"\0013[BLK-IO]%s: %s\n"
	.size	.L.str.5, 18

	.type	.L.str.6,@object        // @.str.6
.L.str.6:
	.asciz	"bio: 0x%pK, type:%s len:%u "
	.size	.L.str.6, 28

	.type	.L.str.7,@object        // @.str.7
.L.str.7:
	.asciz	"disp_pid: %d %s"
	.size	.L.str.7, 16

	.type	.L.str.8,@object        // @.str.8
.L.str.8:
	.asciz	"<%s:%lld> "
	.size	.L.str.8, 11

	.type	.L.str.9,@object        // @.str.9
.L.str.9:
	.asciz	"\0013[BLK-IO]%s %s,current: %lld\n"
	.size	.L.str.9, 31

	.type	.L.str.10,@object       // @.str.10
.L.str.10:
	.asciz	"\0013[BLK-IO]%s: bdev %s, ptable %s, r_inflt: %d w_inflt: %d"
	.size	.L.str.10, 58

	.type	.L.str.11,@object       // @.str.11
.L.str.11:
	.asciz	"exist"
	.size	.L.str.11, 6

	.type	.L.str.12,@object       // @.str.12
.L.str.12:
	.asciz	"none"
	.size	.L.str.12, 5

	.type	.L.str.13,@object       // @.str.13
.L.str.13:
	.asciz	"\0013[BLK-IO]%s: ++ current = %lld\n"
	.size	.L.str.13, 33

	.type	.L__func__.mas_blk_panic_notify,@object // @__func__.mas_blk_panic_notify
.L__func__.mas_blk_panic_notify:
	.asciz	"mas_blk_panic_notify"
	.size	.L__func__.mas_blk_panic_notify, 21

	.type	.L.str.14,@object       // @.str.14
.L.str.14:
	.asciz	"\0013[BLK-IO]%s: --\n"
	.size	.L.str.14, 18

	.type	.L.str.15,@object       // @.str.15
.L.str.15:
	.asciz	"\0013[BLK-IO]%s - %s\n"
	.size	.L.str.15, 19

	.type	.L__func__.mas_blk_dump_unistore,@object // @__func__.mas_blk_dump_unistore
.L__func__.mas_blk_dump_unistore:
	.asciz	"mas_blk_dump_unistore"
	.size	.L__func__.mas_blk_dump_unistore, 22

	.type	.L.str.16,@object       // @.str.16
.L.str.16:
	.asciz	"\0013[BLK-IO]expected_lba: 0x%llx - 0x%llx, 0x%llx - 0x%llx, 0x%llx - 0x%llx, 0x%llx - 0x%llx\n"
	.size	.L.str.16, 92

	.type	.L.str.17,@object       // @.str.17
.L.str.17:
	.asciz	"\0013[BLK-IO]old_section: 0x%llx, 0x%llx, 0x%llx, 0x%llx\n"
	.size	.L.str.17, 55

	.type	dump_list_lock,@object  // @dump_list_lock
	.section	.data.dump_list_lock,"aw",@progbits
	.p2align	3
dump_list_lock:
	.zero	4
	.word	3735899821              // 0xdead4ead
	.word	4294967295              // 0xffffffff
	.zero	4
	.xword	-1
	.size	dump_list_lock, 24

	.type	dump_list,@object       // @dump_list
	.section	.data.dump_list,"aw",@progbits
	.p2align	3
dump_list:
	.xword	dump_list
	.xword	dump_list
	.size	dump_list, 16

	.type	mas_blk_panic_nb,@object // @mas_blk_panic_nb
	.section	.data.mas_blk_panic_nb,"aw",@progbits
	.p2align	3
mas_blk_panic_nb:
	.xword	__cfi_mas_blk_panic_notify
	.xword	0
	.word	0                       // 0x0
	.zero	4
	.size	mas_blk_panic_nb, 24

	.type	.L.str.18,@object       // @.str.18
	.section	.rodata.str1.1,"aMS",@progbits,1
.L.str.18:
	.asciz	"\0014[BLK-IO]%s: Unknown OP!\n"
	.size	.L.str.18, 27

	.type	.L__func__.mas_blk_io_type_op,@object // @__func__.mas_blk_io_type_op
.L__func__.mas_blk_io_type_op:
	.asciz	"mas_blk_io_type_op"
	.size	.L__func__.mas_blk_io_type_op, 19

	.type	.L.str.19,@object       // @.str.19
.L.str.19:
	.asciz	"dump"
	.size	.L.str.19, 5

	.type	.L.str.20,@object       // @.str.20
.L.str.20:
	.asciz	"io_latency"
	.size	.L.str.20, 11

	.type	.L.str.21,@object       // @.str.21
.L.str.21:
	.asciz	"TYPE_BLOCK_PC"
	.size	.L.str.21, 14

	.type	.L.str.22,@object       // @.str.22
.L.str.22:
	.asciz	"TYPE_DRV_PRIV"
	.size	.L.str.22, 14

	.type	.L.str.23,@object       // @.str.23
.L.str.23:
	.asciz	"TYPE_FS"
	.size	.L.str.23, 8

	.type	.L.str.24,@object       // @.str.24
.L.str.24:
	.asciz	"Queue Status:\n"
	.size	.L.str.24, 15

	.type	.L.str.25,@object       // @.str.25
.L.str.25:
	.asciz	"%s"
	.size	.L.str.25, 3

	.type	.L.str.26,@object       // @.str.26
.L.str.26:
	.asciz	"\0013[BLK-IO]%s"
	.size	.L.str.26, 13

	.type	.L.str.27,@object       // @.str.27
.L.str.27:
	.asciz	"\tIO Latency Warning: enable\tThreshold(ms): %u\n"
	.size	.L.str.27, 47

	.type	.L.str.28,@object       // @.str.28
.L.str.28:
	.asciz	"\tIO Latency Warning: disable\n"
	.size	.L.str.28, 30

	.type	.L.str.29,@object       // @.str.29
.L.str.29:
	.asciz	"\tFlush Reduce: %s\n"
	.size	.L.str.29, 19

	.type	.L.str.30,@object       // @.str.30
.L.str.30:
	.asciz	"enable"
	.size	.L.str.30, 7

	.type	.L.str.31,@object       // @.str.31
.L.str.31:
	.asciz	"disable"
	.size	.L.str.31, 8

	.type	.L.str.32,@object       // @.str.32
.L.str.32:
	.asciz	"\tInline Crypto: %s\n"
	.size	.L.str.32, 20

	.type	.L.str.33,@object       // @.str.33
.L.str.33:
	.asciz	"LLD Status:\n"
	.size	.L.str.33, 13

	.type	.L.str.34,@object       // @.str.34
.L.str.34:
	.asciz	"\tPanic Dump: %s\n"
	.size	.L.str.34, 17

	.type	.L.str.35,@object       // @.str.35
.L.str.35:
	.asciz	"\tLatency Warning:enable\tThreshold(ms):%u\n"
	.size	.L.str.35, 42

	.type	.L.str.36,@object       // @.str.36
.L.str.36:
	.asciz	"\tLatency Warning: disable\n"
	.size	.L.str.36, 27

	.type	.L.str.37,@object       // @.str.37
.L.str.37:
	.asciz	"\tBusy/Idle Notifier: %s\t"
	.size	.L.str.37, 25

	.type	.L.str.38,@object       // @.str.38
.L.str.38:
	.asciz	"\tState: BUSY\t"
	.size	.L.str.38, 14

	.type	.L.str.39,@object       // @.str.39
.L.str.39:
	.asciz	"\tState: IDLE\t"
	.size	.L.str.39, 14

	.type	.L.str.40,@object       // @.str.40
.L.str.40:
	.asciz	"\tIO Count: %d\n"
	.size	.L.str.40, 15

	.type	.L.str.41,@object       // @.str.41
.L.str.41:
	.asciz	"\tFGIO/Busy/Idle Notifier: %s\t"
	.size	.L.str.41, 30

	.type	.L.str.42,@object       // @.str.42
.L.str.42:
	.asciz	"\tFG State: BUSY\t"
	.size	.L.str.42, 17

	.type	.L.str.43,@object       // @.str.43
.L.str.43:
	.asciz	"\tFG State: IDLE\t"
	.size	.L.str.43, 17

	.type	.L.str.44,@object       // @.str.44
.L.str.44:
	.asciz	"\tFG IO Count: %d\n"
	.size	.L.str.44, 18

	.type	.L.str.45,@object       // @.str.45
.L.str.45:
	.asciz	"\tIO Scheduler: "
	.size	.L.str.45, 16

	.type	.L.str.47,@object       // @.str.47
.L.str.47:
	.asciz	"Default Scheduler\n"
	.size	.L.str.47, 19

	.type	.L.str.48,@object       // @.str.48
.L.str.48:
	.asciz	"\tUFS command priority: %s\n"
	.size	.L.str.48, 27

	.type	.L.str.49,@object       // @.str.49
.L.str.49:
	.asciz	"\tUFS order preserving: %s\n"
	.size	.L.str.49, 27

	.type	.L.str.50,@object       // @.str.50
.L.str.50:
	.asciz	"\0013[BLK-IO]%s - section size error: %u\n"
	.size	.L.str.50, 39

	.type	.L__func__.mas_blk_lld_dump_opt_feature_unist,@object // @__func__.mas_blk_lld_dump_opt_feature_unist
.L__func__.mas_blk_lld_dump_opt_feature_unist:
	.asciz	"mas_blk_lld_dump_opt_feature_unist"
	.size	.L__func__.mas_blk_lld_dump_opt_feature_unist, 35

	.type	.L.str.51,@object       // @.str.51
.L.str.51:
	.asciz	"Write Order: %s Order Num: %uLAST STREAM TYPE: %u, fsync ind: %s\n"
	.size	.L.str.51, 66

	.type	.L.str.52,@object       // @.str.52
.L.str.52:
	.asciz	"true"
	.size	.L.str.52, 5

	.type	.L.str.53,@object       // @.str.53
.L.str.53:
	.asciz	"false"
	.size	.L.str.53, 6

	.type	.L.str.54,@object       // @.str.54
.L.str.54:
	.asciz	"expected_lba: 0x%llx, 0x%llx, 0x%llx, 0x%llx, 0x%llx, 0x%llx, 0x%llx, 0x%llx\n"
	.size	.L.str.54, 78

	.type	.L.str.55,@object       // @.str.55
.L.str.55:
	.asciz	"expected_lba_time: %llu, %llu, %llu, %llu.\n"
	.size	.L.str.55, 44

	.type	.L.str.56,@object       // @.str.56
.L.str.56:
	.asciz	"old_section:0x%llx, 0x%llx, 0x%llx, 0x%llx\n"
	.size	.L.str.56, 44

	.type	.L.str.57,@object       // @.str.57
.L.str.57:
	.asciz	"\0013[BLK-IO]bio_count = %llu req_count = %llu\n"
	.size	.L.str.57, 45

	.type	.L.str.58,@object       // @.str.58
.L.str.58:
	.asciz	"\0013[BLK-IO]bio_list:\n"
	.size	.L.str.58, 21

	.type	.L.str.59,@object       // @.str.59
.L.str.59:
	.asciz	"\0013[BLK-IO]req_list:\n"
	.size	.L.str.59, 21
