	.text
	.file	"mas_bkops_core.c"
	.file	1 "/mnt/disk/jenkins/ci/workspace/chipset_pipeline_release/opensource/component_code/vendor/huawei/extra/build/build_script/kirin_kernel_release/kernel/include/asm-generic/int-ll64.h"
	.file	2 "/mnt/disk/jenkins/ci/workspace/chipset_pipeline_release/opensource/component_code/vendor/huawei/extra/build/build_script/kirin_kernel_release/kernel/arch/arm64/include/asm/spinlock_types.h"
	.file	3 "/mnt/disk/jenkins/ci/workspace/chipset_pipeline_release/opensource/component_code/vendor/huawei/extra/build/build_script/kirin_kernel_release/kernel/include/linux/spinlock_types.h"
	.file	4 "/mnt/disk/jenkins/ci/workspace/chipset_pipeline_release/opensource/component_code/vendor/huawei/extra/build/build_script/kirin_kernel_release/kernel/include/linux/ratelimit.h"
	.file	5 "/mnt/disk/jenkins/ci/workspace/chipset_pipeline_release/opensource/component_code/vendor/huawei/extra/build/build_script/kirin_kernel_release/kernel/block/mas_bkops_core.c"
	.file	6 "/mnt/disk/jenkins/ci/workspace/chipset_pipeline_release/opensource/component_code/vendor/huawei/extra/build/build_script/kirin_kernel_release/kernel/include/linux/types.h"
	.file	7 "/mnt/disk/jenkins/ci/workspace/chipset_pipeline_release/opensource/component_code/vendor/huawei/extra/build/build_script/kirin_kernel_release/kernel/include/asm-generic/atomic-long.h"
	.file	8 "/mnt/disk/jenkins/ci/workspace/chipset_pipeline_release/opensource/component_code/vendor/huawei/extra/build/build_script/kirin_kernel_release/kernel/include/linux/mutex.h"
	.file	9 "/mnt/disk/jenkins/ci/workspace/chipset_pipeline_release/opensource/component_code/vendor/huawei/extra/build/build_script/kirin_kernel_release/kernel/include/linux/osq_lock.h"
	.file	10 "/mnt/disk/jenkins/ci/workspace/chipset_pipeline_release/opensource/component_code/vendor/huawei/extra/build/build_script/kirin_kernel_release/kernel/arch/arm64/include/asm/thread_info.h"
	.file	11 "/mnt/disk/jenkins/ci/workspace/chipset_pipeline_release/opensource/component_code/vendor/huawei/extra/build/build_script/kirin_kernel_release/kernel/include/linux/sched.h"
	.file	12 "/mnt/disk/jenkins/ci/workspace/chipset_pipeline_release/opensource/component_code/vendor/huawei/extra/build/build_script/kirin_kernel_release/kernel/include/uapi/asm-generic/posix_types.h"
	.file	13 "/mnt/disk/jenkins/ci/workspace/chipset_pipeline_release/opensource/component_code/vendor/huawei/extra/build/build_script/kirin_kernel_release/kernel/include/linux/llist.h"
	.file	14 "/mnt/disk/jenkins/ci/workspace/chipset_pipeline_release/opensource/component_code/vendor/huawei/extra/build/build_script/kirin_kernel_release/kernel/include/linux/rbtree.h"
	.file	15 "/mnt/disk/jenkins/ci/workspace/chipset_pipeline_release/opensource/component_code/vendor/huawei/extra/build/build_script/kirin_kernel_release/kernel/include/linux/cpumask.h"
	.file	16 "/mnt/disk/jenkins/ci/workspace/chipset_pipeline_release/opensource/component_code/vendor/huawei/extra/build/build_script/kirin_kernel_release/kernel/include/linux/timerqueue.h"
	.file	17 "/mnt/disk/jenkins/ci/workspace/chipset_pipeline_release/opensource/component_code/vendor/huawei/extra/build/build_script/kirin_kernel_release/kernel/include/linux/ktime.h"
	.file	18 "/mnt/disk/jenkins/ci/workspace/chipset_pipeline_release/opensource/component_code/vendor/huawei/extra/build/build_script/kirin_kernel_release/kernel/include/linux/hrtimer.h"
	.file	19 "/mnt/disk/jenkins/ci/workspace/chipset_pipeline_release/opensource/component_code/vendor/huawei/extra/build/build_script/kirin_kernel_release/kernel/include/linux/seqlock.h"
	.file	20 "/mnt/disk/jenkins/ci/workspace/chipset_pipeline_release/opensource/component_code/vendor/huawei/extra/build/build_script/kirin_kernel_release/kernel/include/linux/plist.h"
	.file	21 "/mnt/disk/jenkins/ci/workspace/chipset_pipeline_release/opensource/component_code/vendor/huawei/extra/build/build_script/kirin_kernel_release/kernel/include/linux/mm_types.h"
	.file	22 "/mnt/disk/jenkins/ci/workspace/chipset_pipeline_release/opensource/component_code/vendor/huawei/extra/build/build_script/kirin_kernel_release/kernel/arch/arm64/include/asm/pgtable-types.h"
	.file	23 "/mnt/disk/jenkins/ci/workspace/chipset_pipeline_release/opensource/component_code/vendor/huawei/extra/build/build_script/kirin_kernel_release/kernel/include/linux/mm.h"
	.file	24 "/mnt/disk/jenkins/ci/workspace/chipset_pipeline_release/opensource/component_code/vendor/huawei/extra/build/build_script/kirin_kernel_release/kernel/include/asm-generic/pgtable-nop4d-hack.h"
	.file	25 "/mnt/disk/jenkins/ci/workspace/chipset_pipeline_release/opensource/component_code/vendor/huawei/extra/build/build_script/kirin_kernel_release/kernel/include/linux/fs.h"
	.file	26 "/mnt/disk/jenkins/ci/workspace/chipset_pipeline_release/opensource/component_code/vendor/huawei/extra/build/build_script/kirin_kernel_release/kernel/include/linux/uidgid.h"
	.file	27 "/mnt/disk/jenkins/ci/workspace/chipset_pipeline_release/opensource/component_code/vendor/huawei/extra/build/build_script/kirin_kernel_release/kernel/include/linux/dcache.h"
	.file	28 "/mnt/disk/jenkins/ci/workspace/chipset_pipeline_release/opensource/component_code/vendor/huawei/extra/build/build_script/kirin_kernel_release/kernel/include/linux/list_bl.h"
	.file	29 "/mnt/disk/jenkins/ci/workspace/chipset_pipeline_release/opensource/component_code/vendor/huawei/extra/build/build_script/kirin_kernel_release/kernel/include/linux/lockref.h"
	.file	30 "/mnt/disk/jenkins/ci/workspace/chipset_pipeline_release/opensource/component_code/vendor/huawei/extra/build/build_script/kirin_kernel_release/kernel/include/linux/path.h"
	.file	31 "/mnt/disk/jenkins/ci/workspace/chipset_pipeline_release/opensource/component_code/vendor/huawei/extra/build/build_script/kirin_kernel_release/kernel/include/uapi/asm-generic/int-ll64.h"
	.file	32 "/mnt/disk/jenkins/ci/workspace/chipset_pipeline_release/opensource/component_code/vendor/huawei/extra/build/build_script/kirin_kernel_release/kernel/include/linux/module.h"
	.file	33 "/mnt/disk/jenkins/ci/workspace/chipset_pipeline_release/opensource/component_code/vendor/huawei/extra/build/build_script/kirin_kernel_release/kernel/include/linux/kobject.h"
	.file	34 "/mnt/disk/jenkins/ci/workspace/chipset_pipeline_release/opensource/component_code/vendor/huawei/extra/build/build_script/kirin_kernel_release/kernel/include/linux/sysfs.h"
	.file	35 "/mnt/disk/jenkins/ci/workspace/chipset_pipeline_release/opensource/component_code/vendor/huawei/extra/build/build_script/kirin_kernel_release/kernel/include/linux/kobject_ns.h"
	.file	36 "/mnt/disk/jenkins/ci/workspace/chipset_pipeline_release/opensource/component_code/vendor/huawei/extra/build/build_script/kirin_kernel_release/kernel/include/linux/kernfs.h"
	.file	37 "/mnt/disk/jenkins/ci/workspace/chipset_pipeline_release/opensource/component_code/vendor/huawei/extra/build/build_script/kirin_kernel_release/kernel/include/linux/radix-tree.h"
	.file	38 "/mnt/disk/jenkins/ci/workspace/chipset_pipeline_release/opensource/component_code/vendor/huawei/extra/build/build_script/kirin_kernel_release/kernel/include/linux/idr.h"
	.file	39 "/mnt/disk/jenkins/ci/workspace/chipset_pipeline_release/opensource/component_code/vendor/huawei/extra/build/build_script/kirin_kernel_release/kernel/include/linux/seq_file.h"
	.file	40 "/mnt/disk/jenkins/ci/workspace/chipset_pipeline_release/opensource/component_code/vendor/huawei/extra/build/build_script/kirin_kernel_release/kernel/include/linux/wait.h"
	.file	41 "/mnt/disk/jenkins/ci/workspace/chipset_pipeline_release/opensource/component_code/vendor/huawei/extra/build/build_script/kirin_kernel_release/kernel/include/linux/nfs_fs_i.h"
	.file	42 "/mnt/disk/jenkins/ci/workspace/chipset_pipeline_release/opensource/component_code/vendor/huawei/extra/build/build_script/kirin_kernel_release/kernel/include/linux/rwlock_types.h"
	.file	43 "/mnt/disk/jenkins/ci/workspace/chipset_pipeline_release/opensource/component_code/vendor/huawei/extra/build/build_script/kirin_kernel_release/kernel/include/linux/pid.h"
	.file	44 "/mnt/disk/jenkins/ci/workspace/chipset_pipeline_release/opensource/component_code/vendor/huawei/extra/build/build_script/kirin_kernel_release/kernel/include/linux/cred.h"
	.file	45 "/mnt/disk/jenkins/ci/workspace/chipset_pipeline_release/opensource/component_code/vendor/huawei/extra/build/build_script/kirin_kernel_release/kernel/include/linux/capability.h"
	.file	46 "/mnt/disk/jenkins/ci/workspace/chipset_pipeline_release/opensource/component_code/vendor/huawei/extra/build/build_script/kirin_kernel_release/kernel/include/linux/refcount.h"
	.file	47 "/mnt/disk/jenkins/ci/workspace/chipset_pipeline_release/opensource/component_code/vendor/huawei/extra/build/build_script/kirin_kernel_release/kernel/include/linux/key.h"
	.file	48 "/mnt/disk/jenkins/ci/workspace/chipset_pipeline_release/opensource/component_code/vendor/huawei/extra/build/build_script/kirin_kernel_release/kernel/include/linux/rwsem.h"
	.file	49 "/mnt/disk/jenkins/ci/workspace/chipset_pipeline_release/opensource/component_code/vendor/huawei/extra/build/build_script/kirin_kernel_release/kernel/include/linux/assoc_array.h"
	.file	50 "/mnt/disk/jenkins/ci/workspace/chipset_pipeline_release/opensource/component_code/vendor/huawei/extra/build/build_script/kirin_kernel_release/kernel/include/linux/sched/user.h"
	.file	51 "/mnt/disk/jenkins/ci/workspace/chipset_pipeline_release/opensource/component_code/vendor/huawei/extra/build/build_script/kirin_kernel_release/kernel/include/linux/user_namespace.h"
	.file	52 "/mnt/disk/jenkins/ci/workspace/chipset_pipeline_release/opensource/component_code/vendor/huawei/extra/build/build_script/kirin_kernel_release/kernel/include/linux/ns_common.h"
	.file	53 "/mnt/disk/jenkins/ci/workspace/chipset_pipeline_release/opensource/component_code/vendor/huawei/extra/build/build_script/kirin_kernel_release/kernel/include/linux/workqueue.h"
	.file	54 "/mnt/disk/jenkins/ci/workspace/chipset_pipeline_release/opensource/component_code/vendor/huawei/extra/build/build_script/kirin_kernel_release/kernel/include/linux/sysctl.h"
	.file	55 "/mnt/disk/jenkins/ci/workspace/chipset_pipeline_release/opensource/component_code/vendor/huawei/extra/build/build_script/kirin_kernel_release/kernel/include/linux/completion.h"
	.file	56 "/mnt/disk/jenkins/ci/workspace/chipset_pipeline_release/opensource/component_code/vendor/huawei/extra/build/build_script/kirin_kernel_release/kernel/include/linux/errseq.h"
	.file	57 "/mnt/disk/jenkins/ci/workspace/chipset_pipeline_release/opensource/component_code/vendor/huawei/extra/build/build_script/kirin_kernel_release/kernel/include/linux/kref.h"
	.file	58 "/mnt/disk/jenkins/ci/workspace/chipset_pipeline_release/opensource/component_code/vendor/huawei/extra/build/build_script/kirin_kernel_release/kernel/include/linux/export.h"
	.file	59 "/mnt/disk/jenkins/ci/workspace/chipset_pipeline_release/opensource/component_code/vendor/huawei/extra/build/build_script/kirin_kernel_release/kernel/include/linux/cfi.h"
	.file	60 "/mnt/disk/jenkins/ci/workspace/chipset_pipeline_release/opensource/component_code/vendor/huawei/extra/build/build_script/kirin_kernel_release/kernel/include/linux/moduleparam.h"
	.file	61 "/mnt/disk/jenkins/ci/workspace/chipset_pipeline_release/opensource/component_code/vendor/huawei/extra/build/build_script/kirin_kernel_release/kernel/arch/arm64/include/asm/extable.h"
	.file	62 "/mnt/disk/jenkins/ci/workspace/chipset_pipeline_release/opensource/component_code/vendor/huawei/extra/build/build_script/kirin_kernel_release/kernel/include/linux/rbtree_latch.h"
	.file	63 "/mnt/disk/jenkins/ci/workspace/chipset_pipeline_release/opensource/component_code/vendor/huawei/extra/build/build_script/kirin_kernel_release/kernel/include/uapi/linux/elf.h"
	.file	64 "/mnt/disk/jenkins/ci/workspace/chipset_pipeline_release/opensource/component_code/vendor/huawei/extra/build/build_script/kirin_kernel_release/kernel/arch/arm64/include/asm/module.h"
	.file	65 "/mnt/disk/jenkins/ci/workspace/chipset_pipeline_release/opensource/component_code/vendor/huawei/extra/build/build_script/kirin_kernel_release/kernel/include/uapi/linux/types.h"
	.file	66 "/mnt/disk/jenkins/ci/workspace/chipset_pipeline_release/opensource/component_code/vendor/huawei/extra/build/build_script/kirin_kernel_release/kernel/include/asm-generic/bug.h"
	.file	67 "/mnt/disk/jenkins/ci/workspace/chipset_pipeline_release/opensource/component_code/vendor/huawei/extra/build/build_script/kirin_kernel_release/kernel/include/linux/tracepoint-defs.h"
	.file	68 "/mnt/disk/jenkins/ci/workspace/chipset_pipeline_release/opensource/component_code/vendor/huawei/extra/build/build_script/kirin_kernel_release/kernel/include/linux/jump_label.h"
	.file	69 "/mnt/disk/jenkins/ci/workspace/chipset_pipeline_release/opensource/component_code/vendor/huawei/extra/build/build_script/kirin_kernel_release/kernel/include/linux/tracepoint.h"
	.file	70 "/mnt/disk/jenkins/ci/workspace/chipset_pipeline_release/opensource/component_code/vendor/huawei/extra/build/build_script/kirin_kernel_release/kernel/include/linux/lockdep.h"
	.file	71 "/mnt/disk/jenkins/ci/workspace/chipset_pipeline_release/opensource/component_code/vendor/huawei/extra/build/build_script/kirin_kernel_release/kernel/include/linux/writeback.h"
	.file	72 "/mnt/disk/jenkins/ci/workspace/chipset_pipeline_release/opensource/component_code/vendor/huawei/extra/build/build_script/kirin_kernel_release/kernel/include/linux/backing-dev-defs.h"
	.file	73 "/mnt/disk/jenkins/ci/workspace/chipset_pipeline_release/opensource/component_code/vendor/huawei/extra/build/build_script/kirin_kernel_release/kernel/include/linux/device.h"
	.file	74 "/mnt/disk/jenkins/ci/workspace/chipset_pipeline_release/opensource/component_code/vendor/huawei/extra/build/build_script/kirin_kernel_release/kernel/include/linux/pm.h"
	.file	75 "/mnt/disk/jenkins/ci/workspace/chipset_pipeline_release/opensource/component_code/vendor/huawei/extra/build/build_script/kirin_kernel_release/kernel/include/linux/pm_wakeup.h"
	.file	76 "/mnt/disk/jenkins/ci/workspace/chipset_pipeline_release/opensource/component_code/vendor/huawei/extra/build/build_script/kirin_kernel_release/kernel/include/linux/timer.h"
	.file	77 "/mnt/disk/jenkins/ci/workspace/chipset_pipeline_release/opensource/component_code/vendor/huawei/extra/build/build_script/kirin_kernel_release/kernel/include/linux/pinctrl/devinfo.h"
	.file	78 "/mnt/disk/jenkins/ci/workspace/chipset_pipeline_release/opensource/component_code/vendor/huawei/extra/build/build_script/kirin_kernel_release/kernel/arch/arm64/include/asm/device.h"
	.file	79 "/mnt/disk/jenkins/ci/workspace/chipset_pipeline_release/opensource/component_code/vendor/huawei/extra/build/build_script/kirin_kernel_release/kernel/include/linux/klist.h"
	.file	80 "/mnt/disk/jenkins/ci/workspace/chipset_pipeline_release/opensource/component_code/vendor/huawei/extra/build/build_script/kirin_kernel_release/kernel/include/linux/blkdev.h"
	.file	81 "/mnt/disk/jenkins/ci/workspace/chipset_pipeline_release/opensource/component_code/vendor/huawei/extra/build/build_script/kirin_kernel_release/kernel/include/linux/smp.h"
	.file	82 "/mnt/disk/jenkins/ci/workspace/chipset_pipeline_release/opensource/component_code/vendor/huawei/extra/build/build_script/kirin_kernel_release/kernel/block/blk-mq.h"
	.file	83 "/mnt/disk/jenkins/ci/workspace/chipset_pipeline_release/opensource/component_code/vendor/huawei/extra/build/build_script/kirin_kernel_release/kernel/include/linux/blk_types.h"
	.file	84 "/mnt/disk/jenkins/ci/workspace/chipset_pipeline_release/opensource/component_code/vendor/huawei/extra/build/build_script/kirin_kernel_release/kernel/include/linux/genhd.h"
	.file	85 "/mnt/disk/jenkins/ci/workspace/chipset_pipeline_release/opensource/component_code/vendor/huawei/extra/build/build_script/kirin_kernel_release/kernel/include/linux/percpu-refcount.h"
	.file	86 "/mnt/disk/jenkins/ci/workspace/chipset_pipeline_release/opensource/component_code/vendor/huawei/extra/build/build_script/kirin_kernel_release/kernel/include/linux/bvec.h"
	.file	87 "/mnt/disk/jenkins/ci/workspace/chipset_pipeline_release/opensource/component_code/vendor/huawei/extra/build/build_script/kirin_kernel_release/kernel/include/uapi/linux/time.h"
	.file	88 "/mnt/disk/jenkins/ci/workspace/chipset_pipeline_release/opensource/component_code/vendor/huawei/extra/build/build_script/kirin_kernel_release/kernel/include/linux/iocontext.h"
	.file	89 "/mnt/disk/jenkins/ci/workspace/chipset_pipeline_release/opensource/component_code/vendor/huawei/extra/build/build_script/kirin_kernel_release/kernel/include/linux/cgroup-defs.h"
	.file	90 "/mnt/disk/jenkins/ci/workspace/chipset_pipeline_release/opensource/component_code/vendor/huawei/extra/build/build_script/kirin_kernel_release/kernel/include/linux/psi_types.h"
	.file	91 "/mnt/disk/jenkins/ci/workspace/chipset_pipeline_release/opensource/component_code/vendor/huawei/extra/build/build_script/kirin_kernel_release/kernel/include/linux/kthread.h"
	.file	92 "/mnt/disk/jenkins/ci/workspace/chipset_pipeline_release/opensource/component_code/vendor/huawei/extra/build/build_script/kirin_kernel_release/kernel/include/linux/bpf-cgroup.h"
	.file	93 "/mnt/disk/jenkins/ci/workspace/chipset_pipeline_release/opensource/component_code/vendor/huawei/extra/build/build_script/kirin_kernel_release/kernel/include/linux/bio.h"
	.file	94 "/mnt/disk/jenkins/ci/workspace/chipset_pipeline_release/opensource/component_code/vendor/huawei/extra/build/build_script/kirin_kernel_release/kernel/include/linux/mempool.h"
	.file	95 "/mnt/disk/jenkins/ci/workspace/chipset_pipeline_release/opensource/component_code/vendor/huawei/extra/build/build_script/kirin_kernel_release/kernel/include/linux/elevator.h"
	.file	96 "/mnt/disk/jenkins/ci/workspace/chipset_pipeline_release/opensource/component_code/vendor/huawei/extra/build/build_script/kirin_kernel_release/kernel/include/linux/blk-mq.h"
	.file	97 "/mnt/disk/jenkins/ci/workspace/chipset_pipeline_release/opensource/component_code/vendor/huawei/extra/build/build_script/kirin_kernel_release/kernel/block/blk.h"
	.file	98 "/mnt/disk/jenkins/ci/workspace/chipset_pipeline_release/opensource/component_code/vendor/huawei/extra/build/build_script/kirin_kernel_release/kernel/include/linux/sbitmap.h"
	.file	99 "/mnt/disk/jenkins/ci/workspace/chipset_pipeline_release/opensource/component_code/vendor/huawei/extra/build/build_script/kirin_kernel_release/kernel/include/linux/srcutree.h"
	.file	100 "/mnt/disk/jenkins/ci/workspace/chipset_pipeline_release/opensource/component_code/vendor/huawei/extra/build/build_script/kirin_kernel_release/kernel/include/linux/rcu_segcblist.h"
	.file	101 "/mnt/disk/jenkins/ci/workspace/chipset_pipeline_release/opensource/component_code/vendor/huawei/extra/build/build_script/kirin_kernel_release/kernel/include/linux/mas_bkops_core.h"
	.file	102 "/mnt/disk/jenkins/ci/workspace/chipset_pipeline_release/opensource/component_code/vendor/huawei/extra/build/build_script/kirin_kernel_release/kernel/include/linux/notifier.h"
	.file	103 "/mnt/disk/jenkins/ci/workspace/chipset_pipeline_release/opensource/component_code/vendor/huawei/extra/build/build_script/kirin_kernel_release/kernel/block/mas_blk.h"
	.file	104 "/mnt/disk/jenkins/ci/workspace/chipset_pipeline_release/opensource/component_code/vendor/huawei/extra/build/build_script/kirin_kernel_release/kernel/block/blk-stat.h"
	.file	105 "/mnt/disk/jenkins/ci/workspace/chipset_pipeline_release/opensource/component_code/vendor/huawei/extra/build/build_script/kirin_kernel_release/kernel/include/linux/bsg.h"
	.file	106 "/mnt/disk/jenkins/ci/workspace/chipset_pipeline_release/opensource/component_code/vendor/huawei/extra/build/build_script/kirin_kernel_release/kernel/include/linux/percpu_counter.h"
	.file	107 "/mnt/disk/jenkins/ci/workspace/chipset_pipeline_release/opensource/component_code/vendor/huawei/extra/build/build_script/kirin_kernel_release/kernel/include/linux/flex_proportions.h"
	.file	108 "/mnt/disk/jenkins/ci/workspace/chipset_pipeline_release/opensource/component_code/vendor/huawei/extra/build/build_script/kirin_kernel_release/kernel/include/linux/statfs.h"
	.file	109 "/mnt/disk/jenkins/ci/workspace/chipset_pipeline_release/opensource/component_code/vendor/huawei/extra/build/build_script/kirin_kernel_release/kernel/include/linux/quota.h"
	.file	110 "/mnt/disk/jenkins/ci/workspace/chipset_pipeline_release/opensource/component_code/vendor/huawei/extra/build/build_script/kirin_kernel_release/kernel/include/linux/projid.h"
	.file	111 "/mnt/disk/jenkins/ci/workspace/chipset_pipeline_release/opensource/component_code/vendor/huawei/extra/build/build_script/kirin_kernel_release/kernel/include/linux/time64.h"
	.file	112 "/mnt/disk/jenkins/ci/workspace/chipset_pipeline_release/opensource/component_code/vendor/huawei/extra/build/build_script/kirin_kernel_release/kernel/include/linux/shrinker.h"
	.file	113 "/mnt/disk/jenkins/ci/workspace/chipset_pipeline_release/opensource/component_code/vendor/huawei/extra/build/build_script/kirin_kernel_release/kernel/include/linux/memcontrol.h"
	.file	114 "/mnt/disk/jenkins/ci/workspace/chipset_pipeline_release/opensource/component_code/vendor/huawei/extra/build/build_script/kirin_kernel_release/kernel/include/linux/page_counter.h"
	.file	115 "/mnt/disk/jenkins/ci/workspace/chipset_pipeline_release/opensource/component_code/vendor/huawei/extra/build/build_script/kirin_kernel_release/kernel/include/linux/vmpressure.h"
	.file	116 "/mnt/disk/jenkins/ci/workspace/chipset_pipeline_release/opensource/component_code/vendor/huawei/extra/build/build_script/kirin_kernel_release/kernel/include/linux/memcg_policy.h"
	.file	117 "/mnt/disk/jenkins/ci/workspace/chipset_pipeline_release/opensource/component_code/vendor/huawei/extra/build/build_script/kirin_kernel_release/kernel/include/linux/mmzone.h"
	.file	118 "/mnt/disk/jenkins/ci/workspace/chipset_pipeline_release/opensource/component_code/vendor/huawei/extra/build/build_script/kirin_kernel_release/kernel/include/linux/rcu_sync.h"
	.file	119 "/mnt/disk/jenkins/ci/workspace/chipset_pipeline_release/opensource/component_code/vendor/huawei/extra/build/build_script/kirin_kernel_release/kernel/include/linux/percpu-rwsem.h"
	.file	120 "/mnt/disk/jenkins/ci/workspace/chipset_pipeline_release/opensource/component_code/vendor/huawei/extra/build/build_script/kirin_kernel_release/kernel/include/linux/rcuwait.h"
	.file	121 "/mnt/disk/jenkins/ci/workspace/chipset_pipeline_release/opensource/component_code/vendor/huawei/extra/build/build_script/kirin_kernel_release/kernel/include/linux/uuid.h"
	.file	122 "/mnt/disk/jenkins/ci/workspace/chipset_pipeline_release/opensource/component_code/vendor/huawei/extra/build/build_script/kirin_kernel_release/kernel/include/linux/list_lru.h"
	.file	123 "/mnt/disk/jenkins/ci/workspace/chipset_pipeline_release/opensource/component_code/vendor/huawei/extra/build/build_script/kirin_kernel_release/kernel/include/linux/delayed_call.h"
	.file	124 "/mnt/disk/jenkins/ci/workspace/chipset_pipeline_release/opensource/component_code/vendor/huawei/extra/build/build_script/kirin_kernel_release/kernel/include/linux/stat.h"
	.file	125 "/mnt/disk/jenkins/ci/workspace/chipset_pipeline_release/opensource/component_code/vendor/huawei/extra/build/build_script/kirin_kernel_release/kernel/include/uapi/linux/fiemap.h"
	.file	126 "/mnt/disk/jenkins/ci/workspace/chipset_pipeline_release/opensource/component_code/vendor/huawei/extra/build/build_script/kirin_kernel_release/kernel/include/linux/migrate_mode.h"
	.file	127 "/mnt/disk/jenkins/ci/workspace/chipset_pipeline_release/opensource/component_code/vendor/huawei/extra/build/build_script/kirin_kernel_release/kernel/include/linux/swap.h"
	.file	128 "/mnt/disk/jenkins/ci/workspace/chipset_pipeline_release/opensource/component_code/vendor/huawei/extra/build/build_script/kirin_kernel_release/kernel/include/linux/memremap.h"
	.file	129 "/mnt/disk/jenkins/ci/workspace/chipset_pipeline_release/opensource/component_code/vendor/huawei/extra/build/build_script/kirin_kernel_release/kernel/include/linux/ioport.h"
	.file	130 "/mnt/disk/jenkins/ci/workspace/chipset_pipeline_release/opensource/component_code/vendor/huawei/extra/build/build_script/kirin_kernel_release/kernel/arch/arm64/include/asm/page.h"
	.file	131 "/mnt/disk/jenkins/ci/workspace/chipset_pipeline_release/opensource/component_code/vendor/huawei/extra/build/build_script/kirin_kernel_release/kernel/include/linux/mm_types_task.h"
	.file	132 "/mnt/disk/jenkins/ci/workspace/chipset_pipeline_release/opensource/component_code/vendor/huawei/extra/build/build_script/kirin_kernel_release/kernel/arch/arm64/include/asm/mmu.h"
	.file	133 "/mnt/disk/jenkins/ci/workspace/chipset_pipeline_release/opensource/component_code/vendor/huawei/extra/build/build_script/kirin_kernel_release/kernel/include/linux/uprobes.h"
	.file	134 "/mnt/disk/jenkins/ci/workspace/chipset_pipeline_release/opensource/component_code/vendor/huawei/extra/build/build_script/kirin_kernel_release/kernel/include/linux/xreclaimer_types.h"
	.file	135 "/mnt/disk/jenkins/ci/workspace/chipset_pipeline_release/opensource/component_code/vendor/huawei/extra/build/build_script/kirin_kernel_release/kernel/include/linux/restart_block.h"
	.file	136 "/mnt/disk/jenkins/ci/workspace/chipset_pipeline_release/opensource/component_code/vendor/huawei/extra/build/build_script/kirin_kernel_release/kernel/arch/arm64/include/asm/compat.h"
	.file	137 "/mnt/disk/jenkins/ci/workspace/chipset_pipeline_release/opensource/component_code/vendor/huawei/extra/build/build_script/kirin_kernel_release/kernel/include/linux/nsproxy.h"
	.file	138 "/mnt/disk/jenkins/ci/workspace/chipset_pipeline_release/opensource/component_code/vendor/huawei/extra/build/build_script/kirin_kernel_release/kernel/include/linux/cgroup.h"
	.file	139 "/mnt/disk/jenkins/ci/workspace/chipset_pipeline_release/opensource/component_code/vendor/huawei/extra/build/build_script/kirin_kernel_release/kernel/include/uapi/asm-generic/signal.h"
	.file	140 "/mnt/disk/jenkins/ci/workspace/chipset_pipeline_release/opensource/component_code/vendor/huawei/extra/build/build_script/kirin_kernel_release/kernel/include/linux/signal_types.h"
	.file	141 "/mnt/disk/jenkins/ci/workspace/chipset_pipeline_release/opensource/component_code/vendor/huawei/extra/build/build_script/kirin_kernel_release/kernel/include/linux/seccomp.h"
	.file	142 "/mnt/disk/jenkins/ci/workspace/chipset_pipeline_release/opensource/component_code/vendor/huawei/extra/build/build_script/kirin_kernel_release/kernel/include/uapi/asm-generic/siginfo.h"
	.file	143 "/mnt/disk/jenkins/ci/workspace/chipset_pipeline_release/opensource/component_code/vendor/huawei/extra/build/build_script/kirin_kernel_release/kernel/include/linux/task_io_accounting.h"
	.file	144 "/mnt/disk/jenkins/ci/workspace/chipset_pipeline_release/opensource/component_code/vendor/huawei/extra/build/build_script/kirin_kernel_release/kernel/include/linux/nodemask.h"
	.file	145 "/mnt/disk/jenkins/ci/workspace/chipset_pipeline_release/opensource/component_code/vendor/huawei/extra/build/build_script/kirin_kernel_release/kernel/arch/arm64/include/asm/processor.h"
	.file	146 "/mnt/disk/jenkins/ci/workspace/chipset_pipeline_release/opensource/component_code/vendor/huawei/extra/build/build_script/kirin_kernel_release/kernel/block/mas_bkops_core.c"
	.file	147 "/mnt/disk/jenkins/ci/workspace/chipset_pipeline_release/opensource/component_code/vendor/huawei/extra/build/build_script/kirin_kernel_release/kernel/arch/arm64/include/uapi/asm/ptrace.h"
	.file	148 "/mnt/disk/jenkins/ci/workspace/chipset_pipeline_release/opensource/component_code/vendor/huawei/extra/build/build_script/kirin_kernel_release/kernel/arch/arm64/include/asm/fpsimd.h"
	.file	149 "/mnt/disk/jenkins/ci/workspace/chipset_pipeline_release/opensource/component_code/vendor/huawei/extra/build/build_script/kirin_kernel_release/kernel/include/trace/iotrace.h"
	.file	150 "/mnt/disk/jenkins/ci/workspace/chipset_pipeline_release/opensource/component_code/vendor/huawei/extra/build/build_script/kirin_kernel_release/kernel/include/linux/timekeeping.h"
	.file	151 "/mnt/disk/jenkins/ci/workspace/chipset_pipeline_release/opensource/component_code/vendor/huawei/extra/build/build_script/kirin_kernel_release/kernel/include/linux/stddef.h"
	.file	152 "/mnt/disk/jenkins/ci/workspace/chipset_pipeline_release/opensource/component_code/vendor/huawei/extra/build/build_script/kirin_kernel_release/kernel/include/linux/slab.h"
	.section	.text.bkops_idle_work_func,"ax",@progbits
	.hidden	bkops_idle_work_func    // -- Begin function bkops_idle_work_func
	.globl	bkops_idle_work_func
	.p2align	2
	.type	bkops_idle_work_func,@function
bkops_idle_work_func:                   // @bkops_idle_work_func
.Lfunc_begin0:
	.loc	5 219 0                 // kernel/block/mas_bkops_core.c:219:0
	.cfi_sections .debug_frame
	.cfi_startproc
// %bb.0:
	//DEBUG_VALUE: bkops_idle_work_func:work <- $x0
	sub	sp, sp, #64             // =64
	stp	x22, x21, [sp, #16]     // 16-byte Folded Spill
	stp	x20, x19, [sp, #32]     // 16-byte Folded Spill
	stp	x29, x30, [sp, #48]     // 16-byte Folded Spill
	add	x29, sp, #48            // =48
	.cfi_def_cfa w29, 16
	.cfi_offset w30, -8
	.cfi_offset w29, -16
	.cfi_offset w19, -24
	.cfi_offset w20, -32
	.cfi_offset w21, -40
	.cfi_offset w22, -48
	adrp	x8, __stack_chk_guard
	ldr	x8, [x8, :lo12:__stack_chk_guard]
	mov	x19, x0
	str	x8, [sp, #8]
.Ltmp0:
	//DEBUG_VALUE: bkops_idle_work_func:bkops_status <- 0
	//DEBUG_VALUE: bkops_idle_work_func:work <- $x19
	.loc	5 220 6 prologue_end    // kernel/block/mas_bkops_core.c:220:6
	str	wzr, [sp, #4]
.Ltmp1:
	//DEBUG_VALUE: mas_bkops_query:ret <- 0
	//DEBUG_VALUE: mas_bkops_query:bkops_status <- [DW_OP_plus_uconst 4] $sp
	//DEBUG_VALUE: mas_bkops_query:bkops <- [DW_OP_constu 32, DW_OP_minus, DW_OP_stack_value] $x19
	//DEBUG_VALUE: bkops_idle_work_func:bkops_status <- [DW_OP_plus_uconst 4, DW_OP_deref] $sp
	//DEBUG_VALUE: bkops_idle_work_func:bkops <- [DW_OP_constu 32, DW_OP_minus, DW_OP_stack_value] $x19
	//DEBUG_VALUE: __mptr <- $x19
	.loc	5 99 41                 // kernel/block/mas_bkops_core.c:99:41
	ldur	x20, [x0, #-24]
.Ltmp2:
	//DEBUG_VALUE: mas_bkops_query:bkops_ops_p <- $x20
	.loc	5 106 2                 // kernel/block/mas_bkops_core.c:106:2
	adrp	x0, bkops_lock
	add	x0, x0, :lo12:bkops_lock
	bl	mutex_lock
.Ltmp3:
	.loc	5 107 7                 // kernel/block/mas_bkops_core.c:107:7
	adrp	x21, bkops_enabled
	ldrb	w8, [x21, :lo12:bkops_enabled]
.Ltmp4:
	.loc	5 107 6 is_stmt 0       // kernel/block/mas_bkops_core.c:107:6
	cmp	w8, #1                  // =1
	b.ne	.LBB0_2
.Ltmp5:
// %bb.1:
	//DEBUG_VALUE: mas_bkops_query:bkops_ops_p <- $x20
	//DEBUG_VALUE: bkops_idle_work_func:bkops <- [DW_OP_constu 32, DW_OP_minus, DW_OP_stack_value] $x19
	//DEBUG_VALUE: bkops_idle_work_func:bkops_status <- [DW_OP_plus_uconst 4, DW_OP_deref] $sp
	//DEBUG_VALUE: mas_bkops_query:bkops <- [DW_OP_constu 32, DW_OP_minus, DW_OP_stack_value] $x19
	//DEBUG_VALUE: mas_bkops_query:bkops_status <- [DW_OP_plus_uconst 4] $sp
	//DEBUG_VALUE: bkops_idle_work_func:work <- $x19
	//DEBUG_LABEL: mas_bkops_query:out
	.loc	5 140 2 is_stmt 1       // kernel/block/mas_bkops_core.c:140:2
	adrp	x0, bkops_lock
	add	x0, x0, :lo12:bkops_lock
	bl	mutex_unlock
	b	.LBB0_8
.Ltmp6:
.LBB0_2:
	//DEBUG_VALUE: mas_bkops_query:bkops_ops_p <- $x20
	//DEBUG_VALUE: bkops_idle_work_func:bkops <- [DW_OP_constu 32, DW_OP_minus, DW_OP_stack_value] $x19
	//DEBUG_VALUE: bkops_idle_work_func:bkops_status <- [DW_OP_plus_uconst 4, DW_OP_deref] $sp
	//DEBUG_VALUE: mas_bkops_query:bkops <- [DW_OP_constu 32, DW_OP_minus, DW_OP_stack_value] $x19
	//DEBUG_VALUE: mas_bkops_query:bkops_status <- [DW_OP_plus_uconst 4] $sp
	//DEBUG_VALUE: bkops_idle_work_func:work <- $x19
	.loc	5 119 21                // kernel/block/mas_bkops_core.c:119:21
	ldr	x8, [x20, #8]
	.loc	5 120 10                // kernel/block/mas_bkops_core.c:120:10
	ldur	x0, [x19, #-16]
	.loc	5 119 8                 // kernel/block/mas_bkops_core.c:119:8
	add	x1, sp, #4              // =4
	blr	x8
.Ltmp7:
	.loc	5 121 6                 // kernel/block/mas_bkops_core.c:121:6
	adrp	x8, user_manual_gc
	ldrb	w9, [x8, :lo12:user_manual_gc]
.Ltmp8:
	.loc	5 119 8                 // kernel/block/mas_bkops_core.c:119:8
	mov	w20, w0
.Ltmp9:
	//DEBUG_VALUE: bkops_idle_work_func:ret <- $w20
	//DEBUG_VALUE: mas_bkops_query:ret <- $w20
	.loc	5 121 21                // kernel/block/mas_bkops_core.c:121:21
	cbz	w9, .LBB0_5
.Ltmp10:
// %bb.3:
	//DEBUG_VALUE: mas_bkops_query:ret <- $w20
	//DEBUG_VALUE: bkops_idle_work_func:ret <- $w20
	//DEBUG_VALUE: bkops_idle_work_func:bkops <- [DW_OP_constu 32, DW_OP_minus, DW_OP_stack_value] $x19
	//DEBUG_VALUE: bkops_idle_work_func:bkops_status <- [DW_OP_plus_uconst 4, DW_OP_deref] $sp
	//DEBUG_VALUE: mas_bkops_query:bkops <- [DW_OP_constu 32, DW_OP_minus, DW_OP_stack_value] $x19
	//DEBUG_VALUE: mas_bkops_query:bkops_status <- [DW_OP_plus_uconst 4] $sp
	//DEBUG_VALUE: bkops_idle_work_func:work <- $x19
	.loc	5 0 0 is_stmt 0         // kernel/block/mas_bkops_core.c:0:0
	ldr	w9, [sp, #4]
	.loc	5 121 21                // kernel/block/mas_bkops_core.c:121:21
	cbnz	w9, .LBB0_5
.Ltmp11:
// %bb.4:
	//DEBUG_VALUE: mas_bkops_query:ret <- $w20
	//DEBUG_VALUE: bkops_idle_work_func:ret <- $w20
	//DEBUG_VALUE: bkops_idle_work_func:bkops <- [DW_OP_constu 32, DW_OP_minus, DW_OP_stack_value] $x19
	//DEBUG_VALUE: bkops_idle_work_func:bkops_status <- [DW_OP_plus_uconst 4, DW_OP_deref] $sp
	//DEBUG_VALUE: mas_bkops_query:bkops <- [DW_OP_constu 32, DW_OP_minus, DW_OP_stack_value] $x19
	//DEBUG_VALUE: mas_bkops_query:bkops_status <- [DW_OP_plus_uconst 4] $sp
	//DEBUG_VALUE: bkops_idle_work_func:work <- $x19
	.loc	5 122 18 is_stmt 1      // kernel/block/mas_bkops_core.c:122:18
	strb	wzr, [x8, :lo12:user_manual_gc]
.Ltmp12:
.LBB0_5:
	//DEBUG_VALUE: mas_bkops_query:ret <- $w20
	//DEBUG_VALUE: bkops_idle_work_func:ret <- $w20
	//DEBUG_VALUE: bkops_idle_work_func:bkops <- [DW_OP_constu 32, DW_OP_minus, DW_OP_stack_value] $x19
	//DEBUG_VALUE: bkops_idle_work_func:bkops_status <- [DW_OP_plus_uconst 4, DW_OP_deref] $sp
	//DEBUG_VALUE: mas_bkops_query:bkops <- [DW_OP_constu 32, DW_OP_minus, DW_OP_stack_value] $x19
	//DEBUG_VALUE: mas_bkops_query:bkops_status <- [DW_OP_plus_uconst 4] $sp
	//DEBUG_VALUE: bkops_idle_work_func:work <- $x19
	//DEBUG_LABEL: mas_bkops_query:out
	.loc	5 140 2                 // kernel/block/mas_bkops_core.c:140:2
	adrp	x0, bkops_lock
	add	x0, x0, :lo12:bkops_lock
	bl	mutex_unlock
.Ltmp13:
	.loc	5 226 6                 // kernel/block/mas_bkops_core.c:226:6
	cbz	w20, .LBB0_8
.Ltmp14:
// %bb.6:
	//DEBUG_VALUE: bkops_idle_work_func:ret <- $w20
	//DEBUG_VALUE: bkops_idle_work_func:bkops <- [DW_OP_constu 32, DW_OP_minus, DW_OP_stack_value] $x19
	//DEBUG_VALUE: bkops_idle_work_func:bkops_status <- [DW_OP_plus_uconst 4, DW_OP_deref] $sp
	//DEBUG_VALUE: bkops_idle_work_func:work <- $x19
	.loc	5 227 3                 // kernel/block/mas_bkops_core.c:227:3
	adrp	x0, .L.str
	add	x0, x0, :lo12:.L.str
.Ltmp15:
.LBB0_7:
	.loc	5 0 0 is_stmt 0         // kernel/block/mas_bkops_core.c:0:0
	bl	printk
	b	.LBB0_19
.LBB0_8:
.Ltmp16:
	//DEBUG_VALUE: bkops_idle_work_func:bkops <- [DW_OP_constu 32, DW_OP_minus, DW_OP_stack_value] $x19
	//DEBUG_VALUE: bkops_idle_work_func:bkops_status <- [DW_OP_plus_uconst 4, DW_OP_deref] $sp
	//DEBUG_VALUE: bkops_idle_work_func:work <- $x19
	//DEBUG_VALUE: test_bit:addr <- undef
	.loc	5 230 20 is_stmt 1      // kernel/block/mas_bkops_core.c:230:20
	mov	x20, x19
	ldr	x8, [x20, #96]!
	and	x8, x8, #0xfffffffffffffffd
	str	x8, [x20]
	.loc	5 233 24                // kernel/block/mas_bkops_core.c:233:24
	ldr	w8, [sp, #4]
.Ltmp17:
	//DEBUG_VALUE: bkops_idle_work_func:bkops_status <- $w8
	.loc	5 212 45                // kernel/block/mas_bkops_core.c:212:45
	ldur	x0, [x20, #-104]
.Ltmp18:
	.loc	5 233 22                // kernel/block/mas_bkops_core.c:233:22
	str	w8, [x20, #72]
.Ltmp19:
	//DEBUG_VALUE: bkops_fs_work_end_states:bkops_status <- [DW_OP_plus_uconst 4] $sp
	//DEBUG_VALUE: bkops_fs_work_end_states:bkops <- [DW_OP_constu 32, DW_OP_minus, DW_OP_stack_value] $x19
	//DEBUG_VALUE: bkops_idle_work_func:bkops_status <- [DW_OP_plus_uconst 4, DW_OP_deref] $sp
	.loc	5 212 6                 // kernel/block/mas_bkops_core.c:212:6
	bl	blk_queue_query_unistore_enable
	tbz	w0, #0, .LBB0_12
.Ltmp20:
// %bb.9:
	//DEBUG_VALUE: bkops_fs_work_end_states:bkops <- [DW_OP_constu 32, DW_OP_minus, DW_OP_stack_value] $x19
	//DEBUG_VALUE: bkops_fs_work_end_states:bkops_status <- [DW_OP_plus_uconst 4] $sp
	//DEBUG_VALUE: bkops_idle_work_func:bkops <- [DW_OP_constu 32, DW_OP_minus, DW_OP_stack_value] $x19
	//DEBUG_VALUE: bkops_idle_work_func:bkops_status <- [DW_OP_plus_uconst 4, DW_OP_deref] $sp
	//DEBUG_VALUE: bkops_idle_work_func:work <- $x19
	.loc	5 213 11                // kernel/block/mas_bkops_core.c:213:11
	ldur	w8, [x19, #-32]
	.loc	5 213 43 is_stmt 0      // kernel/block/mas_bkops_core.c:213:43
	cmp	w8, #2                  // =2
	b.ne	.LBB0_12
.Ltmp21:
// %bb.10:
	//DEBUG_VALUE: bkops_fs_work_end_states:bkops <- [DW_OP_constu 32, DW_OP_minus, DW_OP_stack_value] $x19
	//DEBUG_VALUE: bkops_fs_work_end_states:bkops_status <- [DW_OP_plus_uconst 4] $sp
	//DEBUG_VALUE: bkops_idle_work_func:bkops <- [DW_OP_constu 32, DW_OP_minus, DW_OP_stack_value] $x19
	//DEBUG_VALUE: bkops_idle_work_func:bkops_status <- [DW_OP_plus_uconst 4, DW_OP_deref] $sp
	//DEBUG_VALUE: bkops_idle_work_func:work <- $x19
	.loc	5 213 48                // kernel/block/mas_bkops_core.c:213:48
	ldr	w8, [sp, #4]
	cbnz	w8, .LBB0_13
.Ltmp22:
// %bb.11:
	//DEBUG_VALUE: bkops_fs_work_end_states:bkops <- [DW_OP_constu 32, DW_OP_minus, DW_OP_stack_value] $x19
	//DEBUG_VALUE: bkops_fs_work_end_states:bkops_status <- [DW_OP_plus_uconst 4] $sp
	//DEBUG_VALUE: bkops_idle_work_func:bkops <- [DW_OP_constu 32, DW_OP_minus, DW_OP_stack_value] $x19
	//DEBUG_VALUE: bkops_idle_work_func:bkops_status <- [DW_OP_plus_uconst 4, DW_OP_deref] $sp
	//DEBUG_VALUE: bkops_idle_work_func:work <- $x19
	.loc	5 214 3 is_stmt 1       // kernel/block/mas_bkops_core.c:214:3
	orr	w0, wzr, #0x7
	mov	x1, x20
	bl	clear_bit
.Ltmp23:
.LBB0_12:
	//DEBUG_VALUE: bkops_idle_work_func:bkops <- [DW_OP_constu 32, DW_OP_minus, DW_OP_stack_value] $x19
	//DEBUG_VALUE: bkops_idle_work_func:bkops_status <- [DW_OP_plus_uconst 4, DW_OP_deref] $sp
	//DEBUG_VALUE: bkops_idle_work_func:work <- $x19
	.loc	5 239 6                 // kernel/block/mas_bkops_core.c:239:6
	ldr	w8, [sp, #4]
.Ltmp24:
	//DEBUG_VALUE: bkops_idle_work_func:bkops_status <- $w8
	.loc	5 0 6 is_stmt 0         // kernel/block/mas_bkops_core.c:0:6
	cbz	w8, .LBB0_19
.Ltmp25:
.LBB0_13:
	//DEBUG_VALUE: bkops_idle_work_func:bkops <- [DW_OP_constu 32, DW_OP_minus, DW_OP_stack_value] $x19
	//DEBUG_VALUE: bkops_idle_work_func:work <- $x19
	//DEBUG_VALUE: test_bit:nr <- 0
	.file	153 "/mnt/disk/jenkins/ci/workspace/chipset_pipeline_release/opensource/component_code/vendor/huawei/extra/build/build_script/kirin_kernel_release/kernel/include/asm-generic/bitops/non-atomic.h"
	.loc	153 106 16 is_stmt 1    // kernel/include/asm-generic/bitops/non-atomic.h:106:16
	ldr	x8, [x20]
	tbnz	w8, #0, .LBB0_19
.Ltmp26:
// %bb.14:
	//DEBUG_VALUE: bkops_idle_work_func:bkops <- [DW_OP_constu 32, DW_OP_minus, DW_OP_stack_value] $x19
	//DEBUG_VALUE: bkops_idle_work_func:work <- $x19
	//DEBUG_VALUE: mas_bkops_start:bkops <- [DW_OP_constu 32, DW_OP_minus, DW_OP_stack_value] $x19
	//DEBUG_VALUE: mas_bkops_start:ret <- 0
	.loc	5 147 41                // kernel/block/mas_bkops_core.c:147:41
	ldur	x22, [x19, #-24]
.Ltmp27:
	//DEBUG_VALUE: mas_bkops_start:bkops_ops_p <- $x22
	.loc	5 157 2                 // kernel/block/mas_bkops_core.c:157:2
	adrp	x0, bkops_lock
	add	x0, x0, :lo12:bkops_lock
	bl	mutex_lock
.Ltmp28:
	.loc	5 158 7                 // kernel/block/mas_bkops_core.c:158:7
	ldrb	w8, [x21, :lo12:bkops_enabled]
.Ltmp29:
	.loc	5 158 6 is_stmt 0       // kernel/block/mas_bkops_core.c:158:6
	cmp	w8, #1                  // =1
	b.ne	.LBB0_16
.Ltmp30:
// %bb.15:
	//DEBUG_VALUE: mas_bkops_start:bkops_ops_p <- $x22
	//DEBUG_VALUE: mas_bkops_start:bkops <- [DW_OP_constu 32, DW_OP_minus, DW_OP_stack_value] $x19
	//DEBUG_VALUE: bkops_idle_work_func:bkops <- [DW_OP_constu 32, DW_OP_minus, DW_OP_stack_value] $x19
	//DEBUG_VALUE: bkops_idle_work_func:work <- $x19
	//DEBUG_LABEL: mas_bkops_start:out
	.loc	5 180 2 is_stmt 1       // kernel/block/mas_bkops_core.c:180:2
	adrp	x0, bkops_lock
	add	x0, x0, :lo12:bkops_lock
	bl	mutex_unlock
	b	.LBB0_18
.Ltmp31:
.LBB0_16:
	//DEBUG_VALUE: mas_bkops_start:bkops_ops_p <- $x22
	//DEBUG_VALUE: mas_bkops_start:bkops <- [DW_OP_constu 32, DW_OP_minus, DW_OP_stack_value] $x19
	//DEBUG_VALUE: bkops_idle_work_func:bkops <- [DW_OP_constu 32, DW_OP_minus, DW_OP_stack_value] $x19
	//DEBUG_VALUE: bkops_idle_work_func:work <- $x19
	.loc	5 161 21                // kernel/block/mas_bkops_core.c:161:21
	ldr	x8, [x22]
	.loc	5 161 45 is_stmt 0      // kernel/block/mas_bkops_core.c:161:45
	ldur	x0, [x19, #-16]
	.loc	5 161 8                 // kernel/block/mas_bkops_core.c:161:8
	orr	w1, wzr, #0x1
	blr	x8
	mov	w19, w0
.Ltmp32:
	//DEBUG_LABEL: mas_bkops_start:out
	//DEBUG_VALUE: mas_bkops_start:ret <- $w19
	//DEBUG_VALUE: bkops_idle_work_func:ret <- $w19
	.loc	5 180 2 is_stmt 1       // kernel/block/mas_bkops_core.c:180:2
	adrp	x0, bkops_lock
	add	x0, x0, :lo12:bkops_lock
	bl	mutex_unlock
.Ltmp33:
	.loc	5 241 7                 // kernel/block/mas_bkops_core.c:241:7
	cbz	w19, .LBB0_18
.Ltmp34:
// %bb.17:
	//DEBUG_VALUE: bkops_idle_work_func:ret <- $w19
	.loc	5 242 4                 // kernel/block/mas_bkops_core.c:242:4
	adrp	x0, .L.str.1
	add	x0, x0, :lo12:.L.str.1
	b	.LBB0_7
.Ltmp35:
.LBB0_18:
	.loc	5 244 4                 // kernel/block/mas_bkops_core.c:244:4
	mov	w0, wzr
	mov	x1, x20
	bl	set_bit
.Ltmp36:
.LBB0_19:
	.loc	5 0 4 is_stmt 0         // kernel/block/mas_bkops_core.c:0:4
	adrp	x9, __stack_chk_guard
	ldr	x8, [sp, #8]
	ldr	x9, [x9, :lo12:__stack_chk_guard]
	cmp	x9, x8
	b.ne	.LBB0_21
// %bb.20:
	.loc	5 246 1 is_stmt 1       // kernel/block/mas_bkops_core.c:246:1
	ldp	x29, x30, [sp, #48]     // 16-byte Folded Reload
	ldp	x20, x19, [sp, #32]     // 16-byte Folded Reload
	ldp	x22, x21, [sp, #16]     // 16-byte Folded Reload
	add	sp, sp, #64             // =64
	ret
.Ltmp37:
.LBB0_21:
	.loc	5 0 1 is_stmt 0         // kernel/block/mas_bkops_core.c:0:1
	bl	__stack_chk_fail
.Lfunc_end0:
	.size	bkops_idle_work_func, .Lfunc_end0-bkops_idle_work_func
	.cfi_endproc
                                        // -- End function
	.section	.text.bkops_io_busyidle_notify_handler,"ax",@progbits
	.hidden	bkops_io_busyidle_notify_handler // -- Begin function bkops_io_busyidle_notify_handler
	.globl	bkops_io_busyidle_notify_handler
	.p2align	2
	.type	bkops_io_busyidle_notify_handler,@function
bkops_io_busyidle_notify_handler:       // @bkops_io_busyidle_notify_handler
.Lfunc_begin1:
	.loc	5 364 0 is_stmt 1       // kernel/block/mas_bkops_core.c:364:0
	.cfi_startproc
// %bb.0:
	//DEBUG_VALUE: bkops_io_busyidle_notify_handler:event_node <- $x0
	//DEBUG_VALUE: bkops_io_busyidle_notify_handler:state <- $w1
	stp	x20, x19, [sp, #-32]!   // 16-byte Folded Spill
	stp	x29, x30, [sp, #16]     // 16-byte Folded Spill
	add	x29, sp, #16            // =16
	.cfi_def_cfa w29, 16
	.cfi_offset w30, -8
	.cfi_offset w29, -16
	.cfi_offset w19, -24
	.cfi_offset w20, -32
.Ltmp38:
	.loc	5 372 2 prologue_end    // kernel/block/mas_bkops_core.c:372:2
	sub	w8, w1, #2              // =2
	cmp	w8, #2                  // =2
.Ltmp39:
	//DEBUG_VALUE: bkops_io_busyidle_notify_handler:ret <- 0
	//DEBUG_VALUE: bkops_io_busyidle_notify_handler:event_node <- $x0
	b.lo	.LBB1_22
.Ltmp40:
// %bb.1:
	//DEBUG_VALUE: bkops_io_busyidle_notify_handler:state <- $w1
	//DEBUG_VALUE: bkops_io_busyidle_notify_handler:event_node <- $x0
	.loc	5 0 0 is_stmt 0         // kernel/block/mas_bkops_core.c:0:0
	ldr	x19, [x0, #40]
.Ltmp41:
	//DEBUG_VALUE: bkops_io_busyidle_notify_handler:bkops <- $x19
	//DEBUG_VALUE: bkops_idle_notify_unistore:bkops <- $x19
	//DEBUG_VALUE: bkops_busy_notify_unistore:bkops <- $x19
	//DEBUG_VALUE: mas_bkops_stop:bkops <- $x19
	mov	w20, w1
.Ltmp42:
	//DEBUG_VALUE: bkops_io_busyidle_notify_handler:state <- $w20
	.loc	5 372 2                 // kernel/block/mas_bkops_core.c:372:2
	cbz	w1, .LBB1_12
.Ltmp43:
// %bb.2:
	//DEBUG_VALUE: bkops_io_busyidle_notify_handler:state <- $w20
	//DEBUG_VALUE: bkops_io_busyidle_notify_handler:bkops <- $x19
	//DEBUG_VALUE: bkops_io_busyidle_notify_handler:event_node <- $x0
	cmp	w20, #1                 // =1
	b.ne	.LBB1_20
.Ltmp44:
// %bb.3:
	//DEBUG_VALUE: bkops_io_busyidle_notify_handler:state <- $w20
	//DEBUG_VALUE: bkops_io_busyidle_notify_handler:bkops <- $x19
	//DEBUG_VALUE: bkops_io_busyidle_notify_handler:event_node <- $x0
	.loc	5 330 46 is_stmt 1      // kernel/block/mas_bkops_core.c:330:46
	ldr	x0, [x19, #24]
.Ltmp45:
	.loc	5 330 7 is_stmt 0       // kernel/block/mas_bkops_core.c:330:7
	bl	blk_queue_query_unistore_enable
	.loc	5 330 49                // kernel/block/mas_bkops_core.c:330:49
	tbnz	w0, #0, .LBB1_5
.Ltmp46:
// %bb.4:
	//DEBUG_VALUE: bkops_io_busyidle_notify_handler:state <- $w20
	//DEBUG_VALUE: bkops_io_busyidle_notify_handler:bkops <- $x19
	.loc	5 331 4 is_stmt 1       // kernel/block/mas_bkops_core.c:331:4
	mov	x0, x19
	bl	bkops_should_query
.Ltmp47:
	.loc	5 330 6                 // kernel/block/mas_bkops_core.c:330:6
	cbz	w0, .LBB1_23
.Ltmp48:
.LBB1_5:
	//DEBUG_VALUE: bkops_io_busyidle_notify_handler:state <- $w20
	//DEBUG_VALUE: bkops_io_busyidle_notify_handler:bkops <- $x19
	.loc	5 334 45                // kernel/block/mas_bkops_core.c:334:45
	ldr	x0, [x19, #24]
	.loc	5 334 6 is_stmt 0       // kernel/block/mas_bkops_core.c:334:6
	bl	blk_queue_query_unistore_enable
.Ltmp49:
	.loc	5 334 6                 // kernel/block/mas_bkops_core.c:334:6
	tbz	w0, #0, .LBB1_11
.Ltmp50:
// %bb.6:
	//DEBUG_VALUE: bkops_io_busyidle_notify_handler:state <- $w20
	//DEBUG_VALUE: bkops_io_busyidle_notify_handler:bkops <- $x19
	.loc	5 335 14 is_stmt 1      // kernel/block/mas_bkops_core.c:335:14
	ldr	w8, [x19]
.Ltmp51:
	.loc	5 335 7 is_stmt 0       // kernel/block/mas_bkops_core.c:335:7
	cmp	w8, #2                  // =2
	b.ne	.LBB1_9
.Ltmp52:
// %bb.7:
	//DEBUG_VALUE: bkops_io_busyidle_notify_handler:state <- $w20
	//DEBUG_VALUE: bkops_io_busyidle_notify_handler:bkops <- $x19
	.loc	5 336 38 is_stmt 1      // kernel/block/mas_bkops_core.c:336:38
	add	x1, x19, #128           // =128
.Ltmp53:
	//DEBUG_VALUE: test_bit:addr <- $x1
	.loc	5 336 4 is_stmt 0       // kernel/block/mas_bkops_core.c:336:4
	orr	w0, wzr, #0x6
	bl	set_bit
.Ltmp54:
	//DEBUG_VALUE: test_bit:nr <- 7
	.loc	153 106 16 is_stmt 1    // kernel/include/asm-generic/bitops/non-atomic.h:106:16
	ldr	x8, [x19, #128]
.Ltmp55:
	.loc	5 337 8                 // kernel/block/mas_bkops_core.c:337:8
	tbz	w8, #7, .LBB1_22
.Ltmp56:
// %bb.8:
	//DEBUG_VALUE: bkops_io_busyidle_notify_handler:state <- $w20
	//DEBUG_VALUE: bkops_io_busyidle_notify_handler:bkops <- $x19
	.loc	5 340 15                // kernel/block/mas_bkops_core.c:340:15
	ldr	w8, [x19]
	.loc	5 340 47 is_stmt 0      // kernel/block/mas_bkops_core.c:340:47
	cmp	w8, #2                  // =2
	b.eq	.LBB1_10
.Ltmp57:
.LBB1_9:
	//DEBUG_VALUE: bkops_io_busyidle_notify_handler:state <- $w20
	//DEBUG_VALUE: bkops_io_busyidle_notify_handler:bkops <- $x19
	.loc	5 340 51                // kernel/block/mas_bkops_core.c:340:51
	mov	x0, x19
	bl	bkops_should_query
.Ltmp58:
	.loc	5 340 7                 // kernel/block/mas_bkops_core.c:340:7
	cbz	w0, .LBB1_23
.Ltmp59:
.LBB1_10:
	//DEBUG_VALUE: bkops_io_busyidle_notify_handler:state <- $w20
	//DEBUG_VALUE: bkops_io_busyidle_notify_handler:bkops <- $x19
	//DEBUG_VALUE: test_bit:addr <- [DW_OP_plus_uconst 128, DW_OP_stack_value] $x19
	//DEBUG_VALUE: test_bit:nr <- 5
	.loc	153 106 16 is_stmt 1    // kernel/include/asm-generic/bitops/non-atomic.h:106:16
	ldr	x8, [x19, #128]
.Ltmp60:
	.loc	5 342 7                 // kernel/block/mas_bkops_core.c:342:7
	tbnz	w8, #5, .LBB1_22
.Ltmp61:
.LBB1_11:
	//DEBUG_VALUE: bkops_io_busyidle_notify_handler:state <- $w20
	//DEBUG_VALUE: bkops_io_busyidle_notify_handler:bkops <- $x19
	.loc	5 346 44                // kernel/block/mas_bkops_core.c:346:44
	add	x1, x19, #128           // =128
	.loc	5 346 2 is_stmt 0       // kernel/block/mas_bkops_core.c:346:2
	mov	w0, #5
	bl	set_bit
	.loc	5 347 21 is_stmt 1      // kernel/block/mas_bkops_core.c:347:21
	adrp	x8, bkops_workqueue_g
	.loc	5 348 27                // kernel/block/mas_bkops_core.c:348:27
	ldr	w0, [x19, #136]
	.loc	5 347 21                // kernel/block/mas_bkops_core.c:347:21
	ldr	x20, [x8, :lo12:bkops_workqueue_g]
.Ltmp62:
	.loc	5 347 48 is_stmt 0      // kernel/block/mas_bkops_core.c:347:48
	add	x19, x19, #32           // =32
.Ltmp63:
	//DEBUG_VALUE: msecs_to_jiffies:m <- $w0
	.file	154 "/mnt/disk/jenkins/ci/workspace/chipset_pipeline_release/opensource/component_code/vendor/huawei/extra/build/build_script/kirin_kernel_release/kernel/include/linux/jiffies.h"
	.loc	154 370 10 is_stmt 1    // kernel/include/linux/jiffies.h:370:10
	bl	__msecs_to_jiffies
.Ltmp64:
	mov	x3, x0
.Ltmp65:
	//DEBUG_VALUE: queue_delayed_work:delay <- $x3
	//DEBUG_VALUE: queue_delayed_work:dwork <- $x19
	//DEBUG_VALUE: queue_delayed_work:wq <- $x20
	.loc	53 506 9                // kernel/include/linux/workqueue.h:506:9
	orr	w0, wzr, #0x8
	mov	x1, x20
	mov	x2, x19
	bl	queue_delayed_work_on
.Ltmp66:
	.loc	53 0 9 is_stmt 0        // kernel/include/linux/workqueue.h:0:9
	orr	w0, wzr, #0x1
	b	.LBB1_23
.Ltmp67:
.LBB1_12:
	//DEBUG_VALUE: bkops_io_busyidle_notify_handler:state <- $w20
	//DEBUG_VALUE: bkops_busy_notify_unistore:bkops <- $x19
	//DEBUG_VALUE: bkops_io_busyidle_notify_handler:bkops <- $x19
	//DEBUG_VALUE: bkops_io_busyidle_notify_handler:event_node <- $x0
	.loc	5 355 45 is_stmt 1      // kernel/block/mas_bkops_core.c:355:45
	ldr	x0, [x19, #24]
.Ltmp68:
	.loc	5 355 6 is_stmt 0       // kernel/block/mas_bkops_core.c:355:6
	bl	blk_queue_query_unistore_enable
	.loc	5 355 48                // kernel/block/mas_bkops_core.c:355:48
	tbz	w0, #0, .LBB1_15
.Ltmp69:
// %bb.13:
	//DEBUG_VALUE: bkops_io_busyidle_notify_handler:state <- $w20
	//DEBUG_VALUE: bkops_busy_notify_unistore:bkops <- $x19
	//DEBUG_VALUE: bkops_io_busyidle_notify_handler:bkops <- $x19
	.loc	5 356 11 is_stmt 1      // kernel/block/mas_bkops_core.c:356:11
	ldr	w8, [x19]
.Ltmp70:
	.loc	5 355 6                 // kernel/block/mas_bkops_core.c:355:6
	cmp	w8, #2                  // =2
	b.ne	.LBB1_15
.Ltmp71:
// %bb.14:
	//DEBUG_VALUE: bkops_io_busyidle_notify_handler:state <- $w20
	//DEBUG_VALUE: bkops_busy_notify_unistore:bkops <- $x19
	//DEBUG_VALUE: bkops_io_busyidle_notify_handler:bkops <- $x19
	.loc	5 357 39                // kernel/block/mas_bkops_core.c:357:39
	add	x1, x19, #128           // =128
	.loc	5 357 3 is_stmt 0       // kernel/block/mas_bkops_core.c:357:3
	orr	w0, wzr, #0x6
	bl	clear_bit
.Ltmp72:
.LBB1_15:
	//DEBUG_VALUE: bkops_io_busyidle_notify_handler:state <- $w20
	//DEBUG_VALUE: bkops_io_busyidle_notify_handler:bkops <- $x19
	.loc	5 390 42 is_stmt 1      // kernel/block/mas_bkops_core.c:390:42
	add	x20, x19, #128          // =128
.Ltmp73:
	//DEBUG_VALUE: test_bit:addr <- $x20
	.loc	5 389 8                 // kernel/block/mas_bkops_core.c:389:8
	mov	w0, #5
	mov	x1, x20
	bl	test_and_clear_bit
.Ltmp74:
	.loc	5 389 7 is_stmt 0       // kernel/block/mas_bkops_core.c:389:7
	cbz	w0, .LBB1_23
.Ltmp75:
// %bb.16:
	//DEBUG_VALUE: test_bit:addr <- $x20
	//DEBUG_VALUE: bkops_io_busyidle_notify_handler:bkops <- $x19
	.loc	5 393 36 is_stmt 1      // kernel/block/mas_bkops_core.c:393:36
	add	x0, x19, #32            // =32
	.loc	5 393 3 is_stmt 0       // kernel/block/mas_bkops_core.c:393:3
	bl	cancel_delayed_work_sync
.Ltmp76:
	//DEBUG_VALUE: test_bit:nr <- 0
	.loc	153 106 16 is_stmt 1    // kernel/include/asm-generic/bitops/non-atomic.h:106:16
	ldr	x8, [x19, #128]
.Ltmp77:
	.loc	5 401 7                 // kernel/block/mas_bkops_core.c:401:7
	tbz	w8, #0, .LBB1_22
.Ltmp78:
// %bb.17:
	//DEBUG_VALUE: bkops_io_busyidle_notify_handler:bkops <- $x19
	.loc	5 195 2                 // kernel/block/mas_bkops_core.c:195:2
	adrp	x0, bkops_lock
	add	x0, x0, :lo12:bkops_lock
	bl	mutex_lock
.Ltmp79:
	.loc	5 196 7                 // kernel/block/mas_bkops_core.c:196:7
	adrp	x8, bkops_enabled
	ldrb	w8, [x8, :lo12:bkops_enabled]
.Ltmp80:
	.loc	5 196 6 is_stmt 0       // kernel/block/mas_bkops_core.c:196:6
	tbnz	w8, #0, .LBB1_19
.Ltmp81:
// %bb.18:
	//DEBUG_VALUE: bkops_io_busyidle_notify_handler:bkops <- $x19
	.loc	5 199 9 is_stmt 1       // kernel/block/mas_bkops_core.c:199:9
	ldp	x8, x0, [x19, #8]
	.loc	5 199 2 is_stmt 0       // kernel/block/mas_bkops_core.c:199:2
	mov	w1, wzr
	.loc	5 199 20                // kernel/block/mas_bkops_core.c:199:20
	ldr	x8, [x8]
	.loc	5 199 2                 // kernel/block/mas_bkops_core.c:199:2
	blr	x8
.Ltmp82:
.LBB1_19:
	//DEBUG_VALUE: bkops_io_busyidle_notify_handler:bkops <- $x19
	//DEBUG_LABEL: mas_bkops_stop:out
	.loc	5 205 2 is_stmt 1       // kernel/block/mas_bkops_core.c:205:2
	adrp	x0, bkops_lock
	add	x0, x0, :lo12:bkops_lock
	bl	mutex_unlock
.Ltmp83:
	.loc	5 403 4                 // kernel/block/mas_bkops_core.c:403:4
	mov	w0, wzr
	mov	x1, x20
	bl	clear_bit
	b	.LBB1_22
.Ltmp84:
.LBB1_20:
	//DEBUG_VALUE: bkops_io_busyidle_notify_handler:state <- $w20
	//DEBUG_VALUE: bkops_io_busyidle_notify_handler:bkops <- $x19
	//DEBUG_VALUE: bkops_io_busyidle_notify_handler:event_node <- $x0
	.loc	5 414 3                 // kernel/block/mas_bkops_core.c:414:3
	adrp	x0, bkops_io_busyidle_notify_handler._rs
.Ltmp85:
	adrp	x1, .L__func__.bkops_io_busyidle_notify_handler
	add	x0, x0, :lo12:bkops_io_busyidle_notify_handler._rs
	add	x1, x1, :lo12:.L__func__.bkops_io_busyidle_notify_handler
	bl	___ratelimit
.Ltmp86:
	.loc	5 414 3 is_stmt 0       // kernel/block/mas_bkops_core.c:414:3
	cbz	w0, .LBB1_23
.Ltmp87:
// %bb.21:
	//DEBUG_VALUE: bkops_io_busyidle_notify_handler:state <- $w20
	//DEBUG_VALUE: bkops_io_busyidle_notify_handler:bkops <- $x19
	.loc	5 414 3                 // kernel/block/mas_bkops_core.c:414:3
	adrp	x0, .L.str.2
	adrp	x1, .L__func__.bkops_io_busyidle_notify_handler
	add	x0, x0, :lo12:.L.str.2
	add	x1, x1, :lo12:.L__func__.bkops_io_busyidle_notify_handler
	mov	w2, w20
	bl	printk
.Ltmp88:
.LBB1_22:
	.loc	5 0 0                   // kernel/block/mas_bkops_core.c:0:0
	mov	w0, wzr
.LBB1_23:
.Ltmp89:
	//DEBUG_VALUE: bkops_io_busyidle_notify_handler:ret <- $w0
	.loc	5 418 2 is_stmt 1       // kernel/block/mas_bkops_core.c:418:2
	ldp	x29, x30, [sp, #16]     // 16-byte Folded Reload
	ldp	x20, x19, [sp], #32     // 16-byte Folded Reload
	ret
.Ltmp90:
.Lfunc_end1:
	.size	bkops_io_busyidle_notify_handler, .Lfunc_end1-bkops_io_busyidle_notify_handler
	.cfi_endproc
                                        // -- End function
	.section	.text.mas_bkops_work_query,"ax",@progbits
	.hidden	mas_bkops_work_query    // -- Begin function mas_bkops_work_query
	.globl	mas_bkops_work_query
	.p2align	2
	.type	mas_bkops_work_query,@function
mas_bkops_work_query:                   // @mas_bkops_work_query
.Lfunc_begin2:
	.loc	5 461 0                 // kernel/block/mas_bkops_core.c:461:0
	.cfi_startproc
// %bb.0:
	//DEBUG_VALUE: mas_bkops_work_query:bdev <- $x0
	sub	sp, sp, #64             // =64
	str	x21, [sp, #16]          // 8-byte Folded Spill
	stp	x20, x19, [sp, #32]     // 16-byte Folded Spill
	stp	x29, x30, [sp, #48]     // 16-byte Folded Spill
	add	x29, sp, #48            // =48
	.cfi_def_cfa w29, 16
	.cfi_offset w30, -8
	.cfi_offset w29, -16
	.cfi_offset w19, -24
	.cfi_offset w20, -32
	.cfi_offset w21, -48
	adrp	x8, __stack_chk_guard
	ldr	x8, [x8, :lo12:__stack_chk_guard]
	mov	x19, x0
.Ltmp91:
	.loc	5 466 2 prologue_end    // kernel/block/mas_bkops_core.c:466:2
	mov	w0, #22
.Ltmp92:
	orr	w1, wzr, #0x1
	str	x8, [sp, #8]
.Ltmp93:
	//DEBUG_VALUE: mas_bkops_work_query:bkops_status <- 0
	//DEBUG_VALUE: mas_bkops_work_query:bkops <- 0
	//DEBUG_VALUE: mas_bkops_work_query:bdev <- $x19
	.loc	5 463 6                 // kernel/block/mas_bkops_core.c:463:6
	str	wzr, [sp, #4]
	.loc	5 466 2                 // kernel/block/mas_bkops_core.c:466:2
	bl	io_trace_unistore_count
.Ltmp94:
	//DEBUG_VALUE: mas_get_bkops:lld <- 0
	//DEBUG_VALUE: mas_get_bkops:bdev <- $x19
	.loc	5 426 6                 // kernel/block/mas_bkops_core.c:426:6
	cbz	x19, .LBB2_8
.Ltmp95:
// %bb.1:
	//DEBUG_VALUE: mas_get_bkops:bdev <- $x19
	//DEBUG_VALUE: mas_bkops_work_query:bdev <- $x19
	.loc	5 429 30                // kernel/block/mas_bkops_core.c:429:30
	ldr	x0, [x19, #168]
	.loc	5 429 8 is_stmt 0       // kernel/block/mas_bkops_core.c:429:8
	bl	mas_blk_get_lld
.Ltmp96:
	//DEBUG_VALUE: mas_get_bkops:lld <- $x0
	.loc	5 430 6 is_stmt 1       // kernel/block/mas_bkops_core.c:430:6
	cbz	x0, .LBB2_8
.Ltmp97:
// %bb.2:
	//DEBUG_VALUE: mas_get_bkops:lld <- $x0
	//DEBUG_VALUE: mas_get_bkops:bdev <- $x19
	//DEBUG_VALUE: mas_bkops_work_query:bdev <- $x19
	.loc	5 435 6                 // kernel/block/mas_bkops_core.c:435:6
	ldrb	w8, [x0, #25]
	tbz	w8, #0, .LBB2_7
.Ltmp98:
// %bb.3:
	//DEBUG_VALUE: mas_get_bkops:lld <- $x0
	//DEBUG_VALUE: mas_get_bkops:bdev <- $x19
	//DEBUG_VALUE: mas_bkops_work_query:bdev <- $x19
	.loc	5 0 6 is_stmt 0         // kernel/block/mas_bkops_core.c:0:6
	ldr	x20, [x0, #288]
.Ltmp99:
	//DEBUG_VALUE: mas_bkops_work_cancel:bkops <- $x20
	//DEBUG_VALUE: mas_bkops_query:bkops <- $x20
	//DEBUG_VALUE: mas_bkops_work_query:bkops <- $x20
	.loc	5 438 6 is_stmt 1       // kernel/block/mas_bkops_core.c:438:6
	cbz	x20, .LBB2_25
.Ltmp100:
// %bb.4:
	//DEBUG_VALUE: mas_bkops_work_query:bkops <- $x20
	//DEBUG_VALUE: mas_get_bkops:lld <- $x0
	//DEBUG_VALUE: mas_get_bkops:bdev <- $x19
	//DEBUG_VALUE: mas_bkops_work_query:bdev <- $x19
	.loc	5 440 16                // kernel/block/mas_bkops_core.c:440:16
	ldr	w8, [x20]
.Ltmp101:
	.loc	5 469 6                 // kernel/block/mas_bkops_core.c:469:6
	cmp	w8, #2                  // =2
	b.ne	.LBB2_7
.Ltmp102:
// %bb.5:
	//DEBUG_VALUE: mas_bkops_work_query:bkops <- $x20
	//DEBUG_VALUE: mas_bkops_work_query:bdev <- $x19
	//DEBUG_VALUE: test_bit:nr <- 6
	//DEBUG_VALUE: test_bit:addr <- undef
	//DEBUG_VALUE: test_bit:addr <- undef
	.loc	153 106 16              // kernel/include/asm-generic/bitops/non-atomic.h:106:16
	mov	x19, x20
.Ltmp103:
	ldr	x8, [x19, #128]!
.Ltmp104:
	.loc	5 475 6                 // kernel/block/mas_bkops_core.c:475:6
	tbnz	w8, #6, .LBB2_11
.Ltmp105:
// %bb.6:
	//DEBUG_VALUE: mas_bkops_work_query:bkops <- $x20
	.loc	5 0 6 is_stmt 0         // kernel/block/mas_bkops_core.c:0:6
	orr	w20, wzr, #0x4
.Ltmp106:
	b	.LBB2_9
.LBB2_7:
.Ltmp107:
	//DEBUG_VALUE: mas_get_bkops:lld <- $x0
	//DEBUG_VALUE: mas_get_bkops:bdev <- $x19
	//DEBUG_VALUE: mas_bkops_work_query:bdev <- $x19
	orr	w20, wzr, #0x1
	b	.LBB2_9
.Ltmp108:
.LBB2_8:
	//DEBUG_VALUE: mas_get_bkops:bdev <- $x19
	//DEBUG_VALUE: mas_bkops_work_query:bdev <- $x19
	orr	w20, wzr, #0x2
.Ltmp109:
.LBB2_9:
	adrp	x9, __stack_chk_guard
	ldr	x8, [sp, #8]
	ldr	x9, [x9, :lo12:__stack_chk_guard]
	cmp	x9, x8
	b.ne	.LBB2_26
// %bb.10:
	.loc	5 506 1 is_stmt 1       // kernel/block/mas_bkops_core.c:506:1
	mov	w0, w20
	ldp	x29, x30, [sp, #48]     // 16-byte Folded Reload
	ldp	x20, x19, [sp, #32]     // 16-byte Folded Reload
	ldr	x21, [sp, #16]          // 8-byte Folded Reload
	add	sp, sp, #64             // =64
	ret
.LBB2_11:
.Ltmp110:
	//DEBUG_VALUE: mas_bkops_work_query:bkops <- $x20
	//DEBUG_VALUE: test_bit:nr <- 0
	.loc	153 106 16              // kernel/include/asm-generic/bitops/non-atomic.h:106:16
	ldr	x8, [x19]
.Ltmp111:
	.loc	5 482 6                 // kernel/block/mas_bkops_core.c:482:6
	tbnz	w8, #0, .LBB2_16
.Ltmp112:
// %bb.12:
	//DEBUG_VALUE: mas_bkops_work_query:bkops <- $x20
	.loc	5 448 6                 // kernel/block/mas_bkops_core.c:448:6
	mov	w0, #5
	mov	x1, x19
	bl	test_and_clear_bit
.Ltmp113:
	.loc	5 448 6 is_stmt 0       // kernel/block/mas_bkops_core.c:448:6
	cbz	w0, .LBB2_14
.Ltmp114:
// %bb.13:
	//DEBUG_VALUE: mas_bkops_work_query:bkops <- $x20
	.loc	5 455 36 is_stmt 1      // kernel/block/mas_bkops_core.c:455:36
	add	x0, x20, #32            // =32
	.loc	5 455 3 is_stmt 0       // kernel/block/mas_bkops_core.c:455:3
	bl	cancel_delayed_work_sync
.Ltmp115:
.LBB2_14:
	//DEBUG_VALUE: mas_bkops_work_query:bkops <- $x20
	//DEBUG_VALUE: mas_bkops_work_query:bkops_status <- [DW_OP_plus_uconst 4, DW_OP_deref] $sp
	//DEBUG_VALUE: mas_bkops_query:bkops_status <- [DW_OP_plus_uconst 4] $sp
	//DEBUG_VALUE: mas_bkops_query:ret <- 0
	.loc	5 99 41 is_stmt 1       // kernel/block/mas_bkops_core.c:99:41
	ldr	x21, [x20, #8]
.Ltmp116:
	//DEBUG_VALUE: mas_bkops_query:bkops_ops_p <- $x21
	.loc	5 106 2                 // kernel/block/mas_bkops_core.c:106:2
	adrp	x0, bkops_lock
	add	x0, x0, :lo12:bkops_lock
	bl	mutex_lock
.Ltmp117:
	.loc	5 107 7                 // kernel/block/mas_bkops_core.c:107:7
	adrp	x8, bkops_enabled
	ldrb	w8, [x8, :lo12:bkops_enabled]
.Ltmp118:
	.loc	5 107 6 is_stmt 0       // kernel/block/mas_bkops_core.c:107:6
	cmp	w8, #1                  // =1
	b.ne	.LBB2_17
.Ltmp119:
// %bb.15:
	//DEBUG_VALUE: mas_bkops_query:bkops_ops_p <- $x21
	//DEBUG_VALUE: mas_bkops_query:bkops_status <- [DW_OP_plus_uconst 4] $sp
	//DEBUG_VALUE: mas_bkops_work_query:bkops_status <- [DW_OP_plus_uconst 4, DW_OP_deref] $sp
	//DEBUG_VALUE: mas_bkops_work_query:bkops <- $x20
	//DEBUG_LABEL: mas_bkops_query:out
	.loc	5 140 2 is_stmt 1       // kernel/block/mas_bkops_core.c:140:2
	adrp	x0, bkops_lock
	add	x0, x0, :lo12:bkops_lock
	bl	mutex_unlock
	b	.LBB2_22
.Ltmp120:
.LBB2_16:
	//DEBUG_VALUE: mas_bkops_work_query:bkops <- $x20
	.loc	5 0 2 is_stmt 0         // kernel/block/mas_bkops_core.c:0:2
	mov	w20, #5
.Ltmp121:
	b	.LBB2_9
.LBB2_17:
.Ltmp122:
	//DEBUG_VALUE: mas_bkops_query:bkops_ops_p <- $x21
	//DEBUG_VALUE: mas_bkops_query:bkops_status <- [DW_OP_plus_uconst 4] $sp
	//DEBUG_VALUE: mas_bkops_work_query:bkops_status <- [DW_OP_plus_uconst 4, DW_OP_deref] $sp
	//DEBUG_VALUE: mas_bkops_work_query:bkops <- $x20
	.loc	5 119 21 is_stmt 1      // kernel/block/mas_bkops_core.c:119:21
	ldr	x8, [x21, #8]
	.loc	5 120 10                // kernel/block/mas_bkops_core.c:120:10
	ldr	x0, [x20, #16]
	.loc	5 119 8                 // kernel/block/mas_bkops_core.c:119:8
	add	x1, sp, #4              // =4
	blr	x8
.Ltmp123:
	.loc	5 121 6                 // kernel/block/mas_bkops_core.c:121:6
	adrp	x8, user_manual_gc
	ldrb	w9, [x8, :lo12:user_manual_gc]
.Ltmp124:
	.loc	5 119 8                 // kernel/block/mas_bkops_core.c:119:8
	mov	w20, w0
.Ltmp125:
	//DEBUG_VALUE: mas_bkops_work_query:ret <- $w20
	//DEBUG_VALUE: mas_bkops_query:ret <- $w20
	.loc	5 121 21                // kernel/block/mas_bkops_core.c:121:21
	cbz	w9, .LBB2_20
.Ltmp126:
// %bb.18:
	//DEBUG_VALUE: mas_bkops_query:ret <- $w20
	//DEBUG_VALUE: mas_bkops_work_query:ret <- $w20
	//DEBUG_VALUE: mas_bkops_query:bkops_ops_p <- $x21
	//DEBUG_VALUE: mas_bkops_query:bkops_status <- [DW_OP_plus_uconst 4] $sp
	//DEBUG_VALUE: mas_bkops_work_query:bkops_status <- [DW_OP_plus_uconst 4, DW_OP_deref] $sp
	.loc	5 0 0 is_stmt 0         // kernel/block/mas_bkops_core.c:0:0
	ldr	w9, [sp, #4]
	.loc	5 121 21                // kernel/block/mas_bkops_core.c:121:21
	cbnz	w9, .LBB2_20
.Ltmp127:
// %bb.19:
	//DEBUG_VALUE: mas_bkops_query:ret <- $w20
	//DEBUG_VALUE: mas_bkops_work_query:ret <- $w20
	//DEBUG_VALUE: mas_bkops_query:bkops_ops_p <- $x21
	//DEBUG_VALUE: mas_bkops_query:bkops_status <- [DW_OP_plus_uconst 4] $sp
	//DEBUG_VALUE: mas_bkops_work_query:bkops_status <- [DW_OP_plus_uconst 4, DW_OP_deref] $sp
	.loc	5 122 18 is_stmt 1      // kernel/block/mas_bkops_core.c:122:18
	strb	wzr, [x8, :lo12:user_manual_gc]
.Ltmp128:
.LBB2_20:
	//DEBUG_VALUE: mas_bkops_query:ret <- $w20
	//DEBUG_VALUE: mas_bkops_work_query:ret <- $w20
	//DEBUG_VALUE: mas_bkops_query:bkops_ops_p <- $x21
	//DEBUG_VALUE: mas_bkops_query:bkops_status <- [DW_OP_plus_uconst 4] $sp
	//DEBUG_VALUE: mas_bkops_work_query:bkops_status <- [DW_OP_plus_uconst 4, DW_OP_deref] $sp
	//DEBUG_LABEL: mas_bkops_query:out
	.loc	5 140 2                 // kernel/block/mas_bkops_core.c:140:2
	adrp	x0, bkops_lock
	add	x0, x0, :lo12:bkops_lock
	bl	mutex_unlock
.Ltmp129:
	.loc	5 491 6                 // kernel/block/mas_bkops_core.c:491:6
	cbz	w20, .LBB2_22
.Ltmp130:
// %bb.21:
	//DEBUG_VALUE: mas_bkops_work_query:ret <- $w20
	//DEBUG_VALUE: mas_bkops_work_query:bkops_status <- [DW_OP_plus_uconst 4, DW_OP_deref] $sp
	.loc	5 492 3                 // kernel/block/mas_bkops_core.c:492:3
	adrp	x0, .L.str.3
	adrp	x1, .L__func__.mas_bkops_work_query
	add	x0, x0, :lo12:.L.str.3
	add	x1, x1, :lo12:.L__func__.mas_bkops_work_query
	mov	w2, w20
	bl	printk
	orr	w20, wzr, #0x6
.Ltmp131:
	.loc	5 0 3 is_stmt 0         // kernel/block/mas_bkops_core.c:0:3
	b	.LBB2_9
.Ltmp132:
.LBB2_22:
	//DEBUG_VALUE: mas_bkops_work_query:bkops_status <- [DW_OP_plus_uconst 4, DW_OP_deref] $sp
	.loc	5 496 7 is_stmt 1       // kernel/block/mas_bkops_core.c:496:7
	ldr	w8, [sp, #4]
.Ltmp133:
	//DEBUG_VALUE: mas_bkops_work_query:bkops_status <- $w8
	.loc	5 0 7 is_stmt 0         // kernel/block/mas_bkops_core.c:0:7
	cbz	w8, .LBB2_24
.Ltmp134:
// %bb.23:
	//DEBUG_VALUE: mas_bkops_work_query:bkops_status <- $w8
	orr	w20, wzr, #0x8
	b	.LBB2_9
.Ltmp135:
.LBB2_24:
	//DEBUG_VALUE: mas_bkops_work_query:bkops_status <- $w8
	.loc	5 497 3 is_stmt 1       // kernel/block/mas_bkops_core.c:497:3
	orr	w0, wzr, #0x7
	mov	x1, x19
	orr	w20, wzr, #0x7
	bl	clear_bit
.Ltmp136:
	.loc	5 0 3 is_stmt 0         // kernel/block/mas_bkops_core.c:0:3
	b	.LBB2_9
.Ltmp137:
.LBB2_25:
	//DEBUG_VALUE: mas_bkops_work_query:bkops <- $x20
	//DEBUG_VALUE: mas_bkops_query:bkops <- $x20
	//DEBUG_VALUE: mas_bkops_work_cancel:bkops <- $x20
	//DEBUG_VALUE: mas_get_bkops:lld <- $x0
	//DEBUG_VALUE: mas_get_bkops:bdev <- $x19
	//DEBUG_VALUE: mas_bkops_work_query:bdev <- $x19
	orr	w20, wzr, #0x3
.Ltmp138:
	b	.LBB2_9
.Ltmp139:
.LBB2_26:
	bl	__stack_chk_fail
.Lfunc_end2:
	.size	mas_bkops_work_query, .Lfunc_end2-mas_bkops_work_query
	.cfi_endproc
                                        // -- End function
	.section	.text.mas_bkops_work_start,"ax",@progbits
	.hidden	mas_bkops_work_start    // -- Begin function mas_bkops_work_start
	.globl	mas_bkops_work_start
	.p2align	2
	.type	mas_bkops_work_start,@function
mas_bkops_work_start:                   // @mas_bkops_work_start
.Lfunc_begin3:
	.loc	5 525 0 is_stmt 1       // kernel/block/mas_bkops_core.c:525:0
	.cfi_startproc
// %bb.0:
	//DEBUG_VALUE: mas_bkops_work_start:bdev <- $x0
	sub	sp, sp, #64             // =64
	stp	x22, x21, [sp, #16]     // 16-byte Folded Spill
	stp	x20, x19, [sp, #32]     // 16-byte Folded Spill
	stp	x29, x30, [sp, #48]     // 16-byte Folded Spill
	add	x29, sp, #48            // =48
	.cfi_def_cfa w29, 16
	.cfi_offset w30, -8
	.cfi_offset w29, -16
	.cfi_offset w19, -24
	.cfi_offset w20, -32
	.cfi_offset w21, -40
	.cfi_offset w22, -48
	adrp	x8, __stack_chk_guard
	ldr	x8, [x8, :lo12:__stack_chk_guard]
	mov	x19, x0
.Ltmp140:
	.loc	5 530 2 prologue_end    // kernel/block/mas_bkops_core.c:530:2
	mov	w0, #23
.Ltmp141:
	orr	w1, wzr, #0x1
	str	x8, [sp, #8]
.Ltmp142:
	//DEBUG_VALUE: mas_bkops_work_start:bkops_status <- 0
	//DEBUG_VALUE: mas_bkops_work_start:bkops <- 0
	//DEBUG_VALUE: mas_bkops_work_start:bdev <- $x19
	.loc	5 527 6                 // kernel/block/mas_bkops_core.c:527:6
	str	wzr, [sp, #4]
	.loc	5 530 2                 // kernel/block/mas_bkops_core.c:530:2
	bl	io_trace_unistore_count
.Ltmp143:
	//DEBUG_VALUE: mas_get_bkops:lld <- 0
	//DEBUG_VALUE: mas_get_bkops:bdev <- $x19
	.loc	5 426 6                 // kernel/block/mas_bkops_core.c:426:6
	cbz	x19, .LBB3_8
.Ltmp144:
// %bb.1:
	//DEBUG_VALUE: mas_get_bkops:bdev <- $x19
	//DEBUG_VALUE: mas_bkops_work_start:bdev <- $x19
	.loc	5 429 30                // kernel/block/mas_bkops_core.c:429:30
	ldr	x0, [x19, #168]
	.loc	5 429 8 is_stmt 0       // kernel/block/mas_bkops_core.c:429:8
	bl	mas_blk_get_lld
.Ltmp145:
	//DEBUG_VALUE: mas_get_bkops:lld <- $x0
	.loc	5 430 6 is_stmt 1       // kernel/block/mas_bkops_core.c:430:6
	cbz	x0, .LBB3_8
.Ltmp146:
// %bb.2:
	//DEBUG_VALUE: mas_get_bkops:lld <- $x0
	//DEBUG_VALUE: mas_get_bkops:bdev <- $x19
	//DEBUG_VALUE: mas_bkops_work_start:bdev <- $x19
	.loc	5 435 6                 // kernel/block/mas_bkops_core.c:435:6
	ldrb	w8, [x0, #25]
	tbz	w8, #0, .LBB3_7
.Ltmp147:
// %bb.3:
	//DEBUG_VALUE: mas_get_bkops:lld <- $x0
	//DEBUG_VALUE: mas_get_bkops:bdev <- $x19
	//DEBUG_VALUE: mas_bkops_work_start:bdev <- $x19
	.loc	5 0 6 is_stmt 0         // kernel/block/mas_bkops_core.c:0:6
	ldr	x21, [x0, #288]
.Ltmp148:
	//DEBUG_VALUE: mas_bkops_work_cancel:bkops <- $x21
	//DEBUG_VALUE: mas_bkops_query:bkops <- $x21
	//DEBUG_VALUE: mas_bkops_start:bkops <- $x21
	//DEBUG_VALUE: mas_bkops_work_start_ret:bkops <- $x21
	//DEBUG_VALUE: mas_bkops_work_start:bkops <- $x21
	.loc	5 438 6 is_stmt 1       // kernel/block/mas_bkops_core.c:438:6
	cbz	x21, .LBB3_29
.Ltmp149:
// %bb.4:
	//DEBUG_VALUE: mas_bkops_work_start:bkops <- $x21
	//DEBUG_VALUE: mas_get_bkops:lld <- $x0
	//DEBUG_VALUE: mas_get_bkops:bdev <- $x19
	//DEBUG_VALUE: mas_bkops_work_start:bdev <- $x19
	.loc	5 440 16                // kernel/block/mas_bkops_core.c:440:16
	ldr	w8, [x21]
.Ltmp150:
	.loc	5 533 6                 // kernel/block/mas_bkops_core.c:533:6
	cmp	w8, #2                  // =2
	b.ne	.LBB3_7
.Ltmp151:
// %bb.5:
	//DEBUG_VALUE: mas_bkops_work_start:bkops <- $x21
	//DEBUG_VALUE: mas_bkops_work_start:bdev <- $x19
	//DEBUG_VALUE: test_bit:nr <- 6
	//DEBUG_VALUE: test_bit:addr <- undef
	//DEBUG_VALUE: test_bit:addr <- undef
	.loc	153 106 16              // kernel/include/asm-generic/bitops/non-atomic.h:106:16
	mov	x19, x21
.Ltmp152:
	ldr	x8, [x19, #128]!
.Ltmp153:
	.loc	5 536 6                 // kernel/block/mas_bkops_core.c:536:6
	tbnz	w8, #6, .LBB3_11
.Ltmp154:
// %bb.6:
	//DEBUG_VALUE: mas_bkops_work_start:bkops <- $x21
	.loc	5 0 6 is_stmt 0         // kernel/block/mas_bkops_core.c:0:6
	orr	w20, wzr, #0x4
	b	.LBB3_9
.Ltmp155:
.LBB3_7:
	//DEBUG_VALUE: mas_get_bkops:lld <- $x0
	//DEBUG_VALUE: mas_get_bkops:bdev <- $x19
	//DEBUG_VALUE: mas_bkops_work_start:bdev <- $x19
	orr	w20, wzr, #0x1
	b	.LBB3_9
.Ltmp156:
.LBB3_8:
	//DEBUG_VALUE: mas_get_bkops:bdev <- $x19
	//DEBUG_VALUE: mas_bkops_work_start:bdev <- $x19
	orr	w20, wzr, #0x2
.Ltmp157:
.LBB3_9:
	adrp	x9, __stack_chk_guard
	ldr	x8, [sp, #8]
	ldr	x9, [x9, :lo12:__stack_chk_guard]
	cmp	x9, x8
	b.ne	.LBB3_30
// %bb.10:
	.loc	5 568 1 is_stmt 1       // kernel/block/mas_bkops_core.c:568:1
	mov	w0, w20
	ldp	x29, x30, [sp, #48]     // 16-byte Folded Reload
	ldp	x20, x19, [sp, #32]     // 16-byte Folded Reload
	ldp	x22, x21, [sp, #16]     // 16-byte Folded Reload
	add	sp, sp, #64             // =64
	ret
.LBB3_11:
.Ltmp158:
	//DEBUG_VALUE: mas_bkops_work_start:bkops <- $x21
	//DEBUG_VALUE: test_bit:nr <- 0
	.loc	153 106 16              // kernel/include/asm-generic/bitops/non-atomic.h:106:16
	ldr	x8, [x19]
.Ltmp159:
	.loc	5 543 6                 // kernel/block/mas_bkops_core.c:543:6
	tbnz	w8, #0, .LBB3_16
.Ltmp160:
// %bb.12:
	//DEBUG_VALUE: mas_bkops_work_start:bkops <- $x21
	.loc	5 448 6                 // kernel/block/mas_bkops_core.c:448:6
	mov	w0, #5
	mov	x1, x19
	bl	test_and_clear_bit
.Ltmp161:
	.loc	5 448 6 is_stmt 0       // kernel/block/mas_bkops_core.c:448:6
	cbz	w0, .LBB3_14
.Ltmp162:
// %bb.13:
	//DEBUG_VALUE: mas_bkops_work_start:bkops <- $x21
	.loc	5 455 36 is_stmt 1      // kernel/block/mas_bkops_core.c:455:36
	add	x0, x21, #32            // =32
	.loc	5 455 3 is_stmt 0       // kernel/block/mas_bkops_core.c:455:3
	bl	cancel_delayed_work_sync
.Ltmp163:
.LBB3_14:
	//DEBUG_VALUE: mas_bkops_work_start:bkops <- $x21
	//DEBUG_VALUE: mas_bkops_work_start:bkops_status <- [DW_OP_plus_uconst 4, DW_OP_deref] $sp
	//DEBUG_VALUE: mas_bkops_query:bkops_status <- [DW_OP_plus_uconst 4] $sp
	//DEBUG_VALUE: mas_bkops_query:ret <- 0
	.loc	5 99 41 is_stmt 1       // kernel/block/mas_bkops_core.c:99:41
	ldr	x20, [x21, #8]
.Ltmp164:
	//DEBUG_VALUE: mas_bkops_query:bkops_ops_p <- $x20
	.loc	5 106 2                 // kernel/block/mas_bkops_core.c:106:2
	adrp	x0, bkops_lock
	add	x0, x0, :lo12:bkops_lock
	bl	mutex_lock
.Ltmp165:
	.loc	5 107 7                 // kernel/block/mas_bkops_core.c:107:7
	adrp	x22, bkops_enabled
	ldrb	w8, [x22, :lo12:bkops_enabled]
.Ltmp166:
	.loc	5 107 6 is_stmt 0       // kernel/block/mas_bkops_core.c:107:6
	cmp	w8, #1                  // =1
	b.ne	.LBB3_17
.Ltmp167:
// %bb.15:
	//DEBUG_VALUE: mas_bkops_query:bkops_ops_p <- $x20
	//DEBUG_VALUE: mas_bkops_query:bkops_status <- [DW_OP_plus_uconst 4] $sp
	//DEBUG_VALUE: mas_bkops_work_start:bkops_status <- [DW_OP_plus_uconst 4, DW_OP_deref] $sp
	//DEBUG_VALUE: mas_bkops_work_start:bkops <- $x21
	//DEBUG_LABEL: mas_bkops_query:out
	.loc	5 140 2 is_stmt 1       // kernel/block/mas_bkops_core.c:140:2
	adrp	x0, bkops_lock
	add	x0, x0, :lo12:bkops_lock
	bl	mutex_unlock
	b	.LBB3_22
.Ltmp168:
.LBB3_16:
	//DEBUG_VALUE: mas_bkops_work_start:bkops <- $x21
	.loc	5 0 2 is_stmt 0         // kernel/block/mas_bkops_core.c:0:2
	mov	w20, #5
	b	.LBB3_9
.Ltmp169:
.LBB3_17:
	//DEBUG_VALUE: mas_bkops_query:bkops_ops_p <- $x20
	//DEBUG_VALUE: mas_bkops_query:bkops_status <- [DW_OP_plus_uconst 4] $sp
	//DEBUG_VALUE: mas_bkops_work_start:bkops_status <- [DW_OP_plus_uconst 4, DW_OP_deref] $sp
	//DEBUG_VALUE: mas_bkops_work_start:bkops <- $x21
	.loc	5 119 21 is_stmt 1      // kernel/block/mas_bkops_core.c:119:21
	ldr	x8, [x20, #8]
	.loc	5 120 10                // kernel/block/mas_bkops_core.c:120:10
	ldr	x0, [x21, #16]
	.loc	5 119 8                 // kernel/block/mas_bkops_core.c:119:8
	add	x1, sp, #4              // =4
	blr	x8
.Ltmp170:
	.loc	5 121 6                 // kernel/block/mas_bkops_core.c:121:6
	adrp	x8, user_manual_gc
	ldrb	w9, [x8, :lo12:user_manual_gc]
.Ltmp171:
	.loc	5 119 8                 // kernel/block/mas_bkops_core.c:119:8
	mov	w20, w0
.Ltmp172:
	//DEBUG_VALUE: mas_bkops_work_start:ret <- $w20
	//DEBUG_VALUE: mas_bkops_query:ret <- $w20
	.loc	5 121 21                // kernel/block/mas_bkops_core.c:121:21
	cbz	w9, .LBB3_20
.Ltmp173:
// %bb.18:
	//DEBUG_VALUE: mas_bkops_query:ret <- $w20
	//DEBUG_VALUE: mas_bkops_work_start:ret <- $w20
	//DEBUG_VALUE: mas_bkops_query:bkops_status <- [DW_OP_plus_uconst 4] $sp
	//DEBUG_VALUE: mas_bkops_work_start:bkops_status <- [DW_OP_plus_uconst 4, DW_OP_deref] $sp
	//DEBUG_VALUE: mas_bkops_work_start:bkops <- $x21
	.loc	5 0 0 is_stmt 0         // kernel/block/mas_bkops_core.c:0:0
	ldr	w9, [sp, #4]
	.loc	5 121 21                // kernel/block/mas_bkops_core.c:121:21
	cbnz	w9, .LBB3_20
.Ltmp174:
// %bb.19:
	//DEBUG_VALUE: mas_bkops_query:ret <- $w20
	//DEBUG_VALUE: mas_bkops_work_start:ret <- $w20
	//DEBUG_VALUE: mas_bkops_query:bkops_status <- [DW_OP_plus_uconst 4] $sp
	//DEBUG_VALUE: mas_bkops_work_start:bkops_status <- [DW_OP_plus_uconst 4, DW_OP_deref] $sp
	//DEBUG_VALUE: mas_bkops_work_start:bkops <- $x21
	.loc	5 122 18 is_stmt 1      // kernel/block/mas_bkops_core.c:122:18
	strb	wzr, [x8, :lo12:user_manual_gc]
.Ltmp175:
.LBB3_20:
	//DEBUG_VALUE: mas_bkops_query:ret <- $w20
	//DEBUG_VALUE: mas_bkops_work_start:ret <- $w20
	//DEBUG_VALUE: mas_bkops_query:bkops_status <- [DW_OP_plus_uconst 4] $sp
	//DEBUG_VALUE: mas_bkops_work_start:bkops_status <- [DW_OP_plus_uconst 4, DW_OP_deref] $sp
	//DEBUG_VALUE: mas_bkops_work_start:bkops <- $x21
	//DEBUG_LABEL: mas_bkops_query:out
	.loc	5 140 2                 // kernel/block/mas_bkops_core.c:140:2
	adrp	x0, bkops_lock
	add	x0, x0, :lo12:bkops_lock
	bl	mutex_unlock
.Ltmp176:
	.loc	5 552 6                 // kernel/block/mas_bkops_core.c:552:6
	cbz	w20, .LBB3_22
.Ltmp177:
// %bb.21:
	//DEBUG_VALUE: mas_bkops_work_start:ret <- $w20
	//DEBUG_VALUE: mas_bkops_work_start:bkops_status <- [DW_OP_plus_uconst 4, DW_OP_deref] $sp
	//DEBUG_VALUE: mas_bkops_work_start:bkops <- $x21
	.loc	5 553 3                 // kernel/block/mas_bkops_core.c:553:3
	adrp	x0, .L.str.3
	adrp	x1, .L__func__.mas_bkops_work_start
	add	x0, x0, :lo12:.L.str.3
	add	x1, x1, :lo12:.L__func__.mas_bkops_work_start
	mov	w2, w20
	bl	printk
	orr	w20, wzr, #0x6
.Ltmp178:
	.loc	5 0 3 is_stmt 0         // kernel/block/mas_bkops_core.c:0:3
	b	.LBB3_9
.Ltmp179:
.LBB3_22:
	//DEBUG_VALUE: mas_bkops_work_start:bkops_status <- [DW_OP_plus_uconst 4, DW_OP_deref] $sp
	//DEBUG_VALUE: mas_bkops_work_start:bkops <- $x21
	.loc	5 557 7 is_stmt 1       // kernel/block/mas_bkops_core.c:557:7
	ldr	w8, [sp, #4]
.Ltmp180:
	//DEBUG_VALUE: mas_bkops_work_start:bkops_status <- $w8
	.loc	5 0 7 is_stmt 0         // kernel/block/mas_bkops_core.c:0:7
	cbz	w8, .LBB3_25
.Ltmp181:
// %bb.23:
	//DEBUG_VALUE: mas_bkops_work_start:bkops_status <- $w8
	//DEBUG_VALUE: mas_bkops_work_start:bkops <- $x21
	//DEBUG_VALUE: mas_bkops_start:ret <- 0
	.loc	5 147 41 is_stmt 1      // kernel/block/mas_bkops_core.c:147:41
	ldr	x20, [x21, #8]
.Ltmp182:
	//DEBUG_VALUE: mas_bkops_start:bkops_ops_p <- $x20
	.loc	5 157 2                 // kernel/block/mas_bkops_core.c:157:2
	adrp	x0, bkops_lock
	add	x0, x0, :lo12:bkops_lock
	bl	mutex_lock
.Ltmp183:
	.loc	5 158 7                 // kernel/block/mas_bkops_core.c:158:7
	ldrb	w8, [x22, :lo12:bkops_enabled]
.Ltmp184:
	.loc	5 158 6 is_stmt 0       // kernel/block/mas_bkops_core.c:158:6
	cmp	w8, #1                  // =1
	b.ne	.LBB3_26
.Ltmp185:
// %bb.24:
	//DEBUG_VALUE: mas_bkops_start:bkops_ops_p <- $x20
	//DEBUG_VALUE: mas_bkops_work_start:bkops <- $x21
	//DEBUG_LABEL: mas_bkops_start:out
	.loc	5 180 2 is_stmt 1       // kernel/block/mas_bkops_core.c:180:2
	adrp	x0, bkops_lock
	add	x0, x0, :lo12:bkops_lock
	bl	mutex_unlock
	b	.LBB3_28
.Ltmp186:
.LBB3_25:
	//DEBUG_VALUE: mas_bkops_work_start:bkops_status <- $w8
	//DEBUG_VALUE: mas_bkops_work_start:bkops <- $x21
	.loc	5 558 3                 // kernel/block/mas_bkops_core.c:558:3
	orr	w0, wzr, #0x7
	mov	x1, x19
	orr	w20, wzr, #0x7
	bl	clear_bit
.Ltmp187:
	.loc	5 0 3 is_stmt 0         // kernel/block/mas_bkops_core.c:0:3
	b	.LBB3_9
.Ltmp188:
.LBB3_26:
	//DEBUG_VALUE: mas_bkops_start:bkops_ops_p <- $x20
	//DEBUG_VALUE: mas_bkops_work_start:bkops <- $x21
	.loc	5 161 21 is_stmt 1      // kernel/block/mas_bkops_core.c:161:21
	ldr	x8, [x20]
	.loc	5 161 45 is_stmt 0      // kernel/block/mas_bkops_core.c:161:45
	ldr	x0, [x21, #16]
	.loc	5 161 8                 // kernel/block/mas_bkops_core.c:161:8
	orr	w1, wzr, #0x1
	blr	x8
	mov	w20, w0
.Ltmp189:
	//DEBUG_LABEL: mas_bkops_start:out
	//DEBUG_VALUE: mas_bkops_start:ret <- $w20
	//DEBUG_VALUE: mas_bkops_work_start:ret <- $w20
	.loc	5 180 2 is_stmt 1       // kernel/block/mas_bkops_core.c:180:2
	adrp	x0, bkops_lock
	add	x0, x0, :lo12:bkops_lock
	bl	mutex_unlock
.Ltmp190:
	//DEBUG_VALUE: mas_bkops_work_start_ret:ret <- $w20
	.loc	5 510 6                 // kernel/block/mas_bkops_core.c:510:6
	cbz	w20, .LBB3_28
.Ltmp191:
// %bb.27:
	//DEBUG_VALUE: mas_bkops_work_start_ret:ret <- $w20
	//DEBUG_VALUE: mas_bkops_work_start:ret <- $w20
	//DEBUG_VALUE: mas_bkops_work_start:bkops <- $x21
	.loc	5 511 3                 // kernel/block/mas_bkops_core.c:511:3
	adrp	x0, .L.str.14
	adrp	x1, .L__func__.mas_bkops_work_start_ret
	add	x0, x0, :lo12:.L.str.14
	add	x1, x1, :lo12:.L__func__.mas_bkops_work_start_ret
	mov	w2, w20
	bl	printk
	mov	w20, #9
.Ltmp192:
	.loc	5 0 3 is_stmt 0         // kernel/block/mas_bkops_core.c:0:3
	b	.LBB3_9
.Ltmp193:
.LBB3_28:
	//DEBUG_VALUE: mas_bkops_work_start:bkops <- $x21
	.loc	5 514 3 is_stmt 1       // kernel/block/mas_bkops_core.c:514:3
	orr	w0, wzr, #0x7
	mov	x1, x19
	bl	set_bit
	.loc	5 518 3                 // kernel/block/mas_bkops_core.c:518:3
	mov	w0, wzr
	mov	x1, x19
	bl	set_bit
.Ltmp194:
	.loc	5 0 0 is_stmt 0         // kernel/block/mas_bkops_core.c:0:0
	mov	w20, wzr
	b	.LBB3_9
.Ltmp195:
.LBB3_29:
	//DEBUG_VALUE: mas_bkops_work_start:bkops <- $x21
	//DEBUG_VALUE: mas_bkops_work_start_ret:bkops <- $x21
	//DEBUG_VALUE: mas_bkops_start:bkops <- $x21
	//DEBUG_VALUE: mas_bkops_query:bkops <- $x21
	//DEBUG_VALUE: mas_bkops_work_cancel:bkops <- $x21
	//DEBUG_VALUE: mas_get_bkops:lld <- $x0
	//DEBUG_VALUE: mas_get_bkops:bdev <- $x19
	//DEBUG_VALUE: mas_bkops_work_start:bdev <- $x19
	orr	w20, wzr, #0x3
	b	.LBB3_9
.Ltmp196:
.LBB3_30:
	bl	__stack_chk_fail
.Lfunc_end3:
	.size	mas_bkops_work_start, .Lfunc_end3-mas_bkops_work_start
	.cfi_endproc
                                        // -- End function
	.section	.text.mas_bkops_work_stop,"ax",@progbits
	.hidden	mas_bkops_work_stop     // -- Begin function mas_bkops_work_stop
	.globl	mas_bkops_work_stop
	.p2align	2
	.type	mas_bkops_work_stop,@function
mas_bkops_work_stop:                    // @mas_bkops_work_stop
.Lfunc_begin4:
	.loc	5 571 0 is_stmt 1       // kernel/block/mas_bkops_core.c:571:0
	.cfi_startproc
// %bb.0:
	//DEBUG_VALUE: mas_bkops_work_stop:bdev <- $x0
	stp	x20, x19, [sp, #-32]!   // 16-byte Folded Spill
	stp	x29, x30, [sp, #16]     // 16-byte Folded Spill
	add	x29, sp, #16            // =16
	.cfi_def_cfa w29, 16
	.cfi_offset w30, -8
	.cfi_offset w29, -16
	.cfi_offset w19, -24
	.cfi_offset w20, -32
	mov	x19, x0
.Ltmp197:
	//DEBUG_VALUE: mas_bkops_work_stop:bkops <- 0
	//DEBUG_VALUE: mas_bkops_work_stop:bdev <- $x19
	.loc	5 575 2 prologue_end    // kernel/block/mas_bkops_core.c:575:2
	orr	w0, wzr, #0x18
	orr	w1, wzr, #0x1
	bl	io_trace_unistore_count
.Ltmp198:
	//DEBUG_VALUE: mas_get_bkops:lld <- 0
	//DEBUG_VALUE: mas_get_bkops:bdev <- $x19
	.loc	5 426 6                 // kernel/block/mas_bkops_core.c:426:6
	cbz	x19, .LBB4_12
.Ltmp199:
// %bb.1:
	//DEBUG_VALUE: mas_get_bkops:bdev <- $x19
	//DEBUG_VALUE: mas_bkops_work_stop:bdev <- $x19
	.loc	5 429 30                // kernel/block/mas_bkops_core.c:429:30
	ldr	x0, [x19, #168]
	.loc	5 429 8 is_stmt 0       // kernel/block/mas_bkops_core.c:429:8
	bl	mas_blk_get_lld
.Ltmp200:
	//DEBUG_VALUE: mas_get_bkops:lld <- $x0
	.loc	5 430 6 is_stmt 1       // kernel/block/mas_bkops_core.c:430:6
	cbz	x0, .LBB4_12
.Ltmp201:
// %bb.2:
	//DEBUG_VALUE: mas_get_bkops:lld <- $x0
	//DEBUG_VALUE: mas_get_bkops:bdev <- $x19
	//DEBUG_VALUE: mas_bkops_work_stop:bdev <- $x19
	.loc	5 433 16                // kernel/block/mas_bkops_core.c:433:16
	ldr	x20, [x0, #288]
.Ltmp202:
	//DEBUG_VALUE: mas_bkops_stop:bkops <- $x20
	//DEBUG_VALUE: mas_bkops_work_stop:bkops <- $x20
	.loc	5 435 6                 // kernel/block/mas_bkops_core.c:435:6
	cbz	x20, .LBB4_12
.Ltmp203:
// %bb.3:
	//DEBUG_VALUE: mas_bkops_work_stop:bkops <- $x20
	//DEBUG_VALUE: mas_get_bkops:lld <- $x0
	//DEBUG_VALUE: mas_get_bkops:bdev <- $x19
	//DEBUG_VALUE: mas_bkops_work_stop:bdev <- $x19
	.loc	5 0 0 is_stmt 0         // kernel/block/mas_bkops_core.c:0:0
	ldr	x8, [x0, #24]
	.loc	5 435 6                 // kernel/block/mas_bkops_core.c:435:6
	tbz	w8, #8, .LBB4_12
.Ltmp204:
// %bb.4:
	//DEBUG_VALUE: mas_bkops_work_stop:bkops <- $x20
	//DEBUG_VALUE: mas_get_bkops:lld <- $x0
	//DEBUG_VALUE: mas_get_bkops:bdev <- $x19
	//DEBUG_VALUE: mas_bkops_work_stop:bdev <- $x19
	.loc	5 440 16 is_stmt 1      // kernel/block/mas_bkops_core.c:440:16
	ldr	w8, [x20]
.Ltmp205:
	.loc	5 578 6                 // kernel/block/mas_bkops_core.c:578:6
	cmp	w8, #2                  // =2
	b.ne	.LBB4_12
.Ltmp206:
// %bb.5:
	//DEBUG_VALUE: mas_bkops_work_stop:bkops <- $x20
	//DEBUG_VALUE: mas_bkops_work_stop:bdev <- $x19
	.loc	5 581 52                // kernel/block/mas_bkops_core.c:581:52
	add	x19, x20, #128          // =128
.Ltmp207:
	//DEBUG_VALUE: test_bit:addr <- $x19
	.loc	5 581 7 is_stmt 0       // kernel/block/mas_bkops_core.c:581:7
	orr	w0, wzr, #0x7
	mov	x1, x19
	bl	test_and_clear_bit
.Ltmp208:
	.loc	5 581 6                 // kernel/block/mas_bkops_core.c:581:6
	cbz	w0, .LBB4_12
.Ltmp209:
// %bb.6:
	//DEBUG_VALUE: mas_bkops_work_stop:bkops <- $x20
	.loc	5 590 6 is_stmt 1       // kernel/block/mas_bkops_core.c:590:6
	mov	w0, #5
	mov	x1, x19
	bl	test_and_clear_bit
.Ltmp210:
	.loc	5 590 6 is_stmt 0       // kernel/block/mas_bkops_core.c:590:6
	cbz	w0, .LBB4_8
.Ltmp211:
// %bb.7:
	//DEBUG_VALUE: mas_bkops_work_stop:bkops <- $x20
	.loc	5 598 36 is_stmt 1      // kernel/block/mas_bkops_core.c:598:36
	add	x0, x20, #32            // =32
	.loc	5 598 3 is_stmt 0       // kernel/block/mas_bkops_core.c:598:3
	bl	cancel_delayed_work_sync
.Ltmp212:
.LBB4_8:
	//DEBUG_VALUE: mas_bkops_work_stop:bkops <- $x20
	//DEBUG_VALUE: test_bit:nr <- 0
	.loc	153 106 16 is_stmt 1    // kernel/include/asm-generic/bitops/non-atomic.h:106:16
	ldr	x8, [x19]
.Ltmp213:
	.loc	5 601 6                 // kernel/block/mas_bkops_core.c:601:6
	tbz	w8, #0, .LBB4_12
.Ltmp214:
// %bb.9:
	//DEBUG_VALUE: mas_bkops_work_stop:bkops <- $x20
	.loc	5 195 2                 // kernel/block/mas_bkops_core.c:195:2
	adrp	x0, bkops_lock
	add	x0, x0, :lo12:bkops_lock
	bl	mutex_lock
.Ltmp215:
	.loc	5 196 7                 // kernel/block/mas_bkops_core.c:196:7
	adrp	x8, bkops_enabled
	ldrb	w8, [x8, :lo12:bkops_enabled]
.Ltmp216:
	.loc	5 196 6 is_stmt 0       // kernel/block/mas_bkops_core.c:196:6
	tbnz	w8, #0, .LBB4_11
.Ltmp217:
// %bb.10:
	//DEBUG_VALUE: mas_bkops_work_stop:bkops <- $x20
	.loc	5 199 9 is_stmt 1       // kernel/block/mas_bkops_core.c:199:9
	ldp	x8, x0, [x20, #8]
	.loc	5 199 2 is_stmt 0       // kernel/block/mas_bkops_core.c:199:2
	mov	w1, wzr
	.loc	5 199 20                // kernel/block/mas_bkops_core.c:199:20
	ldr	x8, [x8]
	.loc	5 199 2                 // kernel/block/mas_bkops_core.c:199:2
	blr	x8
.Ltmp218:
.LBB4_11:
	//DEBUG_VALUE: mas_bkops_work_stop:bkops <- $x20
	//DEBUG_LABEL: mas_bkops_stop:out
	.loc	5 205 2 is_stmt 1       // kernel/block/mas_bkops_core.c:205:2
	adrp	x0, bkops_lock
	add	x0, x0, :lo12:bkops_lock
	bl	mutex_unlock
.Ltmp219:
	.loc	5 603 3                 // kernel/block/mas_bkops_core.c:603:3
	mov	w0, wzr
	mov	x1, x19
	bl	clear_bit
.Ltmp220:
.LBB4_12:
	.loc	5 605 1                 // kernel/block/mas_bkops_core.c:605:1
	ldp	x29, x30, [sp, #16]     // 16-byte Folded Reload
	ldp	x20, x19, [sp], #32     // 16-byte Folded Reload
	ret
.Ltmp221:
.Lfunc_end4:
	.size	mas_bkops_work_stop, .Lfunc_end4-mas_bkops_work_stop
	.cfi_endproc
                                        // -- End function
	.section	.text.bkops_pm_callback,"ax",@progbits
	.hidden	bkops_pm_callback       // -- Begin function bkops_pm_callback
	.globl	bkops_pm_callback
	.p2align	2
	.type	bkops_pm_callback,@function
bkops_pm_callback:                      // @bkops_pm_callback
.Lfunc_begin5:
	.loc	5 625 0                 // kernel/block/mas_bkops_core.c:625:0
	.cfi_startproc
// %bb.0:
	//DEBUG_VALUE: bkops_pm_callback:self <- $x0
	//DEBUG_VALUE: bkops_pm_callback:action <- $x1
	//DEBUG_VALUE: bkops_pm_callback:action <- $x1
	//DEBUG_VALUE: bkops_pm_callback:ptr <- $x2
	stp	x20, x19, [sp, #-32]!   // 16-byte Folded Spill
	stp	x29, x30, [sp, #16]     // 16-byte Folded Spill
	add	x29, sp, #16            // =16
	.cfi_def_cfa w29, 16
	.cfi_offset w30, -8
	.cfi_offset w29, -16
	.cfi_offset w19, -24
	.cfi_offset w20, -32
.Ltmp222:
	.loc	5 626 2 prologue_end    // kernel/block/mas_bkops_core.c:626:2
	sub	x8, x1, #1              // =1
	cmp	x8, #3                  // =3
	b.hi	.LBB5_4
.Ltmp223:
// %bb.1:
	//DEBUG_VALUE: bkops_pm_callback:ptr <- $x2
	//DEBUG_VALUE: bkops_pm_callback:action <- $x1
	//DEBUG_VALUE: bkops_pm_callback:self <- $x0
	.loc	5 0 2 is_stmt 0         // kernel/block/mas_bkops_core.c:0:2
	adrp	x9, .LJTI5_0
	add	x9, x9, :lo12:.LJTI5_0
	adr	x10, .LBB5_2
	ldrb	w11, [x9, x8]
	add	x10, x10, x11, lsl #2
	br	x10
.Ltmp224:
.LBB5_2:
	//DEBUG_VALUE: bkops_pm_callback:ptr <- $x2
	//DEBUG_VALUE: bkops_pm_callback:action <- $x1
	//DEBUG_VALUE: bkops_pm_callback:self <- $x0
	.loc	5 610 2 is_stmt 1       // kernel/block/mas_bkops_core.c:610:2
	adrp	x20, bkops_lock
	add	x20, x20, :lo12:bkops_lock
	mov	x0, x20
.Ltmp225:
	bl	mutex_lock
.Ltmp226:
	.loc	5 611 16                // kernel/block/mas_bkops_core.c:611:16
	adrp	x8, bkops_enabled
	orr	w19, wzr, #0x1
	.loc	5 612 2                 // kernel/block/mas_bkops_core.c:612:2
	mov	x0, x20
	.loc	5 611 16                // kernel/block/mas_bkops_core.c:611:16
	strb	w19, [x8, :lo12:bkops_enabled]
	.loc	5 612 2                 // kernel/block/mas_bkops_core.c:612:2
	bl	mutex_unlock
	b	.LBB5_5
.Ltmp227:
.LBB5_3:
	//DEBUG_VALUE: bkops_pm_callback:ptr <- $x2
	//DEBUG_VALUE: bkops_pm_callback:action <- $x1
	//DEBUG_VALUE: bkops_pm_callback:self <- $x0
	.loc	5 617 2                 // kernel/block/mas_bkops_core.c:617:2
	adrp	x19, bkops_lock
	add	x19, x19, :lo12:bkops_lock
	mov	x0, x19
.Ltmp228:
	bl	mutex_lock
.Ltmp229:
	.loc	5 618 16                // kernel/block/mas_bkops_core.c:618:16
	adrp	x8, bkops_enabled
	.loc	5 619 2                 // kernel/block/mas_bkops_core.c:619:2
	mov	x0, x19
	.loc	5 618 16                // kernel/block/mas_bkops_core.c:618:16
	strb	wzr, [x8, :lo12:bkops_enabled]
	.loc	5 619 2                 // kernel/block/mas_bkops_core.c:619:2
	bl	mutex_unlock
	orr	w19, wzr, #0x1
	b	.LBB5_5
.Ltmp230:
.LBB5_4:
	//DEBUG_VALUE: bkops_pm_callback:ptr <- $x2
	//DEBUG_VALUE: bkops_pm_callback:action <- $x1
	//DEBUG_VALUE: bkops_pm_callback:self <- $x0
	.loc	5 0 0 is_stmt 0         // kernel/block/mas_bkops_core.c:0:0
	mov	w19, wzr
.Ltmp231:
.LBB5_5:
	.loc	5 642 1 is_stmt 1       // kernel/block/mas_bkops_core.c:642:1
	ldp	x29, x30, [sp, #16]     // 16-byte Folded Reload
	mov	w0, w19
	ldp	x20, x19, [sp], #32     // 16-byte Folded Reload
	ret
.Ltmp232:
.Lfunc_end5:
	.size	bkops_pm_callback, .Lfunc_end5-bkops_pm_callback
	.cfi_endproc
	.section	.rodata.bkops_pm_callback,"a",@progbits
.LJTI5_0:
	.byte	(.LBB5_2-.LBB5_2)>>2
	.byte	(.LBB5_3-.LBB5_2)>>2
	.byte	(.LBB5_2-.LBB5_2)>>2
	.byte	(.LBB5_3-.LBB5_2)>>2
                                        // -- End function
	.section	.text.bkops_notify_reboot,"ax",@progbits
	.hidden	bkops_notify_reboot     // -- Begin function bkops_notify_reboot
	.globl	bkops_notify_reboot
	.p2align	2
	.type	bkops_notify_reboot,@function
bkops_notify_reboot:                    // @bkops_notify_reboot
.Lfunc_begin6:
	.loc	5 647 0                 // kernel/block/mas_bkops_core.c:647:0
	.cfi_startproc
// %bb.0:
	//DEBUG_VALUE: bkops_notify_reboot:self <- $x0
	//DEBUG_VALUE: bkops_notify_reboot:code <- $x1
	//DEBUG_VALUE: bkops_notify_reboot:no_use <- $x2
	str	x19, [sp, #-32]!        // 8-byte Folded Spill
	stp	x29, x30, [sp, #16]     // 16-byte Folded Spill
	add	x29, sp, #16            // =16
	.cfi_def_cfa w29, 16
	.cfi_offset w30, -8
	.cfi_offset w29, -16
	.cfi_offset w19, -32
.Ltmp233:
	.loc	5 610 2 prologue_end    // kernel/block/mas_bkops_core.c:610:2
	adrp	x19, bkops_lock
	add	x19, x19, :lo12:bkops_lock
	mov	x0, x19
.Ltmp234:
	bl	mutex_lock
.Ltmp235:
	.loc	5 611 16                // kernel/block/mas_bkops_core.c:611:16
	adrp	x8, bkops_enabled
	orr	w9, wzr, #0x1
	.loc	5 612 2                 // kernel/block/mas_bkops_core.c:612:2
	mov	x0, x19
	.loc	5 611 16                // kernel/block/mas_bkops_core.c:611:16
	strb	w9, [x8, :lo12:bkops_enabled]
	.loc	5 612 2                 // kernel/block/mas_bkops_core.c:612:2
	bl	mutex_unlock
.Ltmp236:
	.loc	5 649 2                 // kernel/block/mas_bkops_core.c:649:2
	ldp	x29, x30, [sp, #16]     // 16-byte Folded Reload
	mov	w0, wzr
	ldr	x19, [sp], #32          // 8-byte Folded Reload
	ret
.Ltmp237:
.Lfunc_end6:
	.size	bkops_notify_reboot, .Lfunc_end6-bkops_notify_reboot
	.cfi_endproc
                                        // -- End function
	.section	.text.mas_bkops_alloc,"ax",@progbits
	.hidden	mas_bkops_alloc         // -- Begin function mas_bkops_alloc
	.globl	mas_bkops_alloc
	.p2align	2
	.type	mas_bkops_alloc,@function
mas_bkops_alloc:                        // @mas_bkops_alloc
.Lfunc_begin7:
	.loc	5 694 0                 // kernel/block/mas_bkops_core.c:694:0
	.cfi_startproc
// %bb.0:
	//DEBUG_VALUE: kzalloc:size <- 256
	//DEBUG_VALUE: kzalloc:flags <- 20971712
	//DEBUG_VALUE: kmalloc:size <- 256
	//DEBUG_VALUE: kmalloc:flags <- 21004480
	stp	x20, x19, [sp, #-32]!   // 16-byte Folded Spill
	stp	x29, x30, [sp, #16]     // 16-byte Folded Spill
	add	x29, sp, #16            // =16
	.cfi_def_cfa w29, 16
	.cfi_offset w30, -8
	.cfi_offset w29, -16
	.cfi_offset w19, -24
	.cfi_offset w20, -32
.Ltmp238:
	//DEBUG_VALUE: index <- 8
	.loc	152 539 5 prologue_end  // kernel/include/linux/slab.h:539:5
	adrp	x8, kmalloc_caches+64
	ldr	x0, [x8, :lo12:kmalloc_caches+64]
	.loc	152 538 10              // kernel/include/linux/slab.h:538:10
	mov	w1, #32960
	movk	w1, #320, lsl #16
	orr	w2, wzr, #0x100
	bl	kmem_cache_alloc_trace
	mov	x19, x0
.Ltmp239:
	//DEBUG_VALUE: mas_bkops_alloc:bkops <- $x19
	.loc	5 698 6                 // kernel/block/mas_bkops_core.c:698:6
	cbz	x0, .LBB7_2
.Ltmp240:
// %bb.1:
	//DEBUG_VALUE: mas_bkops_alloc:bkops <- $x19
	//DEBUG_VALUE: mas_bkops_alloc:bkops <- $x19
	.loc	5 703 2                 // kernel/block/mas_bkops_core.c:703:2
	adrp	x10, __ufs_bkops_idle_work_func
	mov	x8, #68719476704
	mov	x20, x19
	add	x9, x19, #40            // =40
.Ltmp241:
	//DEBUG_VALUE: __write_once_size:res <- undef
	add	x10, x10, :lo12:__ufs_bkops_idle_work_func
.Ltmp242:
	.loc	5 703 2 is_stmt 0       // kernel/block/mas_bkops_core.c:703:2
	add	x0, x19, #64            // =64
	orr	w1, wzr, #0x200000
	mov	x2, xzr
	mov	x3, xzr
.Ltmp243:
	.loc	5 703 2                 // kernel/block/mas_bkops_core.c:703:2
	str	x8, [x20, #32]!
.Ltmp244:
	//DEBUG_VALUE: __write_once_size:p <- $x9
	//DEBUG_VALUE: __write_once_size:size <- 8
	//DEBUG_VALUE: INIT_LIST_HEAD:list <- $x9
	.file	155 "/mnt/disk/jenkins/ci/workspace/chipset_pipeline_release/opensource/component_code/vendor/huawei/extra/build/build_script/kirin_kernel_release/kernel/include/linux/compiler.h"
	.loc	155 210 31 is_stmt 1    // kernel/include/linux/compiler.h:210:31
	str	x9, [x19, #40]
.Ltmp245:
	.file	156 "/mnt/disk/jenkins/ci/workspace/chipset_pipeline_release/opensource/component_code/vendor/huawei/extra/build/build_script/kirin_kernel_release/kernel/include/linux/list.h"
	.loc	156 29 13               // kernel/include/linux/list.h:29:13
	stp	x9, x10, [x19, #48]
.Ltmp246:
	.loc	5 703 2                 // kernel/block/mas_bkops_core.c:703:2
	bl	init_timer_key
.Ltmp247:
	adrp	x8, delayed_work_timer_fn
	add	x8, x8, :lo12:delayed_work_timer_fn
	mov	w9, #1000
	mov	w10, #3600
	orr	w11, wzr, #0x20000000
	stp	x8, x20, [x19, #88]
.Ltmp248:
	.loc	5 704 29                // kernel/block/mas_bkops_core.c:704:29
	str	x9, [x19, #136]
	.loc	5 705 30                // kernel/block/mas_bkops_core.c:705:30
	str	x10, [x19, #208]
	.loc	5 706 33                // kernel/block/mas_bkops_core.c:706:33
	str	x11, [x19, #224]
	.loc	5 707 31                // kernel/block/mas_bkops_core.c:707:31
	str	x11, [x19, #240]
	b	.LBB7_3
.Ltmp249:
.LBB7_2:
	//DEBUG_VALUE: mas_bkops_alloc:bkops <- $x19
	.loc	5 699 3                 // kernel/block/mas_bkops_core.c:699:3
	adrp	x0, .L.str.4
	add	x0, x0, :lo12:.L.str.4
	bl	printk
.Ltmp250:
.LBB7_3:
	//DEBUG_VALUE: mas_bkops_alloc:bkops <- $x19
	.loc	5 710 1                 // kernel/block/mas_bkops_core.c:710:1
	ldp	x29, x30, [sp, #16]     // 16-byte Folded Reload
	mov	x0, x19
	ldp	x20, x19, [sp], #32     // 16-byte Folded Reload
.Ltmp251:
	ret
.Ltmp252:
.Lfunc_end7:
	.size	mas_bkops_alloc, .Lfunc_end7-mas_bkops_alloc
	.cfi_endproc
                                        // -- End function
	.section	.text.mas_bkops_manual_gc_proc_show,"ax",@progbits
	.hidden	mas_bkops_manual_gc_proc_show // -- Begin function mas_bkops_manual_gc_proc_show
	.globl	mas_bkops_manual_gc_proc_show
	.p2align	2
	.type	mas_bkops_manual_gc_proc_show,@function
mas_bkops_manual_gc_proc_show:          // @mas_bkops_manual_gc_proc_show
.Lfunc_begin8:
	.loc	5 713 0                 // kernel/block/mas_bkops_core.c:713:0
	.cfi_startproc
// %bb.0:
	//DEBUG_VALUE: mas_bkops_manual_gc_proc_show:m <- $x0
	//DEBUG_VALUE: mas_bkops_manual_gc_proc_show:v <- $x1
	stp	x29, x30, [sp, #-16]!   // 16-byte Folded Spill
	mov	x29, sp
	.cfi_def_cfa w29, 16
	.cfi_offset w30, -8
	.cfi_offset w29, -16
.Ltmp253:
	.loc	5 714 24 prologue_end   // kernel/block/mas_bkops_core.c:714:24
	adrp	x8, user_manual_gc
	ldrb	w2, [x8, :lo12:user_manual_gc]
	//DEBUG_VALUE: mas_bkops_manual_gc_proc_show:m <- $x0
	.loc	5 714 2 is_stmt 0       // kernel/block/mas_bkops_core.c:714:2
	adrp	x1, .L.str.5
.Ltmp254:
	add	x1, x1, :lo12:.L.str.5
	//DEBUG_VALUE: mas_bkops_manual_gc_proc_show:m <- $x0
	bl	seq_printf
.Ltmp255:
	.loc	5 716 2 is_stmt 1       // kernel/block/mas_bkops_core.c:716:2
	mov	w0, wzr
	ldp	x29, x30, [sp], #16     // 16-byte Folded Reload
	ret
.Ltmp256:
.Lfunc_end8:
	.size	mas_bkops_manual_gc_proc_show, .Lfunc_end8-mas_bkops_manual_gc_proc_show
	.cfi_endproc
                                        // -- End function
	.section	.text.mas_bkops_manual_gc_proc_open,"ax",@progbits
	.hidden	mas_bkops_manual_gc_proc_open // -- Begin function mas_bkops_manual_gc_proc_open
	.globl	mas_bkops_manual_gc_proc_open
	.p2align	2
	.type	mas_bkops_manual_gc_proc_open,@function
mas_bkops_manual_gc_proc_open:          // @mas_bkops_manual_gc_proc_open
.Lfunc_begin9:
	.loc	5 721 0                 // kernel/block/mas_bkops_core.c:721:0
	.cfi_startproc
// %bb.0:
	//DEBUG_VALUE: mas_bkops_manual_gc_proc_open:p_inode <- $x0
	//DEBUG_VALUE: mas_bkops_manual_gc_proc_open:p_file <- $x1
	stp	x29, x30, [sp, #-16]!   // 16-byte Folded Spill
	mov	x29, sp
	.cfi_def_cfa w29, 16
	.cfi_offset w30, -8
	.cfi_offset w29, -16
	mov	x0, x1
.Ltmp257:
	//DEBUG_VALUE: mas_bkops_manual_gc_proc_open:p_file <- $x0
	.loc	5 722 9 prologue_end    // kernel/block/mas_bkops_core.c:722:9
	adrp	x1, __cfi_mas_bkops_manual_gc_proc_show
	add	x1, x1, :lo12:__cfi_mas_bkops_manual_gc_proc_show
	//DEBUG_VALUE: mas_bkops_manual_gc_proc_open:p_file <- $x0
	mov	x2, xzr
	bl	single_open
.Ltmp258:
	.loc	5 722 2 is_stmt 0       // kernel/block/mas_bkops_core.c:722:2
	ldp	x29, x30, [sp], #16     // 16-byte Folded Reload
	ret
.Ltmp259:
.Lfunc_end9:
	.size	mas_bkops_manual_gc_proc_open, .Lfunc_end9-mas_bkops_manual_gc_proc_open
	.cfi_endproc
                                        // -- End function
	.section	.text.mas_bkops_manual_gc_proc_write,"ax",@progbits
	.hidden	mas_bkops_manual_gc_proc_write // -- Begin function mas_bkops_manual_gc_proc_write
	.globl	mas_bkops_manual_gc_proc_write
	.p2align	2
	.type	mas_bkops_manual_gc_proc_write,@function
mas_bkops_manual_gc_proc_write:         // @mas_bkops_manual_gc_proc_write
.Lfunc_begin10:
	.loc	5 728 0 is_stmt 1       // kernel/block/mas_bkops_core.c:728:0
	.cfi_startproc
// %bb.0:
	//DEBUG_VALUE: mas_bkops_manual_gc_proc_write:p_file <- $x0
	//DEBUG_VALUE: mas_bkops_manual_gc_proc_write:userbuf <- $x1
	//DEBUG_VALUE: mas_bkops_manual_gc_proc_write:count <- $x2
	//DEBUG_VALUE: mas_bkops_manual_gc_proc_write:ppos <- $x3
	sub	sp, sp, #48             // =48
	str	x19, [sp, #16]          // 8-byte Folded Spill
	stp	x29, x30, [sp, #32]     // 16-byte Folded Spill
	add	x29, sp, #32            // =32
	.cfi_def_cfa w29, 16
	.cfi_offset w30, -8
	.cfi_offset w29, -16
	.cfi_offset w19, -32
	adrp	x8, __stack_chk_guard
	ldr	x8, [x8, :lo12:__stack_chk_guard]
	mov	x0, #-22
.Ltmp260:
	//DEBUG_VALUE: mas_bkops_manual_gc_proc_write:buf <- [DW_OP_plus_uconst 4, DW_OP_deref] $sp
	//DEBUG_VALUE: mas_bkops_manual_gc_proc_write:userbuf <- $x1
	str	x8, [sp, #8]
.Ltmp261:
	.loc	5 731 13 prologue_end   // kernel/block/mas_bkops_core.c:731:13
	cbz	x1, .LBB10_7
.Ltmp262:
// %bb.1:
	//DEBUG_VALUE: mas_bkops_manual_gc_proc_write:buf <- [DW_OP_plus_uconst 4, DW_OP_deref] $sp
	//DEBUG_VALUE: mas_bkops_manual_gc_proc_write:ppos <- $x3
	//DEBUG_VALUE: mas_bkops_manual_gc_proc_write:count <- $x2
	//DEBUG_VALUE: mas_bkops_manual_gc_proc_write:userbuf <- $x1
	.loc	5 0 13 is_stmt 0        // kernel/block/mas_bkops_core.c:0:13
	mov	x19, x2
.Ltmp263:
	//DEBUG_VALUE: mas_bkops_manual_gc_proc_write:count <- $x19
	.loc	5 731 13                // kernel/block/mas_bkops_core.c:731:13
	cbz	x2, .LBB10_7
.Ltmp264:
// %bb.2:
	//DEBUG_VALUE: mas_bkops_manual_gc_proc_write:count <- $x19
	//DEBUG_VALUE: mas_bkops_manual_gc_proc_write:buf <- [DW_OP_plus_uconst 4, DW_OP_deref] $sp
	//DEBUG_VALUE: mas_bkops_manual_gc_proc_write:ppos <- $x3
	//DEBUG_VALUE: mas_bkops_manual_gc_proc_write:userbuf <- $x1
	//DEBUG_VALUE: mas_bkops_manual_gc_proc_write:buf <- [DW_OP_plus_uconst 4, DW_OP_deref] $sp
	//DEBUG_VALUE: copy_from_user:to <- [DW_OP_plus_uconst 4] $sp
	//DEBUG_VALUE: copy_from_user:from <- $x1
	//DEBUG_VALUE: copy_from_user:n <- 1
	//DEBUG_VALUE: _copy_from_user:to <- [DW_OP_plus_uconst 4] $sp
	//DEBUG_VALUE: _copy_from_user:from <- $x1
	//DEBUG_VALUE: _copy_from_user:n <- 1
	//DEBUG_VALUE: _copy_from_user:res <- 1
	//DEBUG_VALUE: __range_ok:addr <- $x1
	//DEBUG_VALUE: __range_ok:size <- 1
	.file	157 "/mnt/disk/jenkins/ci/workspace/chipset_pipeline_release/opensource/component_code/vendor/huawei/extra/build/build_script/kirin_kernel_release/kernel/arch/arm64/include/asm/current.h"
	.loc	157 19 2 is_stmt 1      // kernel/arch/arm64/include/asm/current.h:19:2
	//APP
	mrs x8, sp_el0
	//NO_APP
.Ltmp265:
	//DEBUG_VALUE: get_current:sp_el0 <- $x8
	//DEBUG_VALUE: get_current:sp_el0 <- $x8
	.file	158 "/mnt/disk/jenkins/ci/workspace/chipset_pipeline_release/opensource/component_code/vendor/huawei/extra/build/build_script/kirin_kernel_release/kernel/arch/arm64/include/asm/uaccess.h"
	.loc	158 84 24               // kernel/arch/arm64/include/asm/uaccess.h:84:24
	ldr	x9, [x8, #8]
.Ltmp266:
	//DEBUG_VALUE: __range_ok:limit <- $x9
	.loc	158 87 2                // kernel/arch/arm64/include/asm/uaccess.h:87:2
	mov	x10, x1
	//APP
		adds	x10, x10, #1
	csel	x9, xzr, x9, hi
	csinv	x10, x10, xzr, cc
	sbcs	xzr, x10, x9
	cset	x10, ls

	//NO_APP
.Ltmp267:
	//DEBUG_VALUE: __range_ok:limit <- undef
	//DEBUG_VALUE: __range_ok:addr <- $x10
	.file	159 "/mnt/disk/jenkins/ci/workspace/chipset_pipeline_release/opensource/component_code/vendor/huawei/extra/build/build_script/kirin_kernel_release/kernel/include/linux/uaccess.h"
	.loc	159 114 6               // kernel/include/linux/uaccess.h:114:6
	cbz	x10, .LBB10_9
.Ltmp268:
// %bb.3:
	//DEBUG_VALUE: _copy_from_user:from <- $x1
	//DEBUG_VALUE: _copy_from_user:to <- [DW_OP_plus_uconst 4] $sp
	//DEBUG_VALUE: copy_from_user:from <- $x1
	//DEBUG_VALUE: copy_from_user:to <- [DW_OP_plus_uconst 4] $sp
	//DEBUG_VALUE: mas_bkops_manual_gc_proc_write:count <- $x19
	//DEBUG_VALUE: mas_bkops_manual_gc_proc_write:buf <- [DW_OP_plus_uconst 4, DW_OP_deref] $sp
	//DEBUG_VALUE: mas_bkops_manual_gc_proc_write:ppos <- $x3
	//DEBUG_VALUE: mas_bkops_manual_gc_proc_write:userbuf <- $x1
	//DEBUG_VALUE: __uaccess_mask_ptr:ptr <- $x1
	.loc	158 238 20              // kernel/arch/arm64/include/asm/uaccess.h:238:20
	ldr	x9, [x8, #8]
	.loc	158 234 2               // kernel/arch/arm64/include/asm/uaccess.h:234:2
	//APP
		bics	xzr, x1, x9
	csel	x8, x1, xzr, eq

	//NO_APP
.Ltmp269:
	//DEBUG_VALUE: __uaccess_mask_ptr:safe_ptr <- $x8
	.loc	158 241 2               // kernel/arch/arm64/include/asm/uaccess.h:241:2
	//APP
	hint #20
	//NO_APP
.Ltmp270:
	.loc	159 116 9               // kernel/include/linux/uaccess.h:116:9
	add	x0, sp, #4              // =4
	orr	w2, wzr, #0x1
	mov	x1, x8
.Ltmp271:
	bl	__arch_copy_from_user
.Ltmp272:
	.loc	159 118 6               // kernel/include/linux/uaccess.h:118:6
	cbnz	x0, .LBB10_10
.Ltmp273:
// %bb.4:
	//DEBUG_VALUE: copy_from_user:to <- [DW_OP_plus_uconst 4] $sp
	//DEBUG_VALUE: mas_bkops_manual_gc_proc_write:count <- $x19
	//DEBUG_VALUE: mas_bkops_manual_gc_proc_write:buf <- [DW_OP_plus_uconst 4, DW_OP_deref] $sp
	//DEBUG_VALUE: copy_from_user:n <- 0
	.loc	5 737 6                 // kernel/block/mas_bkops_core.c:737:6
	ldrb	w8, [sp, #4]
.Ltmp274:
	//DEBUG_VALUE: mas_bkops_manual_gc_proc_write:buf <- $w8
	.loc	5 737 17 is_stmt 0      // kernel/block/mas_bkops_core.c:737:17
	sub	w8, w8, #48             // =48
.Ltmp275:
	cmp	w8, #2                  // =2
	b.hs	.LBB10_6
.Ltmp276:
// %bb.5:
	//DEBUG_VALUE: mas_bkops_manual_gc_proc_write:count <- $x19
	.loc	5 742 17 is_stmt 1      // kernel/block/mas_bkops_core.c:742:17
	adrp	x9, user_manual_gc
	.loc	5 0 0 is_stmt 0         // kernel/block/mas_bkops_core.c:0:0
	mov	x0, x19
	.loc	5 742 17                // kernel/block/mas_bkops_core.c:742:17
	strb	w8, [x9, :lo12:user_manual_gc]
	b	.LBB10_7
.Ltmp277:
.LBB10_6:
	//DEBUG_VALUE: mas_bkops_manual_gc_proc_write:count <- $x19
	.loc	5 738 3 is_stmt 1       // kernel/block/mas_bkops_core.c:738:3
	adrp	x0, .L.str.6
	adrp	x1, .L__func__.mas_bkops_manual_gc_proc_write
	add	x0, x0, :lo12:.L.str.6
	add	x1, x1, :lo12:.L__func__.mas_bkops_manual_gc_proc_write
	mov	w2, #738
	bl	printk
	mov	x0, #-22
.Ltmp278:
.LBB10_7:
	//DEBUG_VALUE: mas_bkops_manual_gc_proc_write:buf <- [DW_OP_plus_uconst 4, DW_OP_deref] $sp
	.loc	5 0 3 is_stmt 0         // kernel/block/mas_bkops_core.c:0:3
	adrp	x9, __stack_chk_guard
	ldr	x8, [sp, #8]
	ldr	x9, [x9, :lo12:__stack_chk_guard]
	cmp	x9, x8
	b.ne	.LBB10_12
.Ltmp279:
// %bb.8:
	//DEBUG_VALUE: mas_bkops_manual_gc_proc_write:buf <- [DW_OP_plus_uconst 4, DW_OP_deref] $sp
	.loc	5 745 1 is_stmt 1       // kernel/block/mas_bkops_core.c:745:1
	ldp	x29, x30, [sp, #32]     // 16-byte Folded Reload
	ldr	x19, [sp, #16]          // 8-byte Folded Reload
	add	sp, sp, #48             // =48
.Ltmp280:
	ret
.LBB10_9:
.Ltmp281:
	//DEBUG_VALUE: __range_ok:addr <- $x10
	//DEBUG_VALUE: get_current:sp_el0 <- $x8
	//DEBUG_VALUE: get_current:sp_el0 <- $x8
	//DEBUG_VALUE: _copy_from_user:from <- $x1
	//DEBUG_VALUE: _copy_from_user:to <- [DW_OP_plus_uconst 4] $sp
	//DEBUG_VALUE: copy_from_user:from <- $x1
	//DEBUG_VALUE: copy_from_user:to <- [DW_OP_plus_uconst 4] $sp
	//DEBUG_VALUE: mas_bkops_manual_gc_proc_write:count <- $x19
	//DEBUG_VALUE: mas_bkops_manual_gc_proc_write:buf <- [DW_OP_plus_uconst 4, DW_OP_deref] $sp
	//DEBUG_VALUE: mas_bkops_manual_gc_proc_write:ppos <- $x3
	//DEBUG_VALUE: mas_bkops_manual_gc_proc_write:userbuf <- $x1
	.loc	5 0 1 is_stmt 0         // kernel/block/mas_bkops_core.c:0:1
	orr	w2, wzr, #0x1
	b	.LBB10_11
.Ltmp282:
.LBB10_10:
	//DEBUG_VALUE: _copy_from_user:to <- [DW_OP_plus_uconst 4] $sp
	//DEBUG_VALUE: copy_from_user:to <- [DW_OP_plus_uconst 4] $sp
	//DEBUG_VALUE: mas_bkops_manual_gc_proc_write:count <- $x19
	//DEBUG_VALUE: mas_bkops_manual_gc_proc_write:buf <- [DW_OP_plus_uconst 4, DW_OP_deref] $sp
	mov	x2, x0
.Ltmp283:
	//DEBUG_VALUE: _copy_from_user:res <- $x2
.LBB10_11:
	//DEBUG_VALUE: _copy_from_user:to <- [DW_OP_plus_uconst 4] $sp
	//DEBUG_VALUE: copy_from_user:to <- [DW_OP_plus_uconst 4] $sp
	//DEBUG_VALUE: mas_bkops_manual_gc_proc_write:count <- $x19
	//DEBUG_VALUE: mas_bkops_manual_gc_proc_write:buf <- [DW_OP_plus_uconst 4, DW_OP_deref] $sp
	orr	w8, wzr, #0x1
.Ltmp284:
	.loc	159 119 18 is_stmt 1    // kernel/include/linux/uaccess.h:119:18
	sub	x8, x8, x2
	add	x9, sp, #4              // =4
	.loc	159 119 13 is_stmt 0    // kernel/include/linux/uaccess.h:119:13
	add	x0, x9, x8
	.loc	159 119 3               // kernel/include/linux/uaccess.h:119:3
	mov	w1, wzr
	bl	memset
	mov	x0, #-14
	b	.LBB10_7
.Ltmp285:
.LBB10_12:
	//DEBUG_VALUE: mas_bkops_manual_gc_proc_write:buf <- [DW_OP_plus_uconst 4, DW_OP_deref] $sp
	.loc	159 0 3                 // kernel/include/linux/uaccess.h:0:3
	bl	__stack_chk_fail
.Lfunc_end10:
	.size	mas_bkops_manual_gc_proc_write, .Lfunc_end10-mas_bkops_manual_gc_proc_write
	.cfi_endproc
                                        // -- End function
	.section	.text.mas_bkops_status_proc_show,"ax",@progbits
	.hidden	mas_bkops_status_proc_show // -- Begin function mas_bkops_status_proc_show
	.globl	mas_bkops_status_proc_show
	.p2align	2
	.type	mas_bkops_status_proc_show,@function
mas_bkops_status_proc_show:             // @mas_bkops_status_proc_show
.Lfunc_begin11:
	.loc	5 756 0 is_stmt 1       // kernel/block/mas_bkops_core.c:756:0
	.cfi_startproc
// %bb.0:
	//DEBUG_VALUE: mas_bkops_status_proc_show:m <- $x0
	//DEBUG_VALUE: mas_bkops_status_proc_show:v <- $x1
	sub	sp, sp, #64             // =64
	str	x21, [sp, #16]          // 8-byte Folded Spill
	stp	x20, x19, [sp, #32]     // 16-byte Folded Spill
	stp	x29, x30, [sp, #48]     // 16-byte Folded Spill
	add	x29, sp, #48            // =48
	.cfi_def_cfa w29, 16
	.cfi_offset w30, -8
	.cfi_offset w29, -16
	.cfi_offset w19, -24
	.cfi_offset w20, -32
	.cfi_offset w21, -48
	adrp	x8, __stack_chk_guard
	ldr	x8, [x8, :lo12:__stack_chk_guard]
	mov	x19, x0
	str	x8, [sp, #8]
.Ltmp286:
	//DEBUG_VALUE: mas_bkops_status_proc_show:status <- 0
	//DEBUG_VALUE: mas_bkops_status_proc_show:m <- $x19
	.loc	5 757 6 prologue_end    // kernel/block/mas_bkops_core.c:757:6
	str	wzr, [sp, #4]
	.loc	5 760 27                // kernel/block/mas_bkops_core.c:760:27
	ldr	x20, [x0, #152]
.Ltmp287:
	//DEBUG_VALUE: mas_bkops_query:ret <- 0
	//DEBUG_VALUE: mas_bkops_query:bkops_status <- [DW_OP_plus_uconst 4] $sp
	//DEBUG_VALUE: mas_bkops_status_proc_show:status <- [DW_OP_plus_uconst 4, DW_OP_deref] $sp
	//DEBUG_VALUE: mas_bkops_query:bkops <- $x20
	.loc	5 106 2                 // kernel/block/mas_bkops_core.c:106:2
	adrp	x0, bkops_lock
	add	x0, x0, :lo12:bkops_lock
	.loc	5 99 41                 // kernel/block/mas_bkops_core.c:99:41
	ldr	x21, [x20, #8]
.Ltmp288:
	//DEBUG_VALUE: mas_bkops_query:bkops_ops_p <- $x21
	.loc	5 106 2                 // kernel/block/mas_bkops_core.c:106:2
	bl	mutex_lock
.Ltmp289:
	.loc	5 107 7                 // kernel/block/mas_bkops_core.c:107:7
	adrp	x8, bkops_enabled
	ldrb	w8, [x8, :lo12:bkops_enabled]
.Ltmp290:
	.loc	5 107 6 is_stmt 0       // kernel/block/mas_bkops_core.c:107:6
	cmp	w8, #1                  // =1
	b.ne	.LBB11_2
.Ltmp291:
// %bb.1:
	//DEBUG_VALUE: mas_bkops_query:bkops_ops_p <- $x21
	//DEBUG_VALUE: mas_bkops_query:bkops <- $x20
	//DEBUG_VALUE: mas_bkops_status_proc_show:status <- [DW_OP_plus_uconst 4, DW_OP_deref] $sp
	//DEBUG_VALUE: mas_bkops_query:bkops_status <- [DW_OP_plus_uconst 4] $sp
	//DEBUG_VALUE: mas_bkops_status_proc_show:m <- $x19
	//DEBUG_LABEL: mas_bkops_query:out
	.loc	5 140 2 is_stmt 1       // kernel/block/mas_bkops_core.c:140:2
	adrp	x0, bkops_lock
	add	x0, x0, :lo12:bkops_lock
	bl	mutex_unlock
	b	.LBB11_7
.Ltmp292:
.LBB11_2:
	//DEBUG_VALUE: mas_bkops_query:bkops_ops_p <- $x21
	//DEBUG_VALUE: mas_bkops_query:bkops <- $x20
	//DEBUG_VALUE: mas_bkops_status_proc_show:status <- [DW_OP_plus_uconst 4, DW_OP_deref] $sp
	//DEBUG_VALUE: mas_bkops_query:bkops_status <- [DW_OP_plus_uconst 4] $sp
	//DEBUG_VALUE: mas_bkops_status_proc_show:m <- $x19
	.loc	5 119 21                // kernel/block/mas_bkops_core.c:119:21
	ldr	x8, [x21, #8]
	.loc	5 120 10                // kernel/block/mas_bkops_core.c:120:10
	ldr	x0, [x20, #16]
	.loc	5 119 8                 // kernel/block/mas_bkops_core.c:119:8
	add	x1, sp, #4              // =4
	blr	x8
.Ltmp293:
	.loc	5 121 6                 // kernel/block/mas_bkops_core.c:121:6
	adrp	x8, user_manual_gc
	ldrb	w9, [x8, :lo12:user_manual_gc]
.Ltmp294:
	.loc	5 119 8                 // kernel/block/mas_bkops_core.c:119:8
	mov	w20, w0
.Ltmp295:
	//DEBUG_VALUE: mas_bkops_status_proc_show:ret <- $w20
	//DEBUG_VALUE: mas_bkops_query:ret <- $w20
	.loc	5 121 21                // kernel/block/mas_bkops_core.c:121:21
	cbz	w9, .LBB11_5
.Ltmp296:
// %bb.3:
	//DEBUG_VALUE: mas_bkops_query:ret <- $w20
	//DEBUG_VALUE: mas_bkops_status_proc_show:ret <- $w20
	//DEBUG_VALUE: mas_bkops_query:bkops_ops_p <- $x21
	//DEBUG_VALUE: mas_bkops_status_proc_show:status <- [DW_OP_plus_uconst 4, DW_OP_deref] $sp
	//DEBUG_VALUE: mas_bkops_query:bkops_status <- [DW_OP_plus_uconst 4] $sp
	//DEBUG_VALUE: mas_bkops_status_proc_show:m <- $x19
	.loc	5 0 0 is_stmt 0         // kernel/block/mas_bkops_core.c:0:0
	ldr	w9, [sp, #4]
	.loc	5 121 21                // kernel/block/mas_bkops_core.c:121:21
	cbnz	w9, .LBB11_5
.Ltmp297:
// %bb.4:
	//DEBUG_VALUE: mas_bkops_query:ret <- $w20
	//DEBUG_VALUE: mas_bkops_status_proc_show:ret <- $w20
	//DEBUG_VALUE: mas_bkops_query:bkops_ops_p <- $x21
	//DEBUG_VALUE: mas_bkops_status_proc_show:status <- [DW_OP_plus_uconst 4, DW_OP_deref] $sp
	//DEBUG_VALUE: mas_bkops_query:bkops_status <- [DW_OP_plus_uconst 4] $sp
	//DEBUG_VALUE: mas_bkops_status_proc_show:m <- $x19
	.loc	5 122 18 is_stmt 1      // kernel/block/mas_bkops_core.c:122:18
	strb	wzr, [x8, :lo12:user_manual_gc]
.Ltmp298:
.LBB11_5:
	//DEBUG_VALUE: mas_bkops_query:ret <- $w20
	//DEBUG_VALUE: mas_bkops_status_proc_show:ret <- $w20
	//DEBUG_VALUE: mas_bkops_query:bkops_ops_p <- $x21
	//DEBUG_VALUE: mas_bkops_status_proc_show:status <- [DW_OP_plus_uconst 4, DW_OP_deref] $sp
	//DEBUG_VALUE: mas_bkops_query:bkops_status <- [DW_OP_plus_uconst 4] $sp
	//DEBUG_VALUE: mas_bkops_status_proc_show:m <- $x19
	//DEBUG_LABEL: mas_bkops_query:out
	.loc	5 140 2                 // kernel/block/mas_bkops_core.c:140:2
	adrp	x0, bkops_lock
	add	x0, x0, :lo12:bkops_lock
	bl	mutex_unlock
.Ltmp299:
	.loc	5 761 6                 // kernel/block/mas_bkops_core.c:761:6
	cbz	w20, .LBB11_7
.Ltmp300:
// %bb.6:
	//DEBUG_VALUE: mas_bkops_status_proc_show:ret <- $w20
	//DEBUG_VALUE: mas_bkops_status_proc_show:status <- [DW_OP_plus_uconst 4, DW_OP_deref] $sp
	//DEBUG_VALUE: mas_bkops_status_proc_show:m <- $x19
	.loc	5 762 3                 // kernel/block/mas_bkops_core.c:762:3
	adrp	x0, .L.str.3
	adrp	x1, .L__func__.mas_bkops_status_proc_show
	add	x0, x0, :lo12:.L.str.3
	add	x1, x1, :lo12:.L__func__.mas_bkops_status_proc_show
	mov	w2, w20
	bl	printk
	b	.LBB11_8
.Ltmp301:
.LBB11_7:
	//DEBUG_VALUE: mas_bkops_status_proc_show:status <- [DW_OP_plus_uconst 4, DW_OP_deref] $sp
	//DEBUG_VALUE: mas_bkops_status_proc_show:m <- $x19
	.loc	5 766 24                // kernel/block/mas_bkops_core.c:766:24
	ldr	w2, [sp, #4]
.Ltmp302:
	//DEBUG_VALUE: mas_bkops_status_proc_show:status <- $w2
	.loc	5 766 2 is_stmt 0       // kernel/block/mas_bkops_core.c:766:2
	adrp	x1, .L.str.7
	add	x1, x1, :lo12:.L.str.7
	mov	x0, x19
	bl	seq_printf
.Ltmp303:
	.loc	5 0 0                   // kernel/block/mas_bkops_core.c:0:0
	mov	w20, wzr
.Ltmp304:
.LBB11_8:
	//DEBUG_VALUE: mas_bkops_status_proc_show:m <- $x19
	adrp	x9, __stack_chk_guard
	ldr	x8, [sp, #8]
	ldr	x9, [x9, :lo12:__stack_chk_guard]
	cmp	x9, x8
	b.ne	.LBB11_10
.Ltmp305:
// %bb.9:
	//DEBUG_VALUE: mas_bkops_status_proc_show:m <- $x19
	.loc	5 769 1 is_stmt 1       // kernel/block/mas_bkops_core.c:769:1
	mov	w0, w20
	ldp	x29, x30, [sp, #48]     // 16-byte Folded Reload
	ldp	x20, x19, [sp, #32]     // 16-byte Folded Reload
.Ltmp306:
	ldr	x21, [sp, #16]          // 8-byte Folded Reload
	add	sp, sp, #64             // =64
	ret
.Ltmp307:
.LBB11_10:
	//DEBUG_VALUE: mas_bkops_status_proc_show:m <- $x19
	.loc	5 0 1 is_stmt 0         // kernel/block/mas_bkops_core.c:0:1
	bl	__stack_chk_fail
.Lfunc_end11:
	.size	mas_bkops_status_proc_show, .Lfunc_end11-mas_bkops_status_proc_show
	.cfi_endproc
                                        // -- End function
	.section	.text.mas_bkops_status_proc_open,"ax",@progbits
	.hidden	mas_bkops_status_proc_open // -- Begin function mas_bkops_status_proc_open
	.globl	mas_bkops_status_proc_open
	.p2align	2
	.type	mas_bkops_status_proc_open,@function
mas_bkops_status_proc_open:             // @mas_bkops_status_proc_open
.Lfunc_begin12:
	.loc	5 773 0 is_stmt 1       // kernel/block/mas_bkops_core.c:773:0
	.cfi_startproc
// %bb.0:
	//DEBUG_VALUE: mas_bkops_status_proc_open:p_inode <- $x0
	//DEBUG_VALUE: mas_bkops_status_proc_open:p_file <- $x1
	str	x19, [sp, #-32]!        // 8-byte Folded Spill
	stp	x29, x30, [sp, #16]     // 16-byte Folded Spill
	add	x29, sp, #16            // =16
	.cfi_def_cfa w29, 16
	.cfi_offset w30, -8
	.cfi_offset w29, -16
	.cfi_offset w19, -32
	mov	x19, x1
.Ltmp308:
	//DEBUG_VALUE: mas_bkops_status_proc_open:p_file <- $x19
	//DEBUG_VALUE: mas_bkops_status_proc_open:p_inode <- $x0
	//DEBUG_VALUE: mas_bkops_status_proc_open:p_inode <- $x0
	.loc	5 775 37 prologue_end   // kernel/block/mas_bkops_core.c:775:37
	bl	PDE_DATA
.Ltmp309:
	.loc	5 774 9                 // kernel/block/mas_bkops_core.c:774:9
	adrp	x1, __cfi_mas_bkops_status_proc_show
	.loc	5 775 37                // kernel/block/mas_bkops_core.c:775:37
	mov	x2, x0
	.loc	5 774 9                 // kernel/block/mas_bkops_core.c:774:9
	add	x1, x1, :lo12:__cfi_mas_bkops_status_proc_show
	mov	x0, x19
.Ltmp310:
	//DEBUG_VALUE: mas_bkops_status_proc_open:p_file <- $x0
	bl	single_open
.Ltmp311:
	.loc	5 774 2 is_stmt 0       // kernel/block/mas_bkops_core.c:774:2
	ldp	x29, x30, [sp, #16]     // 16-byte Folded Reload
	ldr	x19, [sp], #32          // 8-byte Folded Reload
	ret
.Ltmp312:
.Lfunc_end12:
	.size	mas_bkops_status_proc_open, .Lfunc_end12-mas_bkops_status_proc_open
	.cfi_endproc
                                        // -- End function
	.section	.text.mas_bkops_enable,"ax",@progbits
	.hidden	mas_bkops_enable        // -- Begin function mas_bkops_enable
	.globl	mas_bkops_enable
	.p2align	2
	.type	mas_bkops_enable,@function
mas_bkops_enable:                       // @mas_bkops_enable
.Lfunc_begin13:
	.loc	5 802 0 is_stmt 1       // kernel/block/mas_bkops_core.c:802:0
	.cfi_startproc
// %bb.0:
	//DEBUG_VALUE: mas_bkops_enable:q <- $x0
	//DEBUG_VALUE: mas_bkops_enable:bkops <- $x1
	//DEBUG_VALUE: mas_bkops_enable:pdir <- $x2
	stp	x24, x23, [sp, #-64]!   // 16-byte Folded Spill
	stp	x22, x21, [sp, #16]     // 16-byte Folded Spill
	stp	x20, x19, [sp, #32]     // 16-byte Folded Spill
	stp	x29, x30, [sp, #48]     // 16-byte Folded Spill
	add	x29, sp, #48            // =48
	.cfi_def_cfa w29, 16
	.cfi_offset w30, -8
	.cfi_offset w29, -16
	.cfi_offset w19, -24
	.cfi_offset w20, -32
	.cfi_offset w21, -40
	.cfi_offset w22, -48
	.cfi_offset w23, -56
	.cfi_offset w24, -64
	mov	x21, x0
	mov	w0, #-22
.Ltmp313:
	//DEBUG_VALUE: mas_bkops_enable:blk_lld <- 0
	//DEBUG_VALUE: mas_bkops_enable:event_node <- 0
	//DEBUG_VALUE: mas_bkops_enable:q <- $x21
	.loc	5 806 9 prologue_end    // kernel/block/mas_bkops_core.c:806:9
	cbz	x21, .LBB13_20
.Ltmp314:
// %bb.1:
	//DEBUG_VALUE: mas_bkops_enable:q <- $x21
	//DEBUG_VALUE: mas_bkops_enable:pdir <- $x2
	//DEBUG_VALUE: mas_bkops_enable:bkops <- $x1
	.loc	5 0 9 is_stmt 0         // kernel/block/mas_bkops_core.c:0:9
	mov	x19, x1
.Ltmp315:
	//DEBUG_VALUE: mas_bkops_enable:bkops <- $x19
	.loc	5 806 9                 // kernel/block/mas_bkops_core.c:806:9
	cbz	x1, .LBB13_20
.Ltmp316:
// %bb.2:
	//DEBUG_VALUE: mas_bkops_enable:bkops <- $x19
	//DEBUG_VALUE: mas_bkops_enable:q <- $x21
	//DEBUG_VALUE: mas_bkops_enable:pdir <- $x2
	.loc	5 0 9                   // kernel/block/mas_bkops_core.c:0:9
	mov	x22, x2
.Ltmp317:
	//DEBUG_VALUE: mas_bkops_enable:pdir <- $x22
	.loc	5 806 9                 // kernel/block/mas_bkops_core.c:806:9
	cbz	x2, .LBB13_20
.Ltmp318:
// %bb.3:
	//DEBUG_VALUE: mas_bkops_enable:pdir <- $x22
	//DEBUG_VALUE: mas_bkops_enable:bkops <- $x19
	//DEBUG_VALUE: mas_bkops_enable:q <- $x21
	.loc	5 810 12 is_stmt 1      // kernel/block/mas_bkops_core.c:810:12
	mov	x0, x21
	bl	mas_blk_get_lld
	.loc	5 811 6                 // kernel/block/mas_bkops_core.c:811:6
	ldrb	w8, [x0, #24]
	tbz	w8, #3, .LBB13_22
.Ltmp319:
// %bb.4:
	//DEBUG_VALUE: mas_bkops_enable:pdir <- $x22
	//DEBUG_VALUE: mas_bkops_enable:bkops <- $x19
	//DEBUG_VALUE: mas_bkops_enable:q <- $x21
	.loc	5 816 13                // kernel/block/mas_bkops_core.c:816:13
	ldr	w8, [x19]
	.loc	5 816 40 is_stmt 0      // kernel/block/mas_bkops_core.c:816:40
	sub	w8, w8, #1              // =1
	cmp	w8, #3                  // =3
	b.lo	.LBB13_6
.Ltmp320:
// %bb.5:
	//DEBUG_VALUE: mas_bkops_enable:pdir <- $x22
	//DEBUG_VALUE: mas_bkops_enable:bkops <- $x19
	//DEBUG_VALUE: mas_bkops_enable:q <- $x21
	.loc	5 818 3 is_stmt 1       // kernel/block/mas_bkops_core.c:818:3
	adrp	x0, .L.str.9
	add	x0, x0, :lo12:.L.str.9
.Ltmp321:
	.loc	5 0 0 is_stmt 0         // kernel/block/mas_bkops_core.c:0:0
	bl	printk
	b	.LBB13_19
.Ltmp322:
.LBB13_6:
	//DEBUG_VALUE: mas_bkops_enable:pdir <- $x22
	//DEBUG_VALUE: mas_bkops_enable:bkops <- $x19
	//DEBUG_VALUE: mas_bkops_enable:q <- $x21
	.loc	5 822 14 is_stmt 1      // kernel/block/mas_bkops_core.c:822:14
	ldr	x8, [x19, #8]
.Ltmp323:
	.loc	5 822 6 is_stmt 0       // kernel/block/mas_bkops_core.c:822:6
	cbz	x8, .LBB13_15
.Ltmp324:
// %bb.7:
	//DEBUG_VALUE: mas_bkops_enable:pdir <- $x22
	//DEBUG_VALUE: mas_bkops_enable:bkops <- $x19
	//DEBUG_VALUE: mas_bkops_enable:q <- $x21
	.loc	5 666 6 is_stmt 1       // kernel/block/mas_bkops_core.c:666:6
	adrp	x24, mas_bkops_inited
	ldrb	w8, [x24, :lo12:mas_bkops_inited]
.Ltmp325:
	.loc	5 0 0 is_stmt 0         // kernel/block/mas_bkops_core.c:0:0
	mov	x20, x0
.Ltmp326:
	//DEBUG_VALUE: mas_bkops_enable:blk_lld <- $x20
	.loc	5 666 6                 // kernel/block/mas_bkops_core.c:666:6
	tbnz	w8, #0, .LBB13_10
.Ltmp327:
// %bb.8:
	//DEBUG_VALUE: mas_bkops_enable:blk_lld <- $x20
	//DEBUG_VALUE: mas_bkops_enable:pdir <- $x22
	//DEBUG_VALUE: mas_bkops_enable:bkops <- $x19
	//DEBUG_VALUE: mas_bkops_enable:q <- $x21
	.loc	5 669 22 is_stmt 1      // kernel/block/mas_bkops_core.c:669:22
	adrp	x0, .L.str.16
	add	x0, x0, :lo12:.L.str.16
	orr	w1, wzr, #0x18
	mov	w2, wzr
	mov	x3, xzr
	mov	x4, xzr
	bl	__alloc_workqueue_key
	.loc	5 669 20 is_stmt 0      // kernel/block/mas_bkops_core.c:669:20
	adrp	x8, bkops_workqueue_g
	str	x0, [x8, :lo12:bkops_workqueue_g]
	.loc	5 671 6 is_stmt 1       // kernel/block/mas_bkops_core.c:671:6
	cbz	x0, .LBB13_18
.Ltmp328:
// %bb.9:
	//DEBUG_VALUE: mas_bkops_enable:blk_lld <- $x20
	//DEBUG_VALUE: mas_bkops_enable:pdir <- $x22
	//DEBUG_VALUE: mas_bkops_enable:bkops <- $x19
	//DEBUG_VALUE: mas_bkops_enable:q <- $x21
	.loc	5 672 3                 // kernel/block/mas_bkops_core.c:672:3
	adrp	x0, bkops_pm_notifier
	add	x0, x0, :lo12:bkops_pm_notifier
	bl	register_pm_notifier
	.loc	5 673 3                 // kernel/block/mas_bkops_core.c:673:3
	adrp	x0, bkops_reboot_notifier
	add	x0, x0, :lo12:bkops_reboot_notifier
	bl	register_reboot_notifier
	orr	w8, wzr, #0x1
	.loc	5 674 20                // kernel/block/mas_bkops_core.c:674:20
	strb	w8, [x24, :lo12:mas_bkops_inited]
.Ltmp329:
.LBB13_10:
	//DEBUG_VALUE: mas_bkops_enable:blk_lld <- $x20
	//DEBUG_VALUE: mas_bkops_enable:pdir <- $x22
	//DEBUG_VALUE: mas_bkops_enable:bkops <- $x19
	//DEBUG_VALUE: mas_bkops_enable:q <- $x21
	.loc	5 833 6                 // kernel/block/mas_bkops_core.c:833:6
	mov	x0, x19
	mov	x1, x22
.Ltmp330:
	.loc	5 0 0 is_stmt 0         // kernel/block/mas_bkops_core.c:0:0
	add	x23, x19, #144          // =144
.Ltmp331:
	//DEBUG_VALUE: mas_bkops_enable:event_node <- $x23
	.loc	5 833 6                 // kernel/block/mas_bkops_core.c:833:6
	bl	mas_bkops_add_debugfs
.Ltmp332:
	.loc	5 833 6                 // kernel/block/mas_bkops_core.c:833:6
	cbz	w0, .LBB13_12
.Ltmp333:
// %bb.11:
	//DEBUG_VALUE: mas_bkops_enable:event_node <- $x23
	//DEBUG_VALUE: mas_bkops_enable:blk_lld <- $x20
	//DEBUG_VALUE: mas_bkops_enable:pdir <- $x22
	//DEBUG_VALUE: mas_bkops_enable:bkops <- $x19
	//DEBUG_VALUE: mas_bkops_enable:q <- $x21
	.loc	5 834 3 is_stmt 1       // kernel/block/mas_bkops_core.c:834:3
	adrp	x0, .L.str.12
	add	x0, x0, :lo12:.L.str.12
	bl	printk
.Ltmp334:
.LBB13_12:
	//DEBUG_VALUE: mas_bkops_enable:event_node <- $x23
	//DEBUG_VALUE: mas_bkops_enable:blk_lld <- $x20
	//DEBUG_VALUE: mas_bkops_enable:pdir <- $x22
	//DEBUG_VALUE: mas_bkops_enable:bkops <- $x19
	//DEBUG_VALUE: mas_bkops_enable:q <- $x21
	.loc	5 837 2                 // kernel/block/mas_bkops_core.c:837:2
	adrp	x1, .L.str.13
	add	x1, x1, :lo12:.L.str.13
	orr	w2, wzr, #0x20
	mov	x0, x23
	.loc	5 836 11                // kernel/block/mas_bkops_core.c:836:11
	str	x21, [x19, #24]
	.loc	5 837 2                 // kernel/block/mas_bkops_core.c:837:2
	bl	strncpy
	.loc	5 840 32                // kernel/block/mas_bkops_core.c:840:32
	adrp	x8, __cfi_bkops_io_busyidle_notify_handler
	add	x8, x8, :lo12:__cfi_bkops_io_busyidle_notify_handler
.Ltmp335:
	.loc	5 842 6                 // kernel/block/mas_bkops_core.c:842:6
	mov	x0, x20
	mov	x1, x23
.Ltmp336:
	.loc	5 839 50                // kernel/block/mas_bkops_core.c:839:50
	strb	wzr, [x19, #175]
	.loc	5 840 32                // kernel/block/mas_bkops_core.c:840:32
	stp	x8, x19, [x19, #176]
.Ltmp337:
	.loc	5 842 6                 // kernel/block/mas_bkops_core.c:842:6
	bl	blk_lld_busyidle_event_subscribe
.Ltmp338:
	.loc	5 842 6 is_stmt 0       // kernel/block/mas_bkops_core.c:842:6
	cbz	w0, .LBB13_16
.Ltmp339:
// %bb.13:
	//DEBUG_VALUE: mas_bkops_enable:event_node <- $x23
	//DEBUG_VALUE: mas_bkops_enable:blk_lld <- $x20
	//DEBUG_VALUE: mas_bkops_enable:pdir <- $x22
	//DEBUG_VALUE: mas_bkops_enable:bkops <- $x19
	//DEBUG_VALUE: mas_bkops_enable:q <- $x21
	//DEBUG_LABEL: mas_bkops_enable:bkops_exit
	.loc	5 683 7 is_stmt 1       // kernel/block/mas_bkops_core.c:683:7
	adrp	x19, bkops_workqueue_g
.Ltmp340:
	ldr	x8, [x19, :lo12:bkops_workqueue_g]
.Ltmp341:
	.loc	5 683 6 is_stmt 0       // kernel/block/mas_bkops_core.c:683:6
	cbz	x8, .LBB13_19
.Ltmp342:
// %bb.14:
	//DEBUG_VALUE: mas_bkops_enable:event_node <- $x23
	//DEBUG_VALUE: mas_bkops_enable:blk_lld <- $x20
	//DEBUG_VALUE: mas_bkops_enable:pdir <- $x22
	//DEBUG_VALUE: mas_bkops_enable:q <- $x21
	.loc	5 687 2 is_stmt 1       // kernel/block/mas_bkops_core.c:687:2
	adrp	x0, bkops_reboot_notifier
	add	x0, x0, :lo12:bkops_reboot_notifier
	.loc	5 686 19                // kernel/block/mas_bkops_core.c:686:19
	strb	wzr, [x24, :lo12:mas_bkops_inited]
	.loc	5 687 2                 // kernel/block/mas_bkops_core.c:687:2
	bl	unregister_reboot_notifier
	.loc	5 688 2                 // kernel/block/mas_bkops_core.c:688:2
	adrp	x0, bkops_pm_notifier
	add	x0, x0, :lo12:bkops_pm_notifier
	bl	unregister_pm_notifier
	.loc	5 689 20                // kernel/block/mas_bkops_core.c:689:20
	ldr	x0, [x19, :lo12:bkops_workqueue_g]
	.loc	5 689 2 is_stmt 0       // kernel/block/mas_bkops_core.c:689:2
	bl	destroy_workqueue
	.loc	5 690 20 is_stmt 1      // kernel/block/mas_bkops_core.c:690:20
	str	xzr, [x19, :lo12:bkops_workqueue_g]
	b	.LBB13_19
.Ltmp343:
.LBB13_15:
	//DEBUG_VALUE: mas_bkops_enable:pdir <- $x22
	//DEBUG_VALUE: mas_bkops_enable:bkops <- $x19
	//DEBUG_VALUE: mas_bkops_enable:q <- $x21
	.loc	5 823 3                 // kernel/block/mas_bkops_core.c:823:3
	adrp	x0, .L.str.10
	add	x0, x0, :lo12:.L.str.10
.Ltmp344:
	.loc	5 0 0 is_stmt 0         // kernel/block/mas_bkops_core.c:0:0
	bl	printk
	b	.LBB13_19
.Ltmp345:
.LBB13_16:
	//DEBUG_VALUE: mas_bkops_enable:event_node <- $x23
	//DEBUG_VALUE: mas_bkops_enable:blk_lld <- $x20
	//DEBUG_VALUE: mas_bkops_enable:pdir <- $x22
	//DEBUG_VALUE: mas_bkops_enable:bkops <- $x19
	//DEBUG_VALUE: mas_bkops_enable:q <- $x21
	//DEBUG_VALUE: mas_bkops_manual_gc_proc_init:bkops <- $x19
	//DEBUG_VALUE: mas_bkops_manual_gc_proc_init:dir <- 0
	.loc	5 789 8 is_stmt 1       // kernel/block/mas_bkops_core.c:789:8
	adrp	x0, .L.str.17
	add	x0, x0, :lo12:.L.str.17
	mov	x1, xzr
	bl	proc_mkdir
	.loc	5 790 6                 // kernel/block/mas_bkops_core.c:790:6
	cbz	x0, .LBB13_21
.Ltmp346:
// %bb.17:
	//DEBUG_VALUE: mas_bkops_manual_gc_proc_init:bkops <- $x19
	//DEBUG_VALUE: mas_bkops_enable:event_node <- $x23
	//DEBUG_VALUE: mas_bkops_enable:blk_lld <- $x20
	//DEBUG_VALUE: mas_bkops_enable:pdir <- $x22
	//DEBUG_VALUE: mas_bkops_enable:bkops <- $x19
	//DEBUG_VALUE: mas_bkops_enable:q <- $x21
	.loc	5 0 0 is_stmt 0         // kernel/block/mas_bkops_core.c:0:0
	mov	x20, x0
.Ltmp347:
	//DEBUG_VALUE: mas_bkops_manual_gc_proc_init:dir <- $x20
	.loc	5 795 2 is_stmt 1       // kernel/block/mas_bkops_core.c:795:2
	adrp	x0, .L.str.19
	adrp	x3, mas_bkops_manual_gc_fops
	add	x0, x0, :lo12:.L.str.19
	add	x3, x3, :lo12:mas_bkops_manual_gc_fops
	mov	w1, #432
	mov	x2, x20
	bl	proc_create
	.loc	5 796 2                 // kernel/block/mas_bkops_core.c:796:2
	adrp	x0, .L.str.20
	adrp	x3, mas_bkops_status_fops
	add	x0, x0, :lo12:.L.str.20
	add	x3, x3, :lo12:mas_bkops_status_fops
	mov	w1, #288
	mov	x2, x20
	mov	x4, x19
	bl	proc_create_data
.Ltmp348:
	.loc	5 0 0 is_stmt 0         // kernel/block/mas_bkops_core.c:0:0
	mov	w0, wzr
	b	.LBB13_20
.Ltmp349:
.LBB13_18:
	//DEBUG_VALUE: mas_bkops_enable:blk_lld <- $x20
	//DEBUG_VALUE: mas_bkops_enable:pdir <- $x22
	//DEBUG_VALUE: mas_bkops_enable:bkops <- $x19
	//DEBUG_VALUE: mas_bkops_enable:q <- $x21
	.loc	5 828 3 is_stmt 1       // kernel/block/mas_bkops_core.c:828:3
	adrp	x0, .L.str.11
	adrp	x1, .L__func__.mas_bkops_enable
	add	x0, x0, :lo12:.L.str.11
	add	x1, x1, :lo12:.L__func__.mas_bkops_enable
	mov	w2, #829
	bl	printk
.Ltmp350:
.LBB13_19:
	//DEBUG_VALUE: mas_bkops_enable:pdir <- $x22
	//DEBUG_VALUE: mas_bkops_enable:q <- $x21
	.loc	5 0 3 is_stmt 0         // kernel/block/mas_bkops_core.c:0:3
	mov	w0, #-22
.Ltmp351:
.LBB13_20:
	//DEBUG_VALUE: mas_bkops_enable:q <- $x21
	.loc	5 852 1 is_stmt 1       // kernel/block/mas_bkops_core.c:852:1
	ldp	x29, x30, [sp, #48]     // 16-byte Folded Reload
	ldp	x20, x19, [sp, #32]     // 16-byte Folded Reload
	ldp	x22, x21, [sp, #16]     // 16-byte Folded Reload
.Ltmp352:
	ldp	x24, x23, [sp], #64     // 16-byte Folded Reload
	ret
.LBB13_21:
.Ltmp353:
	//DEBUG_VALUE: mas_bkops_manual_gc_proc_init:bkops <- $x19
	//DEBUG_VALUE: mas_bkops_enable:event_node <- $x23
	//DEBUG_VALUE: mas_bkops_enable:blk_lld <- $x20
	//DEBUG_VALUE: mas_bkops_enable:pdir <- $x22
	//DEBUG_VALUE: mas_bkops_enable:bkops <- $x19
	//DEBUG_VALUE: mas_bkops_enable:q <- $x21
	.loc	5 791 3                 // kernel/block/mas_bkops_core.c:791:3
	adrp	x0, .L.str.18
	adrp	x1, .L__func__.mas_bkops_manual_gc_proc_init
	add	x0, x0, :lo12:.L.str.18
	add	x1, x1, :lo12:.L__func__.mas_bkops_manual_gc_proc_init
	mov	w2, #791
	bl	printk
.Ltmp354:
	.loc	5 0 0 is_stmt 0         // kernel/block/mas_bkops_core.c:0:0
	mov	w0, wzr
	b	.LBB13_20
.Ltmp355:
.LBB13_22:
	//DEBUG_VALUE: mas_bkops_enable:pdir <- $x22
	//DEBUG_VALUE: mas_bkops_enable:bkops <- $x19
	//DEBUG_VALUE: mas_bkops_enable:q <- $x21
	.loc	5 812 3 is_stmt 1       // kernel/block/mas_bkops_core.c:812:3
	adrp	x0, .L.str.8
	add	x0, x0, :lo12:.L.str.8
.Ltmp356:
	.loc	5 0 0 is_stmt 0         // kernel/block/mas_bkops_core.c:0:0
	bl	printk
	b	.LBB13_19
.Ltmp357:
.Lfunc_end13:
	.size	mas_bkops_enable, .Lfunc_end13-mas_bkops_enable
	.cfi_endproc
                                        // -- End function
	.section	.text.bkops_should_query,"ax",@progbits
	.p2align	2               // -- Begin function bkops_should_query
	.type	bkops_should_query,@function
bkops_should_query:                     // @bkops_should_query
.Lfunc_begin14:
	.loc	5 290 0 is_stmt 1       // kernel/block/mas_bkops_core.c:290:0
	.cfi_startproc
// %bb.0:
	//DEBUG_VALUE: bkops_should_query:bkops <- $x0
	stp	x20, x19, [sp, #-32]!   // 16-byte Folded Spill
	stp	x29, x30, [sp, #16]     // 16-byte Folded Spill
	add	x29, sp, #16            // =16
	.cfi_def_cfa w29, 16
	.cfi_offset w30, -8
	.cfi_offset w29, -16
	.cfi_offset w19, -24
	.cfi_offset w20, -32
.Ltmp358:
	.loc	5 299 13 prologue_end   // kernel/block/mas_bkops_core.c:299:13
	ldr	x8, [x0, #128]
	mov	x19, x0
.Ltmp359:
	//DEBUG_VALUE: bkops_should_query:bkops <- $x19
	.loc	5 299 6 is_stmt 0       // kernel/block/mas_bkops_core.c:299:6
	tbnz	w8, #1, .LBB14_15
.Ltmp360:
// %bb.1:
	//DEBUG_VALUE: bkops_should_query:bkops <- $x19
	.loc	5 302 13 is_stmt 1      // kernel/block/mas_bkops_core.c:302:13
	ldr	w9, [x19, #204]
	.loc	5 302 28 is_stmt 0      // kernel/block/mas_bkops_core.c:302:28
	cbz	w9, .LBB14_3
.Ltmp361:
// %bb.2:
	//DEBUG_VALUE: bkops_should_query:bkops <- $x19
	.loc	5 302 38                // kernel/block/mas_bkops_core.c:302:38
	ldr	w9, [x19, #200]
.Ltmp362:
	.loc	5 302 6                 // kernel/block/mas_bkops_core.c:302:6
	cbnz	w9, .LBB14_15
.Ltmp363:
.LBB14_3:
	//DEBUG_VALUE: bkops_should_query:bkops <- $x19
	//DEBUG_VALUE: bkops_strategy:bkops <- $x19
	.loc	5 250 51 is_stmt 1      // kernel/block/mas_bkops_core.c:250:51
	ldr	x0, [x19, #24]
	.loc	5 250 28 is_stmt 0      // kernel/block/mas_bkops_core.c:250:28
	bl	mas_blk_get_lld
.Ltmp364:
	.loc	5 253 13 is_stmt 1      // kernel/block/mas_bkops_core.c:253:13
	ldr	x8, [x19, #128]
.Ltmp365:
	.loc	5 250 28                // kernel/block/mas_bkops_core.c:250:28
	mov	x20, x0
.Ltmp366:
	//DEBUG_VALUE: bkops_strategy:lld <- $x20
	.loc	5 253 6                 // kernel/block/mas_bkops_core.c:253:6
	tbz	w8, #4, .LBB14_7
.Ltmp367:
// %bb.4:
	//DEBUG_VALUE: bkops_strategy:lld <- $x20
	//DEBUG_VALUE: bkops_strategy:bkops <- $x19
	//DEBUG_VALUE: bkops_should_query:bkops <- $x19
	//DEBUG_VALUE: bkops_strategy:tp <- [DW_OP_deref] undef
	//DEBUG_VALUE: get_monotonic_boottime:ts <- undef
	.loc	150 197 9               // kernel/include/linux/timekeeping.h:197:9
	orr	w0, wzr, #0x1
	bl	ktime_get_with_offset
.Ltmp368:
	.loc	150 250 8               // kernel/include/linux/timekeeping.h:250:8
	bl	ns_to_timespec
.Ltmp369:
	.loc	5 255 7                 // kernel/block/mas_bkops_core.c:255:7
	ldr	x8, [x19, #216]
	.loc	5 255 47 is_stmt 0      // kernel/block/mas_bkops_core.c:255:47
	cbz	x8, .LBB14_17
.Ltmp370:
// %bb.5:
	//DEBUG_VALUE: bkops_strategy:lld <- $x20
	//DEBUG_VALUE: bkops_strategy:bkops <- $x19
	//DEBUG_VALUE: bkops_should_query:bkops <- $x19
	.loc	5 256 4 is_stmt 1       // kernel/block/mas_bkops_core.c:256:4
	ldr	x9, [x19, #208]
	sub	x8, x0, x8
.Ltmp371:
	.loc	5 255 7                 // kernel/block/mas_bkops_core.c:255:7
	cmp	x8, x9
	b.ge	.LBB14_17
.Ltmp372:
// %bb.6:
	//DEBUG_VALUE: bkops_strategy:lld <- $x20
	//DEBUG_VALUE: bkops_strategy:bkops <- $x19
	//DEBUG_VALUE: bkops_should_query:bkops <- $x19
	.loc	5 266 14                // kernel/block/mas_bkops_core.c:266:14
	ldr	x8, [x19, #128]
.Ltmp373:
.LBB14_7:
	//DEBUG_VALUE: bkops_strategy:lld <- $x20
	//DEBUG_VALUE: bkops_strategy:bkops <- $x19
	//DEBUG_VALUE: bkops_should_query:bkops <- $x19
	.loc	5 266 51 is_stmt 0      // kernel/block/mas_bkops_core.c:266:51
	tbz	w8, #3, .LBB14_9
.Ltmp374:
// %bb.8:
	//DEBUG_VALUE: bkops_strategy:lld <- $x20
	//DEBUG_VALUE: bkops_strategy:bkops <- $x19
	//DEBUG_VALUE: bkops_should_query:bkops <- $x19
	.loc	5 267 10 is_stmt 1      // kernel/block/mas_bkops_core.c:267:10
	ldr	x9, [x20, #1584]
	.loc	5 267 31 is_stmt 0      // kernel/block/mas_bkops_core.c:267:31
	ldp	x11, x10, [x19, #224]
	.loc	5 267 22                // kernel/block/mas_bkops_core.c:267:22
	sub	x10, x9, x10
.Ltmp375:
	.loc	5 266 6 is_stmt 1       // kernel/block/mas_bkops_core.c:266:6
	cmp	x10, x11
	b.hs	.LBB14_13
.Ltmp376:
.LBB14_9:
	//DEBUG_VALUE: bkops_strategy:lld <- $x20
	//DEBUG_VALUE: bkops_strategy:bkops <- $x19
	//DEBUG_VALUE: bkops_should_query:bkops <- $x19
	.loc	5 276 49                // kernel/block/mas_bkops_core.c:276:49
	tbz	w8, #2, .LBB14_11
.Ltmp377:
// %bb.10:
	//DEBUG_VALUE: bkops_strategy:lld <- $x20
	//DEBUG_VALUE: bkops_strategy:bkops <- $x19
	//DEBUG_VALUE: bkops_should_query:bkops <- $x19
	.loc	5 277 10                // kernel/block/mas_bkops_core.c:277:10
	ldr	x9, [x20, #1576]
	.loc	5 277 29 is_stmt 0      // kernel/block/mas_bkops_core.c:277:29
	ldp	x11, x10, [x19, #240]
	.loc	5 277 20                // kernel/block/mas_bkops_core.c:277:20
	sub	x10, x9, x10
.Ltmp378:
	.loc	5 276 6 is_stmt 1       // kernel/block/mas_bkops_core.c:276:6
	cmp	x10, x11
	b.hs	.LBB14_14
.Ltmp379:
.LBB14_11:
	//DEBUG_VALUE: bkops_should_query:bkops <- $x19
	.loc	5 312 6                 // kernel/block/mas_bkops_core.c:312:6
	adrp	x9, user_manual_gc
	ldrb	w9, [x9, :lo12:user_manual_gc]
.Ltmp380:
	.loc	5 309 6                 // kernel/block/mas_bkops_core.c:309:6
	cbnz	w9, .LBB14_15
.Ltmp381:
// %bb.12:
	//DEBUG_VALUE: bkops_should_query:bkops <- $x19
	.loc	5 0 0 is_stmt 0         // kernel/block/mas_bkops_core.c:0:0
	mov	w0, wzr
	.loc	5 318 20 is_stmt 1      // kernel/block/mas_bkops_core.c:318:20
	and	x8, x8, #0xfffffffffffffffd
	b	.LBB14_16
.Ltmp382:
.LBB14_13:
	//DEBUG_VALUE: bkops_strategy:lld <- $x20
	//DEBUG_VALUE: bkops_strategy:bkops <- $x19
	//DEBUG_VALUE: bkops_should_query:bkops <- $x19
	.loc	5 269 27                // kernel/block/mas_bkops_core.c:269:27
	str	x9, [x19, #232]
	b	.LBB14_15
.Ltmp383:
.LBB14_14:
	//DEBUG_VALUE: bkops_strategy:lld <- $x20
	//DEBUG_VALUE: bkops_strategy:bkops <- $x19
	//DEBUG_VALUE: bkops_should_query:bkops <- $x19
	.loc	5 279 25                // kernel/block/mas_bkops_core.c:279:25
	str	x9, [x19, #248]
.Ltmp384:
.LBB14_15:
	//DEBUG_VALUE: bkops_should_query:bkops <- $x19
	//DEBUG_LABEL: bkops_should_query:query_needed
	.loc	5 322 20                // kernel/block/mas_bkops_core.c:322:20
	orr	x8, x8, #0x2
	orr	w0, wzr, #0x1
.Ltmp385:
.LBB14_16:
	//DEBUG_VALUE: bkops_should_query:bkops <- $x19
	.loc	5 0 0 is_stmt 0         // kernel/block/mas_bkops_core.c:0:0
	str	x8, [x19, #128]
	.loc	5 324 1 is_stmt 1       // kernel/block/mas_bkops_core.c:324:1
	ldp	x29, x30, [sp, #16]     // 16-byte Folded Reload
	ldp	x20, x19, [sp], #32     // 16-byte Folded Reload
.Ltmp386:
	ret
.LBB14_17:
.Ltmp387:
	//DEBUG_VALUE: bkops_strategy:lld <- $x20
	//DEBUG_VALUE: bkops_strategy:bkops <- $x19
	//DEBUG_VALUE: bkops_should_query:bkops <- $x19
	.loc	5 322 20                // kernel/block/mas_bkops_core.c:322:20
	ldr	x8, [x19, #128]
.Ltmp388:
	.loc	5 258 33                // kernel/block/mas_bkops_core.c:258:33
	str	x0, [x19, #216]
	b	.LBB14_15
.Ltmp389:
.Lfunc_end14:
	.size	bkops_should_query, .Lfunc_end14-bkops_should_query
	.cfi_endproc
                                        // -- End function
	.type	.L.str,@object          // @.str
	.section	.rodata.str1.1,"aMS",@progbits,1
.L.str:
	.asciz	"\0013[BKOPS]mas_bkops_query failed!\n"
	.size	.L.str, 34

	.type	.L.str.1,@object        // @.str.1
.L.str.1:
	.asciz	"\0013[BKOPS]mas_bkops_start failed!\n"
	.size	.L.str.1, 34

	.type	bkops_io_busyidle_notify_handler._rs,@object // @bkops_io_busyidle_notify_handler._rs
	.section	.data.bkops_io_busyidle_notify_handler._rs,"aw",@progbits
	.p2align	3
bkops_io_busyidle_notify_handler._rs:
	.zero	4
	.word	3735899821              // 0xdead4ead
	.word	4294967295              // 0xffffffff
	.zero	4
	.xword	-1
	.word	1250                    // 0x4e2
	.word	10                      // 0xa
	.word	0                       // 0x0
	.word	0                       // 0x0
	.xword	0                       // 0x0
	.xword	0                       // 0x0
	.size	bkops_io_busyidle_notify_handler._rs, 56

	.type	.L__func__.bkops_io_busyidle_notify_handler,@object // @__func__.bkops_io_busyidle_notify_handler
	.section	.rodata.str1.1,"aMS",@progbits,1
.L__func__.bkops_io_busyidle_notify_handler:
	.asciz	"bkops_io_busyidle_notify_handler"
	.size	.L__func__.bkops_io_busyidle_notify_handler, 33

	.type	.L.str.2,@object        // @.str.2
.L.str.2:
	.asciz	"\0013[BKOPS]%s unknown state: %d\n"
	.size	.L.str.2, 31

	.type	.L.str.3,@object        // @.str.3
.L.str.3:
	.asciz	"\0013[BKOPS]%s: mas_bkops_query failed, ret = %d!\n"
	.size	.L.str.3, 48

	.type	.L__func__.mas_bkops_work_query,@object // @__func__.mas_bkops_work_query
.L__func__.mas_bkops_work_query:
	.asciz	"mas_bkops_work_query"
	.size	.L__func__.mas_bkops_work_query, 21

	.type	.L__func__.mas_bkops_work_start,@object // @__func__.mas_bkops_work_start
.L__func__.mas_bkops_work_start:
	.asciz	"mas_bkops_work_start"
	.size	.L__func__.mas_bkops_work_start, 21

	.type	.L.str.4,@object        // @.str.4
.L.str.4:
	.asciz	"\0013[BKOPS]Failed to alloc bkops_func\n"
	.size	.L.str.4, 37

	.type	.L.str.5,@object        // @.str.5
.L.str.5:
	.asciz	"%d\n"
	.size	.L.str.5, 4

	.type	user_manual_gc,@object  // @user_manual_gc
	.section	.bss.user_manual_gc,"aw",@nobits
	.p2align	2
user_manual_gc:
	.byte	0                       // 0x0
	.size	user_manual_gc, 1

	.type	.L.str.6,@object        // @.str.6
	.section	.rodata.str1.1,"aMS",@progbits,1
.L.str.6:
	.asciz	"\0013[BKOPS]%s %d: input error.\n"
	.size	.L.str.6, 30

	.type	.L__func__.mas_bkops_manual_gc_proc_write,@object // @__func__.mas_bkops_manual_gc_proc_write
.L__func__.mas_bkops_manual_gc_proc_write:
	.asciz	"mas_bkops_manual_gc_proc_write"
	.size	.L__func__.mas_bkops_manual_gc_proc_write, 31

	.type	.L__func__.mas_bkops_status_proc_show,@object // @__func__.mas_bkops_status_proc_show
.L__func__.mas_bkops_status_proc_show:
	.asciz	"mas_bkops_status_proc_show"
	.size	.L__func__.mas_bkops_status_proc_show, 27

	.type	.L.str.7,@object        // @.str.7
.L.str.7:
	.asciz	"%u\n"
	.size	.L.str.7, 4

	.type	.L.str.8,@object        // @.str.8
.L.str.8:
	.asciz	"\0013[BKOPS]Busy Idle was not enabled!\n"
	.size	.L.str.8, 37

	.type	.L.str.9,@object        // @.str.9
.L.str.9:
	.asciz	"\0013[BKOPS]bkops dev type not specified!\n"
	.size	.L.str.9, 40

	.type	.L.str.10,@object       // @.str.10
.L.str.10:
	.asciz	"\0013[BKOPS]bkops_ops is NULL!\n"
	.size	.L.str.10, 29

	.type	.L.str.11,@object       // @.str.11
.L.str.11:
	.asciz	"\0013[BKOPS]%s %d mas_bkops_init failed!\n"
	.size	.L.str.11, 39

	.type	.L__func__.mas_bkops_enable,@object // @__func__.mas_bkops_enable
.L__func__.mas_bkops_enable:
	.asciz	"mas_bkops_enable"
	.size	.L__func__.mas_bkops_enable, 17

	.type	.L.str.12,@object       // @.str.12
.L.str.12:
	.asciz	"\0013[BKOPS]Failed to create mmc bkops debugfs!\n"
	.size	.L.str.12, 46

	.type	.L.str.13,@object       // @.str.13
.L.str.13:
	.asciz	"mas_bkops"
	.size	.L.str.13, 10

	.type	bkops_lock,@object      // @bkops_lock
	.section	.data.bkops_lock,"aw",@progbits
	.p2align	3
bkops_lock:
	.zero	8
	.zero	4
	.word	3735899821              // 0xdead4ead
	.word	4294967295              // 0xffffffff
	.zero	4
	.xword	-1
	.zero	4
	.zero	4
	.xword	bkops_lock+40
	.xword	bkops_lock+40
	.xword	0
	.size	bkops_lock, 64

	.type	bkops_enabled,@object   // @bkops_enabled
	.section	.bss.bkops_enabled,"aw",@nobits
bkops_enabled:
	.byte	0                       // 0x0
	.size	bkops_enabled, 1

	.type	bkops_workqueue_g,@object // @bkops_workqueue_g
	.section	.bss.bkops_workqueue_g,"aw",@nobits
	.p2align	3
bkops_workqueue_g:
	.xword	0
	.size	bkops_workqueue_g, 8

	.type	.L.str.14,@object       // @.str.14
	.section	.rodata.str1.1,"aMS",@progbits,1
.L.str.14:
	.asciz	"\0013[BKOPS]%s: mas_bkops_start failed, ret = %d!\n"
	.size	.L.str.14, 48

	.type	.L__func__.mas_bkops_work_start_ret,@object // @__func__.mas_bkops_work_start_ret
.L__func__.mas_bkops_work_start_ret:
	.asciz	"mas_bkops_work_start_ret"
	.size	.L__func__.mas_bkops_work_start_ret, 25

	.type	mas_bkops_inited,@object // @mas_bkops_inited
	.section	.bss.mas_bkops_inited,"aw",@nobits
	.p2align	2
mas_bkops_inited:
	.byte	0                       // 0x0
	.size	mas_bkops_inited, 1

	.type	.L.str.16,@object       // @.str.16
	.section	.rodata.str1.1,"aMS",@progbits,1
.L.str.16:
	.asciz	"bkops_workqueue"
	.size	.L.str.16, 16

	.type	bkops_pm_notifier,@object // @bkops_pm_notifier
	.section	.data.bkops_pm_notifier,"aw",@progbits
	.p2align	3
bkops_pm_notifier:
	.xword	__cfi_bkops_pm_callback
	.xword	0
	.word	0                       // 0x0
	.zero	4
	.size	bkops_pm_notifier, 24

	.type	bkops_reboot_notifier,@object // @bkops_reboot_notifier
	.section	.data.bkops_reboot_notifier,"aw",@progbits
	.p2align	3
bkops_reboot_notifier:
	.xword	__cfi_bkops_notify_reboot
	.xword	0
	.word	2147483647              // 0x7fffffff
	.zero	4
	.size	bkops_reboot_notifier, 24

	.type	.L.str.17,@object       // @.str.17
	.section	.rodata.str1.1,"aMS",@progbits,1
.L.str.17:
	.asciz	"block"
	.size	.L.str.17, 6

	.type	.L.str.18,@object       // @.str.18
.L.str.18:
	.asciz	"\0013[BKOPS]%s %d: proc mk error.\n"
	.size	.L.str.18, 32

	.type	.L__func__.mas_bkops_manual_gc_proc_init,@object // @__func__.mas_bkops_manual_gc_proc_init
.L__func__.mas_bkops_manual_gc_proc_init:
	.asciz	"mas_bkops_manual_gc_proc_init"
	.size	.L__func__.mas_bkops_manual_gc_proc_init, 30

	.type	.L.str.19,@object       // @.str.19
.L.str.19:
	.asciz	"manual_gc"
	.size	.L.str.19, 10

	.type	mas_bkops_manual_gc_fops,@object // @mas_bkops_manual_gc_fops
	.section	.rodata.mas_bkops_manual_gc_fops,"a",@progbits
	.p2align	3
mas_bkops_manual_gc_fops:
	.xword	0
	.xword	seq_lseek
	.xword	seq_read
	.xword	__cfi_mas_bkops_manual_gc_proc_write
	.xword	0
	.xword	0
	.xword	0
	.xword	0
	.xword	0
	.xword	0
	.xword	0
	.xword	0
	.xword	__cfi_mas_bkops_manual_gc_proc_open
	.xword	0
	.xword	single_release
	.xword	0
	.xword	0
	.xword	0
	.xword	0
	.xword	0
	.xword	0
	.xword	0
	.xword	0
	.xword	0
	.xword	0
	.xword	0
	.xword	0
	.xword	0
	.xword	0
	.xword	0
	.size	mas_bkops_manual_gc_fops, 240

	.type	.L.str.20,@object       // @.str.20
	.section	.rodata.str1.1,"aMS",@progbits,1
.L.str.20:
	.asciz	"status"
	.size	.L.str.20, 7

	.type	mas_bkops_status_fops,@object // @mas_bkops_status_fops
	.section	.rodata.mas_bkops_status_fops,"a",@progbits
	.p2align	3
mas_bkops_status_fops:
	.xword	0
	.xword	seq_lseek
	.xword	seq_read
	.xword	0
	.xword	0
	.xword	0
	.xword	0
	.xword	0
	.xword	0
	.xword	0
	.xword	0
	.xword	0
	.xword	__cfi_mas_bkops_status_proc_open
	.xword	0
	.xword	single_release
	.xword	0
	.xword	0
	.xword	0
	.xword	0
	.xword	0
	.xword	0
	.xword	0
	.xword	0
	.xword	0
	.xword	0
	.xword	0
	.xword	0
	.xword	0
	.xword	0
	.xword	0
	.size	mas_bkops_status_fops, 240
