	.text
	.file	"mas_blk_latency.c"
	.file	1 "/mnt/disk/jenkins/ci/workspace/chipset_pipeline_release/opensource/component_code/vendor/huawei/extra/build/build_script/kirin_kernel_release/kernel/block/mas_blk.h"
	.file	2 "/mnt/disk/jenkins/ci/workspace/chipset_pipeline_release/opensource/component_code/vendor/huawei/extra/build/build_script/kirin_kernel_release/kernel/include/linux/blk_types.h"
	.file	3 "/mnt/disk/jenkins/ci/workspace/chipset_pipeline_release/opensource/component_code/vendor/huawei/extra/build/build_script/kirin_kernel_release/kernel/include/linux/genhd.h"
	.file	4 "/mnt/disk/jenkins/ci/workspace/chipset_pipeline_release/opensource/component_code/vendor/huawei/extra/build/build_script/kirin_kernel_release/kernel/include/linux/types.h"
	.file	5 "/mnt/disk/jenkins/ci/workspace/chipset_pipeline_release/opensource/component_code/vendor/huawei/extra/build/build_script/kirin_kernel_release/kernel/include/linux/seqlock.h"
	.file	6 "/mnt/disk/jenkins/ci/workspace/chipset_pipeline_release/opensource/component_code/vendor/huawei/extra/build/build_script/kirin_kernel_release/kernel/include/linux/device.h"
	.file	7 "/mnt/disk/jenkins/ci/workspace/chipset_pipeline_release/opensource/component_code/vendor/huawei/extra/build/build_script/kirin_kernel_release/kernel/include/linux/kobject.h"
	.file	8 "/mnt/disk/jenkins/ci/workspace/chipset_pipeline_release/opensource/component_code/vendor/huawei/extra/build/build_script/kirin_kernel_release/kernel/include/asm-generic/int-ll64.h"
	.file	9 "/mnt/disk/jenkins/ci/workspace/chipset_pipeline_release/opensource/component_code/vendor/huawei/extra/build/build_script/kirin_kernel_release/kernel/arch/arm64/include/asm/spinlock_types.h"
	.file	10 "/mnt/disk/jenkins/ci/workspace/chipset_pipeline_release/opensource/component_code/vendor/huawei/extra/build/build_script/kirin_kernel_release/kernel/include/linux/spinlock_types.h"
	.file	11 "/mnt/disk/jenkins/ci/workspace/chipset_pipeline_release/opensource/component_code/vendor/huawei/extra/build/build_script/kirin_kernel_release/kernel/include/uapi/asm-generic/posix_types.h"
	.file	12 "/mnt/disk/jenkins/ci/workspace/chipset_pipeline_release/opensource/component_code/vendor/huawei/extra/build/build_script/kirin_kernel_release/kernel/include/linux/sysfs.h"
	.file	13 "/mnt/disk/jenkins/ci/workspace/chipset_pipeline_release/opensource/component_code/vendor/huawei/extra/build/build_script/kirin_kernel_release/kernel/include/linux/kobject_ns.h"
	.file	14 "/mnt/disk/jenkins/ci/workspace/chipset_pipeline_release/opensource/component_code/vendor/huawei/extra/build/build_script/kirin_kernel_release/kernel/include/linux/kernfs.h"
	.file	15 "/mnt/disk/jenkins/ci/workspace/chipset_pipeline_release/opensource/component_code/vendor/huawei/extra/build/build_script/kirin_kernel_release/kernel/include/linux/rbtree.h"
	.file	16 "/mnt/disk/jenkins/ci/workspace/chipset_pipeline_release/opensource/component_code/vendor/huawei/extra/build/build_script/kirin_kernel_release/kernel/include/linux/radix-tree.h"
	.file	17 "/mnt/disk/jenkins/ci/workspace/chipset_pipeline_release/opensource/component_code/vendor/huawei/extra/build/build_script/kirin_kernel_release/kernel/include/linux/idr.h"
	.file	18 "/mnt/disk/jenkins/ci/workspace/chipset_pipeline_release/opensource/component_code/vendor/huawei/extra/build/build_script/kirin_kernel_release/kernel/include/linux/seq_file.h"
	.file	19 "/mnt/disk/jenkins/ci/workspace/chipset_pipeline_release/opensource/component_code/vendor/huawei/extra/build/build_script/kirin_kernel_release/kernel/include/asm-generic/atomic-long.h"
	.file	20 "/mnt/disk/jenkins/ci/workspace/chipset_pipeline_release/opensource/component_code/vendor/huawei/extra/build/build_script/kirin_kernel_release/kernel/include/linux/mutex.h"
	.file	21 "/mnt/disk/jenkins/ci/workspace/chipset_pipeline_release/opensource/component_code/vendor/huawei/extra/build/build_script/kirin_kernel_release/kernel/include/linux/osq_lock.h"
	.file	22 "/mnt/disk/jenkins/ci/workspace/chipset_pipeline_release/opensource/component_code/vendor/huawei/extra/build/build_script/kirin_kernel_release/kernel/arch/arm64/include/asm/thread_info.h"
	.file	23 "/mnt/disk/jenkins/ci/workspace/chipset_pipeline_release/opensource/component_code/vendor/huawei/extra/build/build_script/kirin_kernel_release/kernel/include/linux/sched.h"
	.file	24 "/mnt/disk/jenkins/ci/workspace/chipset_pipeline_release/opensource/component_code/vendor/huawei/extra/build/build_script/kirin_kernel_release/kernel/include/linux/llist.h"
	.file	25 "/mnt/disk/jenkins/ci/workspace/chipset_pipeline_release/opensource/component_code/vendor/huawei/extra/build/build_script/kirin_kernel_release/kernel/include/linux/cpumask.h"
	.file	26 "/mnt/disk/jenkins/ci/workspace/chipset_pipeline_release/opensource/component_code/vendor/huawei/extra/build/build_script/kirin_kernel_release/kernel/include/linux/timerqueue.h"
	.file	27 "/mnt/disk/jenkins/ci/workspace/chipset_pipeline_release/opensource/component_code/vendor/huawei/extra/build/build_script/kirin_kernel_release/kernel/include/linux/ktime.h"
	.file	28 "/mnt/disk/jenkins/ci/workspace/chipset_pipeline_release/opensource/component_code/vendor/huawei/extra/build/build_script/kirin_kernel_release/kernel/include/linux/hrtimer.h"
	.file	29 "/mnt/disk/jenkins/ci/workspace/chipset_pipeline_release/opensource/component_code/vendor/huawei/extra/build/build_script/kirin_kernel_release/kernel/include/linux/plist.h"
	.file	30 "/mnt/disk/jenkins/ci/workspace/chipset_pipeline_release/opensource/component_code/vendor/huawei/extra/build/build_script/kirin_kernel_release/kernel/include/linux/mm_types.h"
	.file	31 "/mnt/disk/jenkins/ci/workspace/chipset_pipeline_release/opensource/component_code/vendor/huawei/extra/build/build_script/kirin_kernel_release/kernel/arch/arm64/include/asm/pgtable-types.h"
	.file	32 "/mnt/disk/jenkins/ci/workspace/chipset_pipeline_release/opensource/component_code/vendor/huawei/extra/build/build_script/kirin_kernel_release/kernel/include/linux/mm.h"
	.file	33 "/mnt/disk/jenkins/ci/workspace/chipset_pipeline_release/opensource/component_code/vendor/huawei/extra/build/build_script/kirin_kernel_release/kernel/include/asm-generic/pgtable-nop4d-hack.h"
	.file	34 "/mnt/disk/jenkins/ci/workspace/chipset_pipeline_release/opensource/component_code/vendor/huawei/extra/build/build_script/kirin_kernel_release/kernel/include/linux/fs.h"
	.file	35 "/mnt/disk/jenkins/ci/workspace/chipset_pipeline_release/opensource/component_code/vendor/huawei/extra/build/build_script/kirin_kernel_release/kernel/include/linux/uidgid.h"
	.file	36 "/mnt/disk/jenkins/ci/workspace/chipset_pipeline_release/opensource/component_code/vendor/huawei/extra/build/build_script/kirin_kernel_release/kernel/include/linux/dcache.h"
	.file	37 "/mnt/disk/jenkins/ci/workspace/chipset_pipeline_release/opensource/component_code/vendor/huawei/extra/build/build_script/kirin_kernel_release/kernel/include/linux/list_bl.h"
	.file	38 "/mnt/disk/jenkins/ci/workspace/chipset_pipeline_release/opensource/component_code/vendor/huawei/extra/build/build_script/kirin_kernel_release/kernel/include/linux/lockref.h"
	.file	39 "/mnt/disk/jenkins/ci/workspace/chipset_pipeline_release/opensource/component_code/vendor/huawei/extra/build/build_script/kirin_kernel_release/kernel/include/linux/path.h"
	.file	40 "/mnt/disk/jenkins/ci/workspace/chipset_pipeline_release/opensource/component_code/vendor/huawei/extra/build/build_script/kirin_kernel_release/kernel/include/uapi/asm-generic/int-ll64.h"
	.file	41 "/mnt/disk/jenkins/ci/workspace/chipset_pipeline_release/opensource/component_code/vendor/huawei/extra/build/build_script/kirin_kernel_release/kernel/include/linux/module.h"
	.file	42 "/mnt/disk/jenkins/ci/workspace/chipset_pipeline_release/opensource/component_code/vendor/huawei/extra/build/build_script/kirin_kernel_release/kernel/include/linux/completion.h"
	.file	43 "/mnt/disk/jenkins/ci/workspace/chipset_pipeline_release/opensource/component_code/vendor/huawei/extra/build/build_script/kirin_kernel_release/kernel/include/linux/wait.h"
	.file	44 "/mnt/disk/jenkins/ci/workspace/chipset_pipeline_release/opensource/component_code/vendor/huawei/extra/build/build_script/kirin_kernel_release/kernel/include/linux/export.h"
	.file	45 "/mnt/disk/jenkins/ci/workspace/chipset_pipeline_release/opensource/component_code/vendor/huawei/extra/build/build_script/kirin_kernel_release/kernel/include/linux/cfi.h"
	.file	46 "/mnt/disk/jenkins/ci/workspace/chipset_pipeline_release/opensource/component_code/vendor/huawei/extra/build/build_script/kirin_kernel_release/kernel/include/linux/moduleparam.h"
	.file	47 "/mnt/disk/jenkins/ci/workspace/chipset_pipeline_release/opensource/component_code/vendor/huawei/extra/build/build_script/kirin_kernel_release/kernel/arch/arm64/include/asm/extable.h"
	.file	48 "/mnt/disk/jenkins/ci/workspace/chipset_pipeline_release/opensource/component_code/vendor/huawei/extra/build/build_script/kirin_kernel_release/kernel/include/linux/rbtree_latch.h"
	.file	49 "/mnt/disk/jenkins/ci/workspace/chipset_pipeline_release/opensource/component_code/vendor/huawei/extra/build/build_script/kirin_kernel_release/kernel/include/uapi/linux/elf.h"
	.file	50 "/mnt/disk/jenkins/ci/workspace/chipset_pipeline_release/opensource/component_code/vendor/huawei/extra/build/build_script/kirin_kernel_release/kernel/arch/arm64/include/asm/module.h"
	.file	51 "/mnt/disk/jenkins/ci/workspace/chipset_pipeline_release/opensource/component_code/vendor/huawei/extra/build/build_script/kirin_kernel_release/kernel/include/uapi/linux/types.h"
	.file	52 "/mnt/disk/jenkins/ci/workspace/chipset_pipeline_release/opensource/component_code/vendor/huawei/extra/build/build_script/kirin_kernel_release/kernel/include/asm-generic/bug.h"
	.file	53 "/mnt/disk/jenkins/ci/workspace/chipset_pipeline_release/opensource/component_code/vendor/huawei/extra/build/build_script/kirin_kernel_release/kernel/include/linux/tracepoint-defs.h"
	.file	54 "/mnt/disk/jenkins/ci/workspace/chipset_pipeline_release/opensource/component_code/vendor/huawei/extra/build/build_script/kirin_kernel_release/kernel/include/linux/jump_label.h"
	.file	55 "/mnt/disk/jenkins/ci/workspace/chipset_pipeline_release/opensource/component_code/vendor/huawei/extra/build/build_script/kirin_kernel_release/kernel/include/linux/tracepoint.h"
	.file	56 "/mnt/disk/jenkins/ci/workspace/chipset_pipeline_release/opensource/component_code/vendor/huawei/extra/build/build_script/kirin_kernel_release/kernel/include/linux/lockdep.h"
	.file	57 "/mnt/disk/jenkins/ci/workspace/chipset_pipeline_release/opensource/component_code/vendor/huawei/extra/build/build_script/kirin_kernel_release/kernel/include/linux/writeback.h"
	.file	58 "/mnt/disk/jenkins/ci/workspace/chipset_pipeline_release/opensource/component_code/vendor/huawei/extra/build/build_script/kirin_kernel_release/kernel/include/linux/backing-dev-defs.h"
	.file	59 "/mnt/disk/jenkins/ci/workspace/chipset_pipeline_release/opensource/component_code/vendor/huawei/extra/build/build_script/kirin_kernel_release/kernel/include/linux/refcount.h"
	.file	60 "/mnt/disk/jenkins/ci/workspace/chipset_pipeline_release/opensource/component_code/vendor/huawei/extra/build/build_script/kirin_kernel_release/kernel/include/linux/kref.h"
	.file	61 "/mnt/disk/jenkins/ci/workspace/chipset_pipeline_release/opensource/component_code/vendor/huawei/extra/build/build_script/kirin_kernel_release/kernel/include/linux/rwsem.h"
	.file	62 "/mnt/disk/jenkins/ci/workspace/chipset_pipeline_release/opensource/component_code/vendor/huawei/extra/build/build_script/kirin_kernel_release/kernel/include/linux/timer.h"
	.file	63 "/mnt/disk/jenkins/ci/workspace/chipset_pipeline_release/opensource/component_code/vendor/huawei/extra/build/build_script/kirin_kernel_release/kernel/include/linux/blkdev.h"
	.file	64 "/mnt/disk/jenkins/ci/workspace/chipset_pipeline_release/opensource/component_code/vendor/huawei/extra/build/build_script/kirin_kernel_release/kernel/include/linux/smp.h"
	.file	65 "/mnt/disk/jenkins/ci/workspace/chipset_pipeline_release/opensource/component_code/vendor/huawei/extra/build/build_script/kirin_kernel_release/kernel/block/blk-mq.h"
	.file	66 "/mnt/disk/jenkins/ci/workspace/chipset_pipeline_release/opensource/component_code/vendor/huawei/extra/build/build_script/kirin_kernel_release/kernel/include/linux/bvec.h"
	.file	67 "/mnt/disk/jenkins/ci/workspace/chipset_pipeline_release/opensource/component_code/vendor/huawei/extra/build/build_script/kirin_kernel_release/kernel/include/linux/iocontext.h"
	.file	68 "/mnt/disk/jenkins/ci/workspace/chipset_pipeline_release/opensource/component_code/vendor/huawei/extra/build/build_script/kirin_kernel_release/kernel/include/linux/workqueue.h"
	.file	69 "/mnt/disk/jenkins/ci/workspace/chipset_pipeline_release/opensource/component_code/vendor/huawei/extra/build/build_script/kirin_kernel_release/kernel/include/linux/blk-cgroup.h"
	.file	70 "/mnt/disk/jenkins/ci/workspace/chipset_pipeline_release/opensource/component_code/vendor/huawei/extra/build/build_script/kirin_kernel_release/kernel/include/linux/cgroup-defs.h"
	.file	71 "/mnt/disk/jenkins/ci/workspace/chipset_pipeline_release/opensource/component_code/vendor/huawei/extra/build/build_script/kirin_kernel_release/kernel/include/linux/psi_types.h"
	.file	72 "/mnt/disk/jenkins/ci/workspace/chipset_pipeline_release/opensource/component_code/vendor/huawei/extra/build/build_script/kirin_kernel_release/kernel/include/linux/kthread.h"
	.file	73 "/mnt/disk/jenkins/ci/workspace/chipset_pipeline_release/opensource/component_code/vendor/huawei/extra/build/build_script/kirin_kernel_release/kernel/include/linux/bpf-cgroup.h"
	.file	74 "/mnt/disk/jenkins/ci/workspace/chipset_pipeline_release/opensource/component_code/vendor/huawei/extra/build/build_script/kirin_kernel_release/kernel/include/linux/uio.h"
	.file	75 "/mnt/disk/jenkins/ci/workspace/chipset_pipeline_release/opensource/component_code/vendor/huawei/extra/build/build_script/kirin_kernel_release/kernel/include/uapi/linux/uio.h"
	.file	76 "/mnt/disk/jenkins/ci/workspace/chipset_pipeline_release/opensource/component_code/vendor/huawei/extra/build/build_script/kirin_kernel_release/kernel/include/linux/poll.h"
	.file	77 "/mnt/disk/jenkins/ci/workspace/chipset_pipeline_release/opensource/component_code/vendor/huawei/extra/build/build_script/kirin_kernel_release/kernel/include/linux/nfs_fs_i.h"
	.file	78 "/mnt/disk/jenkins/ci/workspace/chipset_pipeline_release/opensource/component_code/vendor/huawei/extra/build/build_script/kirin_kernel_release/kernel/include/linux/rwlock_types.h"
	.file	79 "/mnt/disk/jenkins/ci/workspace/chipset_pipeline_release/opensource/component_code/vendor/huawei/extra/build/build_script/kirin_kernel_release/kernel/include/linux/pid.h"
	.file	80 "/mnt/disk/jenkins/ci/workspace/chipset_pipeline_release/opensource/component_code/vendor/huawei/extra/build/build_script/kirin_kernel_release/kernel/include/linux/cred.h"
	.file	81 "/mnt/disk/jenkins/ci/workspace/chipset_pipeline_release/opensource/component_code/vendor/huawei/extra/build/build_script/kirin_kernel_release/kernel/include/linux/capability.h"
	.file	82 "/mnt/disk/jenkins/ci/workspace/chipset_pipeline_release/opensource/component_code/vendor/huawei/extra/build/build_script/kirin_kernel_release/kernel/include/linux/key.h"
	.file	83 "/mnt/disk/jenkins/ci/workspace/chipset_pipeline_release/opensource/component_code/vendor/huawei/extra/build/build_script/kirin_kernel_release/kernel/include/linux/assoc_array.h"
	.file	84 "/mnt/disk/jenkins/ci/workspace/chipset_pipeline_release/opensource/component_code/vendor/huawei/extra/build/build_script/kirin_kernel_release/kernel/include/linux/sched/user.h"
	.file	85 "/mnt/disk/jenkins/ci/workspace/chipset_pipeline_release/opensource/component_code/vendor/huawei/extra/build/build_script/kirin_kernel_release/kernel/include/linux/user_namespace.h"
	.file	86 "/mnt/disk/jenkins/ci/workspace/chipset_pipeline_release/opensource/component_code/vendor/huawei/extra/build/build_script/kirin_kernel_release/kernel/include/linux/ns_common.h"
	.file	87 "/mnt/disk/jenkins/ci/workspace/chipset_pipeline_release/opensource/component_code/vendor/huawei/extra/build/build_script/kirin_kernel_release/kernel/include/linux/sysctl.h"
	.file	88 "/mnt/disk/jenkins/ci/workspace/chipset_pipeline_release/opensource/component_code/vendor/huawei/extra/build/build_script/kirin_kernel_release/kernel/include/linux/errseq.h"
	.file	89 "/mnt/disk/jenkins/ci/workspace/chipset_pipeline_release/opensource/component_code/vendor/huawei/extra/build/build_script/kirin_kernel_release/kernel/include/linux/percpu-refcount.h"
	.file	90 "/mnt/disk/jenkins/ci/workspace/chipset_pipeline_release/opensource/component_code/vendor/huawei/extra/build/build_script/kirin_kernel_release/kernel/include/linux/percpu_counter.h"
	.file	91 "/mnt/disk/jenkins/ci/workspace/chipset_pipeline_release/opensource/component_code/vendor/huawei/extra/build/build_script/kirin_kernel_release/kernel/include/linux/mempool.h"
	.file	92 "/mnt/disk/jenkins/ci/workspace/chipset_pipeline_release/opensource/component_code/vendor/huawei/extra/build/build_script/kirin_kernel_release/kernel/include/linux/elevator.h"
	.file	93 "/mnt/disk/jenkins/ci/workspace/chipset_pipeline_release/opensource/component_code/vendor/huawei/extra/build/build_script/kirin_kernel_release/kernel/include/linux/blk-mq.h"
	.file	94 "/mnt/disk/jenkins/ci/workspace/chipset_pipeline_release/opensource/component_code/vendor/huawei/extra/build/build_script/kirin_kernel_release/kernel/block/blk.h"
	.file	95 "/mnt/disk/jenkins/ci/workspace/chipset_pipeline_release/opensource/component_code/vendor/huawei/extra/build/build_script/kirin_kernel_release/kernel/include/linux/sbitmap.h"
	.file	96 "/mnt/disk/jenkins/ci/workspace/chipset_pipeline_release/opensource/component_code/vendor/huawei/extra/build/build_script/kirin_kernel_release/kernel/include/linux/srcutree.h"
	.file	97 "/mnt/disk/jenkins/ci/workspace/chipset_pipeline_release/opensource/component_code/vendor/huawei/extra/build/build_script/kirin_kernel_release/kernel/include/linux/rcu_segcblist.h"
	.file	98 "/mnt/disk/jenkins/ci/workspace/chipset_pipeline_release/opensource/component_code/vendor/huawei/extra/build/build_script/kirin_kernel_release/kernel/include/linux/notifier.h"
	.file	99 "/mnt/disk/jenkins/ci/workspace/chipset_pipeline_release/opensource/component_code/vendor/huawei/extra/build/build_script/kirin_kernel_release/kernel/block/blk-stat.h"
	.file	100 "/mnt/disk/jenkins/ci/workspace/chipset_pipeline_release/opensource/component_code/vendor/huawei/extra/build/build_script/kirin_kernel_release/kernel/include/linux/bsg.h"
	.file	101 "/mnt/disk/jenkins/ci/workspace/chipset_pipeline_release/opensource/component_code/vendor/huawei/extra/build/build_script/kirin_kernel_release/kernel/include/linux/bio.h"
	.file	102 "/mnt/disk/jenkins/ci/workspace/chipset_pipeline_release/opensource/component_code/vendor/huawei/extra/build/build_script/kirin_kernel_release/kernel/include/linux/flex_proportions.h"
	.file	103 "/mnt/disk/jenkins/ci/workspace/chipset_pipeline_release/opensource/component_code/vendor/huawei/extra/build/build_script/kirin_kernel_release/kernel/include/linux/quota.h"
	.file	104 "/mnt/disk/jenkins/ci/workspace/chipset_pipeline_release/opensource/component_code/vendor/huawei/extra/build/build_script/kirin_kernel_release/kernel/include/linux/projid.h"
	.file	105 "/mnt/disk/jenkins/ci/workspace/chipset_pipeline_release/opensource/component_code/vendor/huawei/extra/build/build_script/kirin_kernel_release/kernel/include/linux/time64.h"
	.file	106 "/mnt/disk/jenkins/ci/workspace/chipset_pipeline_release/opensource/component_code/vendor/huawei/extra/build/build_script/kirin_kernel_release/kernel/include/linux/shrinker.h"
	.file	107 "/mnt/disk/jenkins/ci/workspace/chipset_pipeline_release/opensource/component_code/vendor/huawei/extra/build/build_script/kirin_kernel_release/kernel/include/linux/memcontrol.h"
	.file	108 "/mnt/disk/jenkins/ci/workspace/chipset_pipeline_release/opensource/component_code/vendor/huawei/extra/build/build_script/kirin_kernel_release/kernel/include/linux/page_counter.h"
	.file	109 "/mnt/disk/jenkins/ci/workspace/chipset_pipeline_release/opensource/component_code/vendor/huawei/extra/build/build_script/kirin_kernel_release/kernel/include/linux/vmpressure.h"
	.file	110 "/mnt/disk/jenkins/ci/workspace/chipset_pipeline_release/opensource/component_code/vendor/huawei/extra/build/build_script/kirin_kernel_release/kernel/include/linux/memcg_policy.h"
	.file	111 "/mnt/disk/jenkins/ci/workspace/chipset_pipeline_release/opensource/component_code/vendor/huawei/extra/build/build_script/kirin_kernel_release/kernel/include/linux/mmzone.h"
	.file	112 "/mnt/disk/jenkins/ci/workspace/chipset_pipeline_release/opensource/component_code/vendor/huawei/extra/build/build_script/kirin_kernel_release/kernel/include/linux/rcu_sync.h"
	.file	113 "/mnt/disk/jenkins/ci/workspace/chipset_pipeline_release/opensource/component_code/vendor/huawei/extra/build/build_script/kirin_kernel_release/kernel/include/linux/percpu-rwsem.h"
	.file	114 "/mnt/disk/jenkins/ci/workspace/chipset_pipeline_release/opensource/component_code/vendor/huawei/extra/build/build_script/kirin_kernel_release/kernel/include/linux/rcuwait.h"
	.file	115 "/mnt/disk/jenkins/ci/workspace/chipset_pipeline_release/opensource/component_code/vendor/huawei/extra/build/build_script/kirin_kernel_release/kernel/include/linux/uuid.h"
	.file	116 "/mnt/disk/jenkins/ci/workspace/chipset_pipeline_release/opensource/component_code/vendor/huawei/extra/build/build_script/kirin_kernel_release/kernel/include/linux/list_lru.h"
	.file	117 "/mnt/disk/jenkins/ci/workspace/chipset_pipeline_release/opensource/component_code/vendor/huawei/extra/build/build_script/kirin_kernel_release/kernel/include/linux/delayed_call.h"
	.file	118 "/mnt/disk/jenkins/ci/workspace/chipset_pipeline_release/opensource/component_code/vendor/huawei/extra/build/build_script/kirin_kernel_release/kernel/include/uapi/linux/time.h"
	.file	119 "/mnt/disk/jenkins/ci/workspace/chipset_pipeline_release/opensource/component_code/vendor/huawei/extra/build/build_script/kirin_kernel_release/kernel/include/linux/stat.h"
	.file	120 "/mnt/disk/jenkins/ci/workspace/chipset_pipeline_release/opensource/component_code/vendor/huawei/extra/build/build_script/kirin_kernel_release/kernel/include/uapi/linux/fiemap.h"
	.file	121 "/mnt/disk/jenkins/ci/workspace/chipset_pipeline_release/opensource/component_code/vendor/huawei/extra/build/build_script/kirin_kernel_release/kernel/include/linux/migrate_mode.h"
	.file	122 "/mnt/disk/jenkins/ci/workspace/chipset_pipeline_release/opensource/component_code/vendor/huawei/extra/build/build_script/kirin_kernel_release/kernel/include/linux/swap.h"
	.file	123 "/mnt/disk/jenkins/ci/workspace/chipset_pipeline_release/opensource/component_code/vendor/huawei/extra/build/build_script/kirin_kernel_release/kernel/include/linux/memremap.h"
	.file	124 "/mnt/disk/jenkins/ci/workspace/chipset_pipeline_release/opensource/component_code/vendor/huawei/extra/build/build_script/kirin_kernel_release/kernel/include/linux/ioport.h"
	.file	125 "/mnt/disk/jenkins/ci/workspace/chipset_pipeline_release/opensource/component_code/vendor/huawei/extra/build/build_script/kirin_kernel_release/kernel/arch/arm64/include/asm/page.h"
	.file	126 "/mnt/disk/jenkins/ci/workspace/chipset_pipeline_release/opensource/component_code/vendor/huawei/extra/build/build_script/kirin_kernel_release/kernel/include/linux/mm_types_task.h"
	.file	127 "/mnt/disk/jenkins/ci/workspace/chipset_pipeline_release/opensource/component_code/vendor/huawei/extra/build/build_script/kirin_kernel_release/kernel/arch/arm64/include/asm/mmu.h"
	.file	128 "/mnt/disk/jenkins/ci/workspace/chipset_pipeline_release/opensource/component_code/vendor/huawei/extra/build/build_script/kirin_kernel_release/kernel/include/linux/uprobes.h"
	.file	129 "/mnt/disk/jenkins/ci/workspace/chipset_pipeline_release/opensource/component_code/vendor/huawei/extra/build/build_script/kirin_kernel_release/kernel/include/linux/xreclaimer_types.h"
	.file	130 "/mnt/disk/jenkins/ci/workspace/chipset_pipeline_release/opensource/component_code/vendor/huawei/extra/build/build_script/kirin_kernel_release/kernel/include/linux/restart_block.h"
	.file	131 "/mnt/disk/jenkins/ci/workspace/chipset_pipeline_release/opensource/component_code/vendor/huawei/extra/build/build_script/kirin_kernel_release/kernel/arch/arm64/include/asm/compat.h"
	.file	132 "/mnt/disk/jenkins/ci/workspace/chipset_pipeline_release/opensource/component_code/vendor/huawei/extra/build/build_script/kirin_kernel_release/kernel/include/uapi/asm-generic/poll.h"
	.file	133 "/mnt/disk/jenkins/ci/workspace/chipset_pipeline_release/opensource/component_code/vendor/huawei/extra/build/build_script/kirin_kernel_release/kernel/include/linux/nsproxy.h"
	.file	134 "/mnt/disk/jenkins/ci/workspace/chipset_pipeline_release/opensource/component_code/vendor/huawei/extra/build/build_script/kirin_kernel_release/kernel/include/linux/cgroup.h"
	.file	135 "/mnt/disk/jenkins/ci/workspace/chipset_pipeline_release/opensource/component_code/vendor/huawei/extra/build/build_script/kirin_kernel_release/kernel/include/uapi/asm-generic/signal.h"
	.file	136 "/mnt/disk/jenkins/ci/workspace/chipset_pipeline_release/opensource/component_code/vendor/huawei/extra/build/build_script/kirin_kernel_release/kernel/include/linux/signal_types.h"
	.file	137 "/mnt/disk/jenkins/ci/workspace/chipset_pipeline_release/opensource/component_code/vendor/huawei/extra/build/build_script/kirin_kernel_release/kernel/include/linux/seccomp.h"
	.file	138 "/mnt/disk/jenkins/ci/workspace/chipset_pipeline_release/opensource/component_code/vendor/huawei/extra/build/build_script/kirin_kernel_release/kernel/include/uapi/asm-generic/siginfo.h"
	.file	139 "/mnt/disk/jenkins/ci/workspace/chipset_pipeline_release/opensource/component_code/vendor/huawei/extra/build/build_script/kirin_kernel_release/kernel/include/linux/task_io_accounting.h"
	.file	140 "/mnt/disk/jenkins/ci/workspace/chipset_pipeline_release/opensource/component_code/vendor/huawei/extra/build/build_script/kirin_kernel_release/kernel/include/linux/nodemask.h"
	.file	141 "/mnt/disk/jenkins/ci/workspace/chipset_pipeline_release/opensource/component_code/vendor/huawei/extra/build/build_script/kirin_kernel_release/kernel/include/linux/compat.h"
	.file	142 "/mnt/disk/jenkins/ci/workspace/chipset_pipeline_release/opensource/component_code/vendor/huawei/extra/build/build_script/kirin_kernel_release/kernel/arch/arm64/include/asm/processor.h"
	.file	143 "/mnt/disk/jenkins/ci/workspace/chipset_pipeline_release/opensource/component_code/vendor/huawei/extra/build/build_script/kirin_kernel_release/kernel/block/mas_blk_latency.c"
	.file	144 "/mnt/disk/jenkins/ci/workspace/chipset_pipeline_release/opensource/component_code/vendor/huawei/extra/build/build_script/kirin_kernel_release/kernel/arch/arm64/include/uapi/asm/ptrace.h"
	.file	145 "/mnt/disk/jenkins/ci/workspace/chipset_pipeline_release/opensource/component_code/vendor/huawei/extra/build/build_script/kirin_kernel_release/kernel/arch/arm64/include/asm/fpsimd.h"
	.file	146 "/mnt/disk/jenkins/ci/workspace/chipset_pipeline_release/opensource/component_code/vendor/huawei/extra/build/build_script/kirin_kernel_release/kernel/include/linux/pm.h"
	.file	147 "/mnt/disk/jenkins/ci/workspace/chipset_pipeline_release/opensource/component_code/vendor/huawei/extra/build/build_script/kirin_kernel_release/kernel/include/linux/pm_wakeup.h"
	.file	148 "/mnt/disk/jenkins/ci/workspace/chipset_pipeline_release/opensource/component_code/vendor/huawei/extra/build/build_script/kirin_kernel_release/kernel/include/linux/pinctrl/devinfo.h"
	.file	149 "/mnt/disk/jenkins/ci/workspace/chipset_pipeline_release/opensource/component_code/vendor/huawei/extra/build/build_script/kirin_kernel_release/kernel/arch/arm64/include/asm/device.h"
	.file	150 "/mnt/disk/jenkins/ci/workspace/chipset_pipeline_release/opensource/component_code/vendor/huawei/extra/build/build_script/kirin_kernel_release/kernel/include/linux/klist.h"
	.file	151 "/mnt/disk/jenkins/ci/workspace/chipset_pipeline_release/opensource/component_code/vendor/huawei/extra/build/build_script/kirin_kernel_release/kernel/block/mas_blk_latency.c"
	.file	152 "/mnt/disk/jenkins/ci/workspace/chipset_pipeline_release/opensource/component_code/vendor/huawei/extra/build/build_script/kirin_kernel_release/kernel/include/linux/ratelimit.h"
	.file	153 "/mnt/disk/jenkins/ci/workspace/chipset_pipeline_release/opensource/component_code/vendor/huawei/extra/build/build_script/kirin_kernel_release/kernel/block/dsm_block.h"
	.file	154 "/mnt/disk/jenkins/ci/workspace/chipset_pipeline_release/opensource/component_code/vendor/huawei/extra/build/build_script/kirin_kernel_release/kernel/include/linux/stddef.h"
	.section	.text.mas_blk_latency_bio_submit_func,"ax",@progbits
	.p2align	2               // -- Begin function mas_blk_latency_bio_submit_func
	.type	mas_blk_latency_bio_submit_func,@function
mas_blk_latency_bio_submit_func:        // @mas_blk_latency_bio_submit_func
.Lfunc_begin0:
	.loc	151 162 0               // kernel/block/mas_blk_latency.c:162:0
	.cfi_sections .debug_frame
	.cfi_startproc
// %bb.0:
	//DEBUG_VALUE: mas_blk_latency_bio_submit_func:bio <- $x0
	str	x25, [sp, #-80]!        // 8-byte Folded Spill
	stp	x24, x23, [sp, #16]     // 16-byte Folded Spill
	stp	x22, x21, [sp, #32]     // 16-byte Folded Spill
	stp	x20, x19, [sp, #48]     // 16-byte Folded Spill
	stp	x29, x30, [sp, #64]     // 16-byte Folded Spill
	add	x29, sp, #64            // =64
	.cfi_def_cfa w29, 16
	.cfi_offset w30, -8
	.cfi_offset w29, -16
	.cfi_offset w19, -24
	.cfi_offset w20, -32
	.cfi_offset w21, -40
	.cfi_offset w22, -48
	.cfi_offset w23, -56
	.cfi_offset w24, -64
	.cfi_offset w25, -80
.Ltmp0:
	//DEBUG_VALUE: mas_blk_latency_bio_submit_func:q <- 0
	.loc	151 166 12 prologue_end // kernel/block/mas_blk_latency.c:166:12
	ldr	x8, [x0, #8]
.Ltmp1:
	.loc	151 166 6 is_stmt 0     // kernel/block/mas_blk_latency.c:166:6
	cbz	x8, .LBB0_17
.Ltmp2:
// %bb.1:
	//DEBUG_VALUE: mas_blk_latency_bio_submit_func:bio <- $x0
	.loc	151 169 20 is_stmt 1    // kernel/block/mas_blk_latency.c:169:20
	ldr	x21, [x8, #1120]
.Ltmp3:
	//DEBUG_VALUE: mas_blk_setup_latency_tiemr:q <- $x21
	//DEBUG_VALUE: bio_timeout_threshold:q <- $x21
	//DEBUG_VALUE: mas_blk_latency_bio_submit_func:q <- $x21
	.loc	151 170 6               // kernel/block/mas_blk_latency.c:170:6
	cbz	x21, .LBB0_17
.Ltmp4:
// %bb.2:
	//DEBUG_VALUE: mas_blk_latency_bio_submit_func:q <- $x21
	//DEBUG_VALUE: mas_blk_latency_bio_submit_func:bio <- $x0
	ldr	w8, [x21, #1700]
.Ltmp5:
	.loc	151 170 6 is_stmt 0     // kernel/block/mas_blk_latency.c:170:6
	cbz	w8, .LBB0_17
.Ltmp6:
// %bb.3:
	//DEBUG_VALUE: mas_blk_latency_bio_submit_func:q <- $x21
	//DEBUG_VALUE: mas_blk_latency_bio_submit_func:bio <- $x0
	.loc	151 173 6 is_stmt 1     // kernel/block/mas_blk_latency.c:173:6
	ldrb	w8, [x0, #145]
	mov	x19, x0
.Ltmp7:
	//DEBUG_VALUE: mas_blk_latency_bio_submit_func:bio <- $x19
	.loc	151 173 6 is_stmt 0     // kernel/block/mas_blk_latency.c:173:6
	cmp	w8, #76                 // =76
	b.eq	.LBB0_16
.Ltmp8:
// %bb.4:
	//DEBUG_VALUE: mas_blk_latency_bio_submit_func:bio <- $x19
	//DEBUG_VALUE: mas_blk_latency_bio_submit_func:q <- $x21
	.loc	151 136 2 is_stmt 1     // kernel/block/mas_blk_latency.c:136:2
	add	x20, x19, #184          // =184
	orr	w8, wzr, #0x1
.Ltmp9:
	//DEBUG_VALUE: mas_blk_setup_latency_tiemr:mas_bio <- [DW_OP_plus_uconst 96, DW_OP_stack_value] $x19
	//DEBUG_VALUE: mas_blk_setup_latency_tiemr:mas_bio <- 0
	//DEBUG_VALUE: mas_blk_setup_latency_tiemr:bio <- $x19
	mov	x0, x20
	mov	w1, wzr
	mov	x2, xzr
	mov	x3, xzr
	.loc	151 131 33              // kernel/block/mas_blk_latency.c:131:33
	str	w8, [x19, #232]
	.loc	151 136 2               // kernel/block/mas_blk_latency.c:136:2
	bl	init_timer_key
	.loc	151 138 41              // kernel/block/mas_blk_latency.c:138:41
	adrp	x8, __mas_blk_latency_check_timer_expire
	add	x8, x8, :lo12:__mas_blk_latency_check_timer_expire
	.loc	151 142 3               // kernel/block/mas_blk_latency.c:142:3
	adrp	x9, jiffies
	.loc	151 138 41              // kernel/block/mas_blk_latency.c:138:41
	stp	x8, x19, [x19, #208]
	.loc	151 142 3               // kernel/block/mas_blk_latency.c:142:3
	ldr	x22, [x9, :lo12:jiffies]
.Ltmp10:
	//DEBUG_VALUE: mas_blk_bio_is_hp:bio <- $x19
	//DEBUG_VALUE: bio_timeout_threshold:bio <- $x19
	.loc	151 96 15               // kernel/block/mas_blk_latency.c:96:15
	ldr	w8, [x19, #16]
	.loc	151 96 22 is_stmt 0     // kernel/block/mas_blk_latency.c:96:22
	tst	w8, #0x3000000
.Ltmp11:
	.loc	151 111 6 is_stmt 1     // kernel/block/mas_blk_latency.c:111:6
	b.eq	.LBB0_6
.Ltmp12:
// %bb.5:
	//DEBUG_VALUE: bio_timeout_threshold:bio <- $x19
	//DEBUG_VALUE: mas_blk_setup_latency_tiemr:bio <- $x19
	//DEBUG_VALUE: mas_blk_latency_bio_submit_func:bio <- $x19
	//DEBUG_VALUE: mas_blk_latency_bio_submit_func:q <- $x21
	//DEBUG_VALUE: hp_bio_timueout_threshold:bio <- $x19
	.loc	151 102 9               // kernel/block/mas_blk_latency.c:102:9
	tst	w8, #0x1000000
	mov	w8, #100
	mov	w9, #500
	csel	w0, w9, w8, eq
	b	.LBB0_9
.Ltmp13:
.LBB0_6:
	//DEBUG_VALUE: bio_timeout_threshold:bio <- $x19
	//DEBUG_VALUE: mas_blk_setup_latency_tiemr:bio <- $x19
	//DEBUG_VALUE: mas_blk_latency_bio_submit_func:bio <- $x19
	//DEBUG_VALUE: mas_blk_latency_bio_submit_func:q <- $x21
	.loc	151 0 9 is_stmt 0       // kernel/block/mas_blk_latency.c:0:9
	mov	w9, #4096
	movk	w9, #64, lsl #16
.Ltmp14:
	//DEBUG_VALUE: mas_blk_bio_is_cp:bio <- $x19
	.loc	1 299 22 is_stmt 1      // kernel/block/mas_blk.h:299:22
	tst	w8, w9
.Ltmp15:
	.loc	151 116 6               // kernel/block/mas_blk_latency.c:116:6
	b.eq	.LBB0_8
.Ltmp16:
// %bb.7:
	//DEBUG_VALUE: mas_blk_bio_is_cp:bio <- $x19
	//DEBUG_VALUE: bio_timeout_threshold:bio <- $x19
	//DEBUG_VALUE: mas_blk_setup_latency_tiemr:bio <- $x19
	//DEBUG_VALUE: mas_blk_latency_bio_submit_func:bio <- $x19
	//DEBUG_VALUE: mas_blk_latency_bio_submit_func:q <- $x21
	.loc	151 0 6 is_stmt 0       // kernel/block/mas_blk_latency.c:0:6
	mov	w0, #1000
	b	.LBB0_9
.Ltmp17:
.LBB0_8:
	//DEBUG_VALUE: bio_timeout_threshold:bio <- $x19
	//DEBUG_VALUE: mas_blk_setup_latency_tiemr:bio <- $x19
	//DEBUG_VALUE: mas_blk_latency_bio_submit_func:bio <- $x19
	//DEBUG_VALUE: mas_blk_latency_bio_submit_func:q <- $x21
	.loc	151 120 22 is_stmt 1    // kernel/block/mas_blk_latency.c:120:22
	ldr	w0, [x21, #1704]
.Ltmp18:
.LBB0_9:
	//DEBUG_VALUE: mas_blk_setup_latency_tiemr:bio <- $x19
	//DEBUG_VALUE: mas_blk_latency_bio_submit_func:bio <- $x19
	//DEBUG_VALUE: mas_blk_latency_bio_submit_func:q <- $x21
	//DEBUG_VALUE: msecs_to_jiffies:m <- $w0
	.file	155 "/mnt/disk/jenkins/ci/workspace/chipset_pipeline_release/opensource/component_code/vendor/huawei/extra/build/build_script/kirin_kernel_release/kernel/include/linux/jiffies.h"
	.loc	155 370 10              // kernel/include/linux/jiffies.h:370:10
	bl	__msecs_to_jiffies
.Ltmp19:
	.loc	101 259 16              // kernel/include/linux/bio.h:259:16
	ldrh	w8, [x19, #20]
.Ltmp20:
	.loc	151 142 11              // kernel/block/mas_blk_latency.c:142:11
	add	x9, x0, x22
	.loc	151 141 40              // kernel/block/mas_blk_latency.c:141:40
	str	x9, [x19, #200]
.Ltmp21:
	//DEBUG_VALUE: bio_get:bio <- $x19
	.file	156 "/mnt/disk/jenkins/ci/workspace/chipset_pipeline_release/opensource/component_code/vendor/huawei/extra/build/build_script/kirin_kernel_release/kernel/arch/arm64/include/asm/atomic_ll_sc.h"
	.loc	156 113 1               // kernel/arch/arm64/include/asm/atomic_ll_sc.h:113:1
	add	x10, x19, #476          // =476
.Ltmp22:
	.loc	101 259 16              // kernel/include/linux/bio.h:259:16
	orr	w8, w8, #0x100
	strh	w8, [x19, #20]
	.loc	101 260 2               // kernel/include/linux/bio.h:260:2
	//APP
	dmb ish
	//NO_APP
.Ltmp23:
	//DEBUG_VALUE: atomic_add:v <- [DW_OP_plus_uconst 476, DW_OP_stack_value] $x19
	//DEBUG_VALUE: atomic_add:i <- 1
	.loc	156 113 1               // kernel/arch/arm64/include/asm/atomic_ll_sc.h:113:1
	//APP
	// atomic_add
	prfm	pstl1strm, [x10]
1:	ldxr	w8, [x10]
	add	w8, w8, #1
	stxr	w9, w8, [x10]
	cbnz	w9, 1b
	//NO_APP
.Ltmp24:
	//DEBUG_VALUE: atomic_add:tmp <- undef
	//DEBUG_VALUE: atomic_add:result <- undef
	.loc	151 145 14              // kernel/block/mas_blk_latency.c:145:14
	adrp	x23, cpu_number
.Ltmp25:
	.file	157 "/mnt/disk/jenkins/ci/workspace/chipset_pipeline_release/opensource/component_code/vendor/huawei/extra/build/build_script/kirin_kernel_release/kernel/arch/arm64/include/asm/percpu.h"
	.loc	157 38 2                // kernel/arch/arm64/include/asm/percpu.h:38:2
	//APP
	.if 1 == 1
661:
	mrs x8, tpidr_el1
662:
.pushsection .altinstructions,"a"
 .word 661b - .
 .if 0 == 0
 .word 663f - .
 .else
 .word 0- .
 .endif
 .hword 11
 .byte 662b-661b
 .byte 664f-663f
.popsection
 .if 0 == 0
.pushsection .altinstr_replacement, "a"
663:
	mrs x8, tpidr_el2
664:
	.popsection
	.org	. - (664b-663b) + (662b-661b)
	.org	. - (662b-661b) + (664b-663b)
.else
	663:
	664:
	.endif
.endif

	//NO_APP
.Ltmp26:
	//DEBUG_VALUE: __my_cpu_offset:off <- $x8
	.loc	151 145 14              // kernel/block/mas_blk_latency.c:145:14
	add	x23, x23, :lo12:cpu_number
.Ltmp27:
	.file	158 "/mnt/disk/jenkins/ci/workspace/chipset_pipeline_release/opensource/component_code/vendor/huawei/extra/build/build_script/kirin_kernel_release/kernel/include/linux/bitmap.h"
	.loc	158 333 23              // kernel/include/linux/bitmap.h:333:23
	adrp	x24, __cpu_possible_mask
.Ltmp28:
	.loc	151 145 14              // kernel/block/mas_blk_latency.c:145:14
	//APP
	//NO_APP
.Ltmp29:
	//DEBUG_VALUE: __ptr <- $x23
	//DEBUG_VALUE: __ptr <- $x23
	//DEBUG_VALUE: __ptr <- $x23
	.loc	151 145 14 is_stmt 0    // kernel/block/mas_blk_latency.c:145:14
	ldr	w8, [x8, x23]
.Ltmp30:
	.loc	158 333 23 is_stmt 1    // kernel/include/linux/bitmap.h:333:23
	ldrb	w0, [x24, :lo12:__cpu_possible_mask]
.Ltmp31:
	//DEBUG_VALUE: cpumask_weight:srcp <- undef
	.loc	151 145 37              // kernel/block/mas_blk_latency.c:145:37
	add	w21, w8, #1             // =1
.Ltmp32:
	//DEBUG_VALUE: bitmap_weight:nbits <- 8
	//DEBUG_VALUE: __arch_hweight64:w <- $x0
	//DEBUG_VALUE: hweight_long:w <- $x0
	.file	159 "/mnt/disk/jenkins/ci/workspace/chipset_pipeline_release/opensource/component_code/vendor/huawei/extra/build/build_script/kirin_kernel_release/kernel/include/asm-generic/bitops/arch_hweight.h"
	.loc	159 24 9                // kernel/include/asm-generic/bitops/arch_hweight.h:24:9
	bl	__sw_hweight64
.Ltmp33:
	.loc	151 145 42              // kernel/block/mas_blk_latency.c:145:42
	udiv	w8, w21, w0
	msub	w21, w8, w0, w21
.Ltmp34:
	//DEBUG_VALUE: test_bit:nr <- undef
	//DEBUG_VALUE: cpumask_test_cpu:cpu <- undef
	//DEBUG_VALUE: mas_blk_setup_latency_tiemr:next_cpu <- undef
	.file	160 "/mnt/disk/jenkins/ci/workspace/chipset_pipeline_release/opensource/component_code/vendor/huawei/extra/build/build_script/kirin_kernel_release/kernel/include/asm-generic/bitops/non-atomic.h"
	.loc	160 106 21              // kernel/include/asm-generic/bitops/non-atomic.h:106:21
	add	w8, w21, #63            // =63
	cmp	w21, #0                 // =0
	csel	w8, w8, w21, lt
	.loc	160 106 16 is_stmt 0    // kernel/include/asm-generic/bitops/non-atomic.h:106:16
	adrp	x9, __cpu_online_mask
	.loc	160 106 21              // kernel/include/asm-generic/bitops/non-atomic.h:106:21
	asr	w8, w8, #6
	.loc	160 106 16              // kernel/include/asm-generic/bitops/non-atomic.h:106:16
	add	x9, x9, :lo12:__cpu_online_mask
.Ltmp35:
	//DEBUG_VALUE: cpumask_test_cpu:cpumask <- $x9
	ldr	x8, [x9, w8, sxtw #3]
	orr	w9, wzr, #0x1
.Ltmp36:
	.loc	151 146 6 is_stmt 1     // kernel/block/mas_blk_latency.c:146:6
	lsl	x9, x9, x21
	tst	x9, x8
.Ltmp37:
	.loc	151 146 6 is_stmt 0     // kernel/block/mas_blk_latency.c:146:6
	b.ne	.LBB0_13
.Ltmp38:
// %bb.10:
	//DEBUG_VALUE: __ptr <- $x23
	//DEBUG_VALUE: __ptr <- $x23
	//DEBUG_VALUE: __ptr <- $x23
	//DEBUG_VALUE: atomic_add:v <- [DW_OP_plus_uconst 476, DW_OP_stack_value] $x19
	//DEBUG_VALUE: bio_get:bio <- $x19
	//DEBUG_VALUE: mas_blk_setup_latency_tiemr:bio <- $x19
	//DEBUG_VALUE: mas_blk_latency_bio_submit_func:bio <- $x19
	.loc	151 0 6                 // kernel/block/mas_blk_latency.c:0:6
	adrp	x22, __cpu_online_mask
	mov	w21, #-1
	add	x22, x22, :lo12:__cpu_online_mask
	adrp	x25, nr_cpu_ids
.Ltmp39:
.LBB0_11:                               // =>This Inner Loop Header: Depth=1
	//DEBUG_VALUE: mas_blk_setup_latency_tiemr:bio <- $x19
	//DEBUG_VALUE: mas_blk_latency_bio_submit_func:bio <- $x19
	//DEBUG_VALUE: mas_blk_setup_latency_tiemr:target_cpu <- $w21
	.loc	151 149 3 is_stmt 1     // kernel/block/mas_blk_latency.c:149:3
	mov	w0, w21
	mov	x1, x22
	bl	cpumask_next
	ldr	w8, [x25, :lo12:nr_cpu_ids]
	mov	w21, w0
.Ltmp40:
	//DEBUG_VALUE: mas_blk_setup_latency_tiemr:target_cpu <- $w21
	.loc	151 149 3 is_stmt 0     // kernel/block/mas_blk_latency.c:149:3
	cmp	w0, w8
	b.hs	.LBB0_13
.Ltmp41:
// %bb.12:                              //   in Loop: Header=BB0_11 Depth=1
	//DEBUG_VALUE: mas_blk_setup_latency_tiemr:target_cpu <- $w21
	//DEBUG_VALUE: mas_blk_setup_latency_tiemr:bio <- $x19
	//DEBUG_VALUE: mas_blk_latency_bio_submit_func:bio <- $x19
	.loc	157 38 2 is_stmt 1      // kernel/arch/arm64/include/asm/percpu.h:38:2
	//APP
	.if 1 == 1
661:
	mrs x8, tpidr_el1
662:
.pushsection .altinstructions,"a"
 .word 661b - .
 .if 0 == 0
 .word 663f - .
 .else
 .word 0- .
 .endif
 .hword 11
 .byte 662b-661b
 .byte 664f-663f
.popsection
 .if 0 == 0
.pushsection .altinstr_replacement, "a"
663:
	mrs x8, tpidr_el2
664:
	.popsection
	.org	. - (664b-663b) + (662b-661b)
	.org	. - (662b-661b) + (664b-663b)
.else
	663:
	664:
	.endif
.endif

	//NO_APP
.Ltmp42:
	//DEBUG_VALUE: __my_cpu_offset:off <- $x8
	.loc	151 150 22              // kernel/block/mas_blk_latency.c:150:22
	ldr	w8, [x8, x23]
.Ltmp43:
	.loc	151 150 8 is_stmt 0     // kernel/block/mas_blk_latency.c:150:8
	cmp	w21, w8
	b.eq	.LBB0_11
.Ltmp44:
.LBB0_13:
	//DEBUG_VALUE: mas_blk_setup_latency_tiemr:bio <- $x19
	//DEBUG_VALUE: mas_blk_latency_bio_submit_func:bio <- $x19
	//DEBUG_VALUE: mas_blk_setup_latency_tiemr:target_cpu <- $w21
	//DEBUG_VALUE: bitmap_weight:nbits <- 8
	.loc	158 333 23 is_stmt 1    // kernel/include/linux/bitmap.h:333:23
	ldrb	w0, [x24, :lo12:__cpu_possible_mask]
.Ltmp45:
	//DEBUG_VALUE: __arch_hweight64:w <- $x0
	//DEBUG_VALUE: hweight_long:w <- $x0
	//DEBUG_VALUE: cpumask_weight:srcp <- undef
	.loc	159 24 9                // kernel/include/asm-generic/bitops/arch_hweight.h:24:9
	bl	__sw_hweight64
.Ltmp46:
	.loc	151 152 6               // kernel/block/mas_blk_latency.c:152:6
	cmp	w21, w0
	b.lo	.LBB0_15
.Ltmp47:
// %bb.14:
	//DEBUG_VALUE: mas_blk_setup_latency_tiemr:target_cpu <- $w21
	//DEBUG_VALUE: mas_blk_setup_latency_tiemr:bio <- $x19
	//DEBUG_VALUE: mas_blk_latency_bio_submit_func:bio <- $x19
	.loc	157 38 2                // kernel/arch/arm64/include/asm/percpu.h:38:2
	//APP
	.if 1 == 1
661:
	mrs x8, tpidr_el1
662:
.pushsection .altinstructions,"a"
 .word 661b - .
 .if 0 == 0
 .word 663f - .
 .else
 .word 0- .
 .endif
 .hword 11
 .byte 662b-661b
 .byte 664f-663f
.popsection
 .if 0 == 0
.pushsection .altinstr_replacement, "a"
663:
	mrs x8, tpidr_el2
664:
	.popsection
	.org	. - (664b-663b) + (662b-661b)
	.org	. - (662b-661b) + (664b-663b)
.else
	663:
	664:
	.endif
.endif

	//NO_APP
.Ltmp48:
	//DEBUG_VALUE: __my_cpu_offset:off <- $x8
	.loc	151 153 16              // kernel/block/mas_blk_latency.c:153:16
	ldr	w21, [x8, x23]
.Ltmp49:
	//DEBUG_VALUE: mas_blk_setup_latency_tiemr:target_cpu <- $w21
.LBB0_15:
	//DEBUG_VALUE: mas_blk_setup_latency_tiemr:target_cpu <- $w21
	//DEBUG_VALUE: mas_blk_setup_latency_tiemr:bio <- $x19
	//DEBUG_VALUE: mas_blk_latency_bio_submit_func:bio <- $x19
	//DEBUG_VALUE: mas_blk_setup_latency_tiemr:target_cpu <- $w21
	.loc	151 154 2               // kernel/block/mas_blk_latency.c:154:2
	mov	x0, x20
	mov	w1, w21
	bl	add_timer_on
.Ltmp50:
	.file	161 "/mnt/disk/jenkins/ci/workspace/chipset_pipeline_release/opensource/component_code/vendor/huawei/extra/build/build_script/kirin_kernel_release/kernel/arch/arm64/include/asm/current.h"
	.loc	161 19 2                // kernel/arch/arm64/include/asm/current.h:19:2
	//APP
	mrs x8, sp_el0
	//NO_APP
.Ltmp51:
	//DEBUG_VALUE: get_current:sp_el0 <- $x8
	//DEBUG_VALUE: get_current:sp_el0 <- $x8
	//DEBUG_VALUE: get_current:sp_el0 <- $x8
	//DEBUG_VALUE: get_current:sp_el0 <- $x8
	.loc	151 155 25              // kernel/block/mas_blk_latency.c:155:25
	str	x8, [x19, #112]
	.loc	151 156 31              // kernel/block/mas_blk_latency.c:156:31
	ldr	w9, [x8, #2096]
	.loc	151 156 20 is_stmt 0    // kernel/block/mas_blk_latency.c:156:20
	str	w9, [x19, #120]
	.loc	151 157 32 is_stmt 1    // kernel/block/mas_blk_latency.c:157:32
	ldr	w9, [x8, #2100]
	.loc	151 157 21 is_stmt 0    // kernel/block/mas_blk_latency.c:157:21
	str	w9, [x19, #124]
	.loc	151 158 2 is_stmt 1     // kernel/block/mas_blk_latency.c:158:2
	ldr	x9, [x8, #2560]
	ldr	x8, [x8, #2568]
.Ltmp52:
	stp	x9, x8, [x19, #128]
.Ltmp53:
.LBB0_16:
	//DEBUG_VALUE: mas_blk_latency_bio_submit_func:bio <- $x19
	.loc	151 0 2 is_stmt 0       // kernel/block/mas_blk_latency.c:0:2
	mov	w8, #76
	.loc	151 177 22 is_stmt 1    // kernel/block/mas_blk_latency.c:177:22
	str	xzr, [x19, #104]
.Ltmp54:
	//DEBUG_VALUE: mas_blk_latency_bio_submit_func:i <- 0
	.loc	151 179 35              // kernel/block/mas_blk_latency.c:179:35
	stp	xzr, xzr, [x19, #168]
.Ltmp55:
	.loc	151 176 26              // kernel/block/mas_blk_latency.c:176:26
	strb	w8, [x19, #145]
.Ltmp56:
	.loc	151 179 35              // kernel/block/mas_blk_latency.c:179:35
	stp	xzr, xzr, [x19, #152]
.Ltmp57:
	//DEBUG_VALUE: mas_blk_latency_bio_submit_func:i <- [DW_OP_plus_uconst 1, DW_OP_stack_value] undef
	//DEBUG_VALUE: mas_blk_latency_bio_submit_func:i <- undef
.LBB0_17:
	.loc	151 188 1               // kernel/block/mas_blk_latency.c:188:1
	ldp	x29, x30, [sp, #64]     // 16-byte Folded Reload
	ldp	x20, x19, [sp, #48]     // 16-byte Folded Reload
	ldp	x22, x21, [sp, #32]     // 16-byte Folded Reload
	ldp	x24, x23, [sp, #16]     // 16-byte Folded Reload
	ldr	x25, [sp], #80          // 8-byte Folded Reload
	ret
.Ltmp58:
.Lfunc_end0:
	.size	mas_blk_latency_bio_submit_func, .Lfunc_end0-mas_blk_latency_bio_submit_func
	.cfi_endproc
	.file	162 "/mnt/disk/jenkins/ci/workspace/chipset_pipeline_release/opensource/component_code/vendor/huawei/extra/build/build_script/kirin_kernel_release/kernel/include/linux/bitops.h"
                                        // -- End function
	.section	.text.mas_blk_latency_bio_endio_func,"ax",@progbits
	.p2align	2               // -- Begin function mas_blk_latency_bio_endio_func
	.type	mas_blk_latency_bio_endio_func,@function
mas_blk_latency_bio_endio_func:         // @mas_blk_latency_bio_endio_func
.Lfunc_begin1:
	.loc	151 220 0               // kernel/block/mas_blk_latency.c:220:0
	.cfi_startproc
// %bb.0:
	//DEBUG_VALUE: mas_blk_latency_bio_endio_func:bio <- $x0
	str	x23, [sp, #-64]!        // 8-byte Folded Spill
	stp	x22, x21, [sp, #16]     // 16-byte Folded Spill
	stp	x20, x19, [sp, #32]     // 16-byte Folded Spill
	stp	x29, x30, [sp, #48]     // 16-byte Folded Spill
	add	x29, sp, #48            // =48
	.cfi_def_cfa w29, 16
	.cfi_offset w30, -8
	.cfi_offset w29, -16
	.cfi_offset w19, -24
	.cfi_offset w20, -32
	.cfi_offset w21, -40
	.cfi_offset w22, -48
	.cfi_offset w23, -64
.Ltmp59:
	.loc	161 19 2 prologue_end   // kernel/arch/arm64/include/asm/current.h:19:2
	//APP
	mrs x8, sp_el0
	//NO_APP
.Ltmp60:
	//DEBUG_VALUE: __read_once_size:size <- 4
	//DEBUG_VALUE: __read_once_size:res <- undef
	//DEBUG_VALUE: __read_once_size:p <- [DW_OP_plus_uconst 16, DW_OP_stack_value] $x8
	//DEBUG_VALUE: get_current:sp_el0 <- $x8
	.file	163 "/mnt/disk/jenkins/ci/workspace/chipset_pipeline_release/opensource/component_code/vendor/huawei/extra/build/build_script/kirin_kernel_release/kernel/include/linux/compiler.h"
	.loc	163 183 2               // kernel/include/linux/compiler.h:183:2
	ldr	w8, [x8, #16]
.Ltmp61:
	.loc	151 223 41              // kernel/block/mas_blk_latency.c:223:41
	ldr	x20, [x0, #96]
.Ltmp62:
	//DEBUG_VALUE: mas_blk_latency_bio_endio_func:q <- $x20
	//DEBUG_VALUE: mas_blk_bio_timeout:q <- $x20
	//DEBUG_VALUE: bio_timeout_threshold:q <- $x20
	//DEBUG_VALUE: mas_blk_dump_timeouted_bio:q <- $x20
	.loc	151 0 41 is_stmt 0      // kernel/block/mas_blk_latency.c:0:41
	mov	w9, #1000
	mov	x19, x0
.Ltmp63:
	//DEBUG_VALUE: mas_blk_latency_bio_endio_func:bio <- $x19
	.loc	151 222 39 is_stmt 1    // kernel/block/mas_blk_latency.c:222:39
	tst	w8, #0x1fff00
	mov	w8, #34464
	movk	w8, #1, lsl #16
	csel	x22, x8, x9, eq
.Ltmp64:
	//DEBUG_VALUE: mas_blk_latency_bio_endio_func:timeout <- $x22
	.loc	151 225 8               // kernel/block/mas_blk_latency.c:225:8
	cbz	x20, .LBB1_8
.Ltmp65:
// %bb.1:
	//DEBUG_VALUE: mas_blk_latency_bio_endio_func:timeout <- $x22
	//DEBUG_VALUE: mas_blk_latency_bio_endio_func:bio <- $x19
	//DEBUG_VALUE: bio_timeout_threshold:q <- $x20
	//DEBUG_VALUE: mas_blk_bio_timeout:q <- $x20
	//DEBUG_VALUE: mas_blk_latency_bio_endio_func:q <- $x20
	//DEBUG_VALUE: mas_blk_bio_timeout:bio <- $x19
	.loc	151 193 21              // kernel/block/mas_blk_latency.c:193:21
	bl	ktime_get
.Ltmp66:
	.loc	151 96 15               // kernel/block/mas_blk_latency.c:96:15
	ldr	w9, [x19, #16]
.Ltmp67:
	.loc	151 195 4               // kernel/block/mas_blk_latency.c:195:4
	ldr	x8, [x19, #152]
.Ltmp68:
	//DEBUG_VALUE: mas_blk_bio_is_hp:bio <- $x19
	//DEBUG_VALUE: bio_timeout_threshold:bio <- $x19
	//DEBUG_VALUE: ktime_add_ms:kt <- $x8
	.loc	151 96 22               // kernel/block/mas_blk_latency.c:96:22
	tst	w9, #0x3000000
.Ltmp69:
	//DEBUG_VALUE: ktime_after:cmp1 <- $x0
	//DEBUG_VALUE: ktime_compare:cmp1 <- $x0
	//DEBUG_VALUE: bio_timeout_threshold:bio <- $x19
	.loc	151 111 6               // kernel/block/mas_blk_latency.c:111:6
	b.eq	.LBB1_3
.Ltmp70:
// %bb.2:
	//DEBUG_VALUE: bio_timeout_threshold:bio <- $x19
	//DEBUG_VALUE: mas_blk_bio_timeout:bio <- $x19
	//DEBUG_VALUE: mas_blk_latency_bio_endio_func:timeout <- $x22
	//DEBUG_VALUE: mas_blk_latency_bio_endio_func:bio <- $x19
	//DEBUG_VALUE: bio_timeout_threshold:q <- $x20
	//DEBUG_VALUE: mas_blk_bio_timeout:q <- $x20
	//DEBUG_VALUE: mas_blk_latency_bio_endio_func:q <- $x20
	//DEBUG_VALUE: hp_bio_timueout_threshold:bio <- $x19
	.loc	151 102 9               // kernel/block/mas_blk_latency.c:102:9
	tst	w9, #0x1000000
	mov	w9, #100
	mov	w10, #500
	csel	x9, x10, x9, eq
	b	.LBB1_6
.Ltmp71:
.LBB1_3:
	//DEBUG_VALUE: bio_timeout_threshold:bio <- $x19
	//DEBUG_VALUE: mas_blk_bio_timeout:bio <- $x19
	//DEBUG_VALUE: mas_blk_latency_bio_endio_func:timeout <- $x22
	//DEBUG_VALUE: mas_blk_latency_bio_endio_func:bio <- $x19
	//DEBUG_VALUE: bio_timeout_threshold:q <- $x20
	//DEBUG_VALUE: mas_blk_bio_timeout:q <- $x20
	//DEBUG_VALUE: mas_blk_latency_bio_endio_func:q <- $x20
	.loc	151 0 9 is_stmt 0       // kernel/block/mas_blk_latency.c:0:9
	mov	w10, #4096
	movk	w10, #64, lsl #16
.Ltmp72:
	//DEBUG_VALUE: mas_blk_bio_is_cp:bio <- $x19
	.loc	1 299 22 is_stmt 1      // kernel/block/mas_blk.h:299:22
	tst	w9, w10
.Ltmp73:
	.loc	151 116 6               // kernel/block/mas_blk_latency.c:116:6
	b.eq	.LBB1_5
.Ltmp74:
// %bb.4:
	//DEBUG_VALUE: mas_blk_bio_is_cp:bio <- $x19
	//DEBUG_VALUE: bio_timeout_threshold:bio <- $x19
	//DEBUG_VALUE: mas_blk_bio_timeout:bio <- $x19
	//DEBUG_VALUE: mas_blk_latency_bio_endio_func:timeout <- $x22
	//DEBUG_VALUE: mas_blk_latency_bio_endio_func:bio <- $x19
	//DEBUG_VALUE: bio_timeout_threshold:q <- $x20
	//DEBUG_VALUE: mas_blk_bio_timeout:q <- $x20
	//DEBUG_VALUE: mas_blk_latency_bio_endio_func:q <- $x20
	.loc	151 0 6 is_stmt 0       // kernel/block/mas_blk_latency.c:0:6
	mov	w9, #1000
	b	.LBB1_6
.Ltmp75:
.LBB1_5:
	//DEBUG_VALUE: bio_timeout_threshold:bio <- $x19
	//DEBUG_VALUE: mas_blk_bio_timeout:bio <- $x19
	//DEBUG_VALUE: mas_blk_latency_bio_endio_func:timeout <- $x22
	//DEBUG_VALUE: mas_blk_latency_bio_endio_func:bio <- $x19
	//DEBUG_VALUE: bio_timeout_threshold:q <- $x20
	//DEBUG_VALUE: mas_blk_bio_timeout:q <- $x20
	//DEBUG_VALUE: mas_blk_latency_bio_endio_func:q <- $x20
	.loc	151 120 22 is_stmt 1    // kernel/block/mas_blk_latency.c:120:22
	ldr	w9, [x20, #1704]
.Ltmp76:
.LBB1_6:
	//DEBUG_VALUE: mas_blk_bio_timeout:bio <- $x19
	//DEBUG_VALUE: mas_blk_latency_bio_endio_func:timeout <- $x22
	//DEBUG_VALUE: mas_blk_latency_bio_endio_func:bio <- $x19
	//DEBUG_VALUE: mas_blk_bio_timeout:q <- $x20
	//DEBUG_VALUE: mas_blk_latency_bio_endio_func:q <- $x20
	.loc	151 0 22 is_stmt 0      // kernel/block/mas_blk_latency.c:0:22
	mov	w10, #16960
	movk	w10, #15, lsl #16
.Ltmp77:
	//DEBUG_VALUE: ktime_add_ms:msec <- $x9
	.loc	27 200 9 is_stmt 1      // kernel/include/linux/ktime.h:200:9
	madd	x8, x9, x10, x8
.Ltmp78:
	//DEBUG_VALUE: ktime_compare:cmp2 <- undef
	//DEBUG_VALUE: ktime_after:cmp2 <- undef
	.loc	151 225 11              // kernel/block/mas_blk_latency.c:225:11
	cmp	x0, x8
	b.le	.LBB1_8
.Ltmp79:
// %bb.7:
	//DEBUG_VALUE: mas_blk_latency_bio_endio_func:timeout <- $x22
	//DEBUG_VALUE: mas_blk_latency_bio_endio_func:bio <- $x19
	//DEBUG_VALUE: mas_blk_latency_bio_endio_func:q <- $x20
	adrp	x0, latency_endbio_ratelmt_state
	adrp	x1, .L.str.24
	add	x0, x0, :lo12:latency_endbio_ratelmt_state
	add	x1, x1, :lo12:.L.str.24
	bl	___ratelimit
.Ltmp80:
	.loc	151 225 6 is_stmt 0     // kernel/block/mas_blk_latency.c:225:6
	cbnz	w0, .LBB1_18
.Ltmp81:
.LBB1_8:
	//DEBUG_VALUE: mas_blk_latency_bio_endio_func:timeout <- $x22
	//DEBUG_VALUE: mas_blk_latency_bio_endio_func:bio <- $x19
	//DEBUG_VALUE: mas_blk_latency_bio_endio_func:q <- $x20
	.loc	151 231 6 is_stmt 1     // kernel/block/mas_blk_latency.c:231:6
	add	x0, x19, #184           // =184
.Ltmp82:
	.loc	151 229 26              // kernel/block/mas_blk_latency.c:229:26
	strb	wzr, [x19, #145]
.Ltmp83:
	.loc	151 231 6               // kernel/block/mas_blk_latency.c:231:6
	bl	del_timer
.Ltmp84:
	.loc	151 231 6 is_stmt 0     // kernel/block/mas_blk_latency.c:231:6
	cbz	w0, .LBB1_11
.Ltmp85:
// %bb.9:
	//DEBUG_VALUE: mas_blk_latency_bio_endio_func:timeout <- $x22
	//DEBUG_VALUE: mas_blk_latency_bio_endio_func:bio <- $x19
	//DEBUG_VALUE: mas_blk_latency_bio_endio_func:q <- $x20
	.loc	151 232 3 is_stmt 1     // kernel/block/mas_blk_latency.c:232:3
	mov	x0, x19
	bl	bio_put
.Ltmp86:
.LBB1_10:
	//DEBUG_VALUE: mas_blk_latency_bio_endio_func:bio <- $x19
	.loc	151 242 37              // kernel/block/mas_blk_latency.c:242:37
	str	wzr, [x19, #232]
	.loc	151 244 22              // kernel/block/mas_blk_latency.c:244:22
	str	xzr, [x19, #104]
	.loc	151 245 1               // kernel/block/mas_blk_latency.c:245:1
	ldp	x29, x30, [sp, #48]     // 16-byte Folded Reload
	ldp	x20, x19, [sp, #32]     // 16-byte Folded Reload
.Ltmp87:
	ldp	x22, x21, [sp, #16]     // 16-byte Folded Reload
	ldr	x23, [sp], #64          // 8-byte Folded Reload
	ret
.LBB1_11:
.Ltmp88:
	//DEBUG_VALUE: mas_blk_latency_bio_endio_func:timeout <- $x22
	//DEBUG_VALUE: mas_blk_latency_bio_endio_func:bio <- $x19
	//DEBUG_VALUE: mas_blk_latency_bio_endio_func:q <- $x20
	.loc	151 234 23              // kernel/block/mas_blk_latency.c:234:23
	ldr	w8, [x19, #232]
	.loc	151 234 45 is_stmt 0    // kernel/block/mas_blk_latency.c:234:45
	cbz	w8, .LBB1_10
.Ltmp89:
// %bb.12:
	//DEBUG_VALUE: mas_blk_latency_bio_endio_func:timeout <- $x22
	//DEBUG_VALUE: mas_blk_latency_bio_endio_func:bio <- $x19
	//DEBUG_VALUE: mas_blk_latency_bio_endio_func:q <- $x20
	.loc	151 0 45                // kernel/block/mas_blk_latency.c:0:45
	orr	w9, wzr, #0x1
	mov	w8, wzr
	.loc	151 234 3               // kernel/block/mas_blk_latency.c:234:3
	sub	x9, x9, x22
.Ltmp90:
.LBB1_13:                               // =>This Inner Loop Header: Depth=1
	//DEBUG_VALUE: mas_blk_latency_bio_endio_func:timeout <- $x22
	//DEBUG_VALUE: mas_blk_latency_bio_endio_func:bio <- $x19
	//DEBUG_VALUE: mas_blk_latency_bio_endio_func:q <- $x20
	//DEBUG_VALUE: mas_blk_latency_bio_endio_func:timeout <- [DW_OP_constu 1, DW_OP_minus, DW_OP_stack_value] undef
	//DEBUG_VALUE: mas_blk_latency_bio_endio_func:timeout <- undef
	tbnz	w8, #0, .LBB1_10
.Ltmp91:
// %bb.14:                              //   in Loop: Header=BB1_13 Depth=1
	//DEBUG_VALUE: mas_blk_latency_bio_endio_func:bio <- $x19
	//DEBUG_VALUE: mas_blk_latency_bio_endio_func:q <- $x20
	.loc	151 235 4 is_stmt 1     // kernel/block/mas_blk_latency.c:235:4
	mov	w0, #42950
	mov	x20, x9
.Ltmp92:
	bl	__const_udelay
.Ltmp93:
	//DEBUG_VALUE: mas_blk_latency_bio_endio_func:timeout <- [DW_OP_constu 1, DW_OP_minus, DW_OP_stack_value] undef
	.loc	151 234 23              // kernel/block/mas_blk_latency.c:234:23
	ldr	w10, [x19, #232]
	.loc	151 0 0 is_stmt 0       // kernel/block/mas_blk_latency.c:0:0
	cmp	x20, #0                 // =0
	cset	w8, eq
	.loc	151 234 45              // kernel/block/mas_blk_latency.c:234:45
	add	x9, x20, #1             // =1
	cbnz	w10, .LBB1_13
.Ltmp94:
// %bb.15:
	//DEBUG_VALUE: mas_blk_latency_bio_endio_func:bio <- $x19
	//DEBUG_VALUE: mas_blk_latency_bio_endio_func:timeout <- undef
	.loc	151 237 26 is_stmt 1    // kernel/block/mas_blk_latency.c:237:26
	cbnz	x20, .LBB1_10
.Ltmp95:
// %bb.16:
	//DEBUG_VALUE: mas_blk_latency_bio_endio_func:bio <- $x19
	.loc	151 238 4               // kernel/block/mas_blk_latency.c:238:4
	adrp	x0, latency_endbio_ratelmt_state
	adrp	x1, .L.str.25
	add	x0, x0, :lo12:latency_endbio_ratelmt_state
	add	x1, x1, :lo12:.L.str.25
	bl	___ratelimit
.Ltmp96:
	.loc	151 237 7               // kernel/block/mas_blk_latency.c:237:7
	cbz	w0, .LBB1_10
.Ltmp97:
// %bb.17:
	//DEBUG_VALUE: mas_blk_latency_bio_endio_func:bio <- $x19
	.loc	151 240 4               // kernel/block/mas_blk_latency.c:240:4
	bl	dump_stack
	b	.LBB1_10
.Ltmp98:
.LBB1_18:
	//DEBUG_VALUE: mas_blk_latency_bio_endio_func:timeout <- $x22
	//DEBUG_VALUE: mas_blk_latency_bio_endio_func:bio <- $x19
	//DEBUG_VALUE: mas_blk_latency_bio_endio_func:q <- $x20
	//DEBUG_VALUE: mas_blk_dump_timeouted_bio:bio <- $x19
	.loc	151 202 28              // kernel/block/mas_blk_latency.c:202:28
	mov	x0, x20
	bl	mas_blk_get_lld
	.loc	151 203 33              // kernel/block/mas_blk_latency.c:203:33
	ldr	x23, [x20, #1816]
.Ltmp99:
	//DEBUG_VALUE: mas_blk_dump_timeouted_bio:ops <- $x23
	.loc	151 202 28              // kernel/block/mas_blk_latency.c:202:28
	mov	x21, x0
.Ltmp100:
	//DEBUG_VALUE: mas_blk_dump_timeouted_bio:lld <- $x21
	.loc	151 205 2               // kernel/block/mas_blk_latency.c:205:2
	mov	x0, x19
	mov	w1, wzr
	bl	mas_blk_dump_bio
	.loc	151 206 2               // kernel/block/mas_blk_latency.c:206:2
	mov	x0, x20
	mov	w1, wzr
	bl	mas_blk_dump_queue_status
.Ltmp101:
	//DEBUG_VALUE: mas_blk_dump_fs:bio <- $x19
	.loc	1 414 11                // kernel/block/mas_blk.h:414:11
	ldr	x8, [x19, #312]
.Ltmp102:
	.loc	1 414 6 is_stmt 0       // kernel/block/mas_blk.h:414:6
	cbz	x8, .LBB1_20
.Ltmp103:
// %bb.19:
	//DEBUG_VALUE: mas_blk_dump_fs:bio <- $x19
	//DEBUG_VALUE: mas_blk_dump_timeouted_bio:lld <- $x21
	//DEBUG_VALUE: mas_blk_dump_timeouted_bio:ops <- $x23
	//DEBUG_VALUE: mas_blk_dump_timeouted_bio:bio <- $x19
	//DEBUG_VALUE: mas_blk_latency_bio_endio_func:timeout <- $x22
	//DEBUG_VALUE: mas_blk_latency_bio_endio_func:bio <- $x19
	//DEBUG_VALUE: mas_blk_latency_bio_endio_func:q <- $x20
	.loc	1 415 3 is_stmt 1       // kernel/block/mas_blk.h:415:3
	blr	x8
.Ltmp104:
.LBB1_20:
	//DEBUG_VALUE: mas_blk_dump_timeouted_bio:lld <- $x21
	//DEBUG_VALUE: mas_blk_dump_timeouted_bio:ops <- $x23
	//DEBUG_VALUE: mas_blk_dump_timeouted_bio:bio <- $x19
	//DEBUG_VALUE: mas_blk_latency_bio_endio_func:timeout <- $x22
	//DEBUG_VALUE: mas_blk_latency_bio_endio_func:bio <- $x19
	//DEBUG_VALUE: mas_blk_latency_bio_endio_func:q <- $x20
	.loc	151 209 11              // kernel/block/mas_blk_latency.c:209:11
	ldr	x8, [x21, #40]
.Ltmp105:
	.loc	151 209 6 is_stmt 0     // kernel/block/mas_blk_latency.c:209:6
	cbz	x8, .LBB1_22
.Ltmp106:
// %bb.21:
	//DEBUG_VALUE: mas_blk_dump_timeouted_bio:lld <- $x21
	//DEBUG_VALUE: mas_blk_dump_timeouted_bio:ops <- $x23
	//DEBUG_VALUE: mas_blk_dump_timeouted_bio:bio <- $x19
	//DEBUG_VALUE: mas_blk_latency_bio_endio_func:timeout <- $x22
	//DEBUG_VALUE: mas_blk_latency_bio_endio_func:bio <- $x19
	//DEBUG_VALUE: mas_blk_latency_bio_endio_func:q <- $x20
	.loc	151 210 3 is_stmt 1     // kernel/block/mas_blk_latency.c:210:3
	mov	x0, x20
	mov	w1, wzr
	blr	x8
.Ltmp107:
.LBB1_22:
	//DEBUG_VALUE: mas_blk_dump_timeouted_bio:lld <- $x21
	//DEBUG_VALUE: mas_blk_dump_timeouted_bio:ops <- $x23
	//DEBUG_VALUE: mas_blk_dump_timeouted_bio:bio <- $x19
	//DEBUG_VALUE: mas_blk_latency_bio_endio_func:timeout <- $x22
	//DEBUG_VALUE: mas_blk_latency_bio_endio_func:bio <- $x19
	//DEBUG_VALUE: mas_blk_latency_bio_endio_func:q <- $x20
	.loc	151 211 10              // kernel/block/mas_blk_latency.c:211:10
	cbz	x23, .LBB1_8
.Ltmp108:
// %bb.23:
	//DEBUG_VALUE: mas_blk_dump_timeouted_bio:lld <- $x21
	//DEBUG_VALUE: mas_blk_dump_timeouted_bio:ops <- $x23
	//DEBUG_VALUE: mas_blk_dump_timeouted_bio:bio <- $x19
	//DEBUG_VALUE: mas_blk_latency_bio_endio_func:timeout <- $x22
	//DEBUG_VALUE: mas_blk_latency_bio_endio_func:bio <- $x19
	//DEBUG_VALUE: mas_blk_latency_bio_endio_func:q <- $x20
	.loc	151 211 18 is_stmt 0    // kernel/block/mas_blk_latency.c:211:18
	ldr	x8, [x23, #160]
.Ltmp109:
	.loc	151 211 6               // kernel/block/mas_blk_latency.c:211:6
	cbz	x8, .LBB1_8
.Ltmp110:
// %bb.24:
	//DEBUG_VALUE: mas_blk_dump_timeouted_bio:lld <- $x21
	//DEBUG_VALUE: mas_blk_dump_timeouted_bio:ops <- $x23
	//DEBUG_VALUE: mas_blk_dump_timeouted_bio:bio <- $x19
	//DEBUG_VALUE: mas_blk_latency_bio_endio_func:timeout <- $x22
	//DEBUG_VALUE: mas_blk_latency_bio_endio_func:bio <- $x19
	//DEBUG_VALUE: mas_blk_latency_bio_endio_func:q <- $x20
	.loc	151 212 3 is_stmt 1     // kernel/block/mas_blk_latency.c:212:3
	mov	x0, x20
	mov	w1, wzr
	blr	x8
	b	.LBB1_8
.Ltmp111:
.Lfunc_end1:
	.size	mas_blk_latency_bio_endio_func, .Lfunc_end1-mas_blk_latency_bio_endio_func
	.cfi_endproc
	.file	164 "/mnt/disk/jenkins/ci/workspace/chipset_pipeline_release/opensource/component_code/vendor/huawei/extra/build/build_script/kirin_kernel_release/kernel/include/asm-generic/preempt.h"
                                        // -- End function
	.section	.text.mas_blk_latency_req_init_func,"ax",@progbits
	.p2align	2               // -- Begin function mas_blk_latency_req_init_func
	.type	mas_blk_latency_req_init_func,@function
mas_blk_latency_req_init_func:          // @mas_blk_latency_req_init_func
.Lfunc_begin2:
	.loc	151 248 0               // kernel/block/mas_blk_latency.c:248:0
	.cfi_startproc
// %bb.0:
	//DEBUG_VALUE: mas_blk_latency_req_init_func:req <- $x0
	//DEBUG_VALUE: mas_blk_latency_req_init_func:req <- $x0
	//DEBUG_VALUE: mas_blk_latency_req_init_func:mas_req <- [DW_OP_plus_uconst 240, DW_OP_stack_value] $x0
	//DEBUG_VALUE: mas_blk_latency_req_init_func:mas_req <- [DW_OP_plus_uconst 240, DW_OP_stack_value] $x0
	.loc	151 252 6 prologue_end  // kernel/block/mas_blk_latency.c:252:6
	ldr	x8, [x0, #64]
	cbz	x8, .LBB2_3
// %bb.1:
	//DEBUG_VALUE: mas_blk_latency_req_init_func:mas_req <- [DW_OP_plus_uconst 240, DW_OP_stack_value] $x0
	//DEBUG_VALUE: mas_blk_latency_req_init_func:req <- $x0
	ldr	w8, [x8, #1700]
.Ltmp112:
	.loc	151 252 6 is_stmt 0     // kernel/block/mas_blk_latency.c:252:6
	cbz	w8, .LBB2_3
// %bb.2:
	//DEBUG_VALUE: mas_blk_latency_req_init_func:mas_req <- [DW_OP_plus_uconst 240, DW_OP_stack_value] $x0
	//DEBUG_VALUE: mas_blk_latency_req_init_func:req <- $x0
	.loc	151 0 6                 // kernel/block/mas_blk_latency.c:0:6
	mov	w8, #76
.Ltmp113:
	.loc	151 255 32 is_stmt 1    // kernel/block/mas_blk_latency.c:255:32
	stp	xzr, xzr, [x0, #408]
	stp	xzr, xzr, [x0, #392]
	stp	xzr, xzr, [x0, #376]
	stp	xzr, xzr, [x0, #360]
	stp	xzr, xzr, [x0, #344]
	stp	xzr, xzr, [x0, #328]
	stp	xzr, xzr, [x0, #312]
	str	xzr, [x0, #304]
.Ltmp114:
	//DEBUG_VALUE: mas_blk_latency_req_init_func:i <- undef
	//DEBUG_VALUE: mas_blk_latency_req_init_func:i <- [DW_OP_plus_uconst 1, DW_OP_stack_value] undef
	.loc	161 19 2                // kernel/arch/arm64/include/asm/current.h:19:2
	//APP
	mrs x9, sp_el0
	//NO_APP
.Ltmp115:
	//DEBUG_VALUE: get_current:sp_el0 <- $x9
	//DEBUG_VALUE: get_current:sp_el0 <- $x9
	//DEBUG_VALUE: get_current:sp_el0 <- $x9
	//DEBUG_VALUE: get_current:sp_el0 <- $x9
	.loc	151 253 23              // kernel/block/mas_blk_latency.c:253:23
	strb	w8, [x0, #280]
.Ltmp116:
	//DEBUG_VALUE: mas_blk_latency_req_init_func:i <- 0
	.loc	151 256 26              // kernel/block/mas_blk_latency.c:256:26
	str	x9, [x0, #240]
	.loc	151 257 32              // kernel/block/mas_blk_latency.c:257:32
	ldr	w8, [x9, #2096]
	.loc	151 257 21 is_stmt 0    // kernel/block/mas_blk_latency.c:257:21
	str	w8, [x0, #248]
	.loc	151 258 33 is_stmt 1    // kernel/block/mas_blk_latency.c:258:33
	ldr	w8, [x9, #2100]
	.loc	151 258 22 is_stmt 0    // kernel/block/mas_blk_latency.c:258:22
	str	w8, [x0, #252]
	.loc	151 259 3 is_stmt 1     // kernel/block/mas_blk_latency.c:259:3
	ldr	x8, [x9, #2560]
	ldr	x9, [x9, #2568]
.Ltmp117:
	stp	x8, x9, [x0, #256]
.Ltmp118:
	.loc	151 264 1               // kernel/block/mas_blk_latency.c:264:1
	ret
.LBB2_3:
	//DEBUG_VALUE: mas_blk_latency_req_init_func:mas_req <- [DW_OP_plus_uconst 240, DW_OP_stack_value] $x0
	//DEBUG_VALUE: mas_blk_latency_req_init_func:req <- $x0
.Ltmp119:
	.loc	151 262 23              // kernel/block/mas_blk_latency.c:262:23
	strb	wzr, [x0, #280]
.Ltmp120:
	.loc	151 264 1               // kernel/block/mas_blk_latency.c:264:1
	ret
.Ltmp121:
.Lfunc_end2:
	.size	mas_blk_latency_req_init_func, .Lfunc_end2-mas_blk_latency_req_init_func
	.cfi_endproc
                                        // -- End function
	.section	.text.mas_blk_latency_req_free_func,"ax",@progbits
	.p2align	2               // -- Begin function mas_blk_latency_req_free_func
	.type	mas_blk_latency_req_free_func,@function
mas_blk_latency_req_free_func:          // @mas_blk_latency_req_free_func
.Lfunc_begin3:
	.loc	151 267 0               // kernel/block/mas_blk_latency.c:267:0
	.cfi_startproc
// %bb.0:
	//DEBUG_VALUE: mas_blk_latency_req_free_func:req <- $x0
	//DEBUG_VALUE: mas_blk_latency_req_free_func:req <- $x0
	.loc	151 270 14 prologue_end // kernel/block/mas_blk_latency.c:270:14
	ldr	x8, [x0, #120]
	.loc	151 268 26              // kernel/block/mas_blk_latency.c:268:26
	strb	wzr, [x0, #280]
	.loc	151 269 29              // kernel/block/mas_blk_latency.c:269:29
	str	xzr, [x0, #240]
	.loc	151 270 2               // kernel/block/mas_blk_latency.c:270:2
	cbz	x8, .LBB3_2
.LBB3_1:                                // =>This Inner Loop Header: Depth=1
	//DEBUG_VALUE: mas_blk_latency_req_free_func:req <- $x0
.Ltmp122:
	//DEBUG_VALUE: bio <- $x8
	.loc	151 273 23              // kernel/block/mas_blk_latency.c:273:23
	str	xzr, [x8, #104]
	.loc	151 274 19              // kernel/block/mas_blk_latency.c:274:19
	ldr	x8, [x8]
.Ltmp123:
	.loc	151 274 12 is_stmt 0    // kernel/block/mas_blk_latency.c:274:12
	str	x8, [x0, #120]
.Ltmp124:
	.loc	151 270 2 is_stmt 1     // kernel/block/mas_blk_latency.c:270:2
	cbnz	x8, .LBB3_1
.LBB3_2:
	//DEBUG_VALUE: mas_blk_latency_req_free_func:req <- $x0
	.loc	151 276 1               // kernel/block/mas_blk_latency.c:276:1
	ret
.Ltmp125:
.Lfunc_end3:
	.size	mas_blk_latency_req_free_func, .Lfunc_end3-mas_blk_latency_req_free_func
	.cfi_endproc
                                        // -- End function
	.section	.text.mas_blk_latency_check_timer_expire,"ax",@progbits
	.hidden	mas_blk_latency_check_timer_expire // -- Begin function mas_blk_latency_check_timer_expire
	.globl	mas_blk_latency_check_timer_expire
	.p2align	2
	.type	mas_blk_latency_check_timer_expire,@function
mas_blk_latency_check_timer_expire:     // @mas_blk_latency_check_timer_expire
.Lfunc_begin4:
	.loc	151 284 0               // kernel/block/mas_blk_latency.c:284:0
	.cfi_startproc
// %bb.0:
	//DEBUG_VALUE: mas_blk_latency_check_timer_expire:data <- $x0
	str	x23, [sp, #-64]!        // 8-byte Folded Spill
	stp	x22, x21, [sp, #16]     // 16-byte Folded Spill
	stp	x20, x19, [sp, #32]     // 16-byte Folded Spill
	stp	x29, x30, [sp, #48]     // 16-byte Folded Spill
	add	x29, sp, #48            // =48
	.cfi_def_cfa w29, 16
	.cfi_offset w30, -8
	.cfi_offset w29, -16
	.cfi_offset w19, -24
	.cfi_offset w20, -32
	.cfi_offset w21, -40
	.cfi_offset w22, -48
	.cfi_offset w23, -64
	mov	x19, x0
.Ltmp126:
	//DEBUG_VALUE: mas_blk_latency_check_timer_expire:lld <- 0
	//DEBUG_VALUE: mas_blk_latency_check_timer_expire:q <- 0
	//DEBUG_VALUE: mas_blk_latency_check_timer_expire:bio <- $x19
	//DEBUG_VALUE: mas_blk_bio_is_cp:bio <- $x19
	//DEBUG_VALUE: mas_blk_dump_timeouted_bio:bio <- $x19
	//DEBUG_VALUE: mas_blk_dump_fs:bio <- $x19
	//DEBUG_VALUE: mas_blk_latency_check_timer_expire:data <- $x19
	.loc	151 290 2 prologue_end  // kernel/block/mas_blk_latency.c:290:2
	adrp	x0, latency_log_protect_lock
	add	x0, x0, :lo12:latency_log_protect_lock
	bl	_raw_spin_lock_irqsave
.Ltmp127:
	.loc	151 291 6               // kernel/block/mas_blk_latency.c:291:6
	ldrb	w3, [x19, #145]
.Ltmp128:
	.loc	151 290 2               // kernel/block/mas_blk_latency.c:290:2
	mov	x20, x0
.Ltmp129:
	//DEBUG_VALUE: mas_blk_latency_check_timer_expire:flags <- $x20
	//DEBUG_VALUE: spin_unlock_irqrestore:flags <- $x20
	.loc	151 291 6               // kernel/block/mas_blk_latency.c:291:6
	cmp	w3, #76                 // =76
	b.ne	.LBB4_17
.Ltmp130:
// %bb.1:
	//DEBUG_VALUE: mas_blk_latency_check_timer_expire:flags <- $x20
	//DEBUG_VALUE: mas_blk_latency_check_timer_expire:data <- $x19
	//DEBUG_VALUE: mas_blk_latency_check_timer_expire:bio <- $x19
	.loc	151 297 12              // kernel/block/mas_blk_latency.c:297:12
	ldr	x8, [x19, #8]
	.loc	151 297 20 is_stmt 0    // kernel/block/mas_blk_latency.c:297:20
	cbz	x8, .LBB4_6
.Ltmp131:
// %bb.2:
	//DEBUG_VALUE: mas_blk_latency_check_timer_expire:flags <- $x20
	//DEBUG_VALUE: mas_blk_latency_check_timer_expire:data <- $x19
	//DEBUG_VALUE: mas_blk_latency_check_timer_expire:bio <- $x19
	.loc	151 297 38              // kernel/block/mas_blk_latency.c:297:38
	ldr	x21, [x8, #1120]
.Ltmp132:
	//DEBUG_VALUE: mas_blk_dump_timeouted_bio:q <- $x21
	//DEBUG_VALUE: mas_blk_latency_check_timer_expire:q <- $x21
	.loc	151 297 6               // kernel/block/mas_blk_latency.c:297:6
	cbz	x21, .LBB4_6
.Ltmp133:
// %bb.3:
	//DEBUG_VALUE: mas_blk_latency_check_timer_expire:q <- $x21
	//DEBUG_VALUE: mas_blk_latency_check_timer_expire:flags <- $x20
	//DEBUG_VALUE: mas_blk_latency_check_timer_expire:data <- $x19
	//DEBUG_VALUE: mas_blk_latency_check_timer_expire:bio <- $x19
	.loc	151 303 8 is_stmt 1     // kernel/block/mas_blk_latency.c:303:8
	mov	x0, x21
	bl	mas_blk_get_lld
.Ltmp134:
	//DEBUG_VALUE: mas_blk_latency_check_timer_expire:lld <- undef
	.loc	151 305 7               // kernel/block/mas_blk_latency.c:305:7
	adrp	x0, latency_log_ratelmt_state
	adrp	x1, .L.str.21
	add	x0, x0, :lo12:latency_log_ratelmt_state
	add	x1, x1, :lo12:.L.str.21
	bl	___ratelimit
.Ltmp135:
	.loc	151 305 6 is_stmt 0     // kernel/block/mas_blk_latency.c:305:6
	cbz	w0, .LBB4_16
.Ltmp136:
// %bb.4:
	//DEBUG_VALUE: mas_blk_latency_check_timer_expire:q <- $x21
	//DEBUG_VALUE: mas_blk_latency_check_timer_expire:flags <- $x20
	//DEBUG_VALUE: mas_blk_latency_check_timer_expire:data <- $x19
	//DEBUG_VALUE: mas_blk_latency_check_timer_expire:bio <- $x19
	.loc	1 299 15 is_stmt 1      // kernel/block/mas_blk.h:299:15
	ldr	w8, [x19, #16]
	mov	w9, #4096
	movk	w9, #64, lsl #16
	.loc	1 299 22 is_stmt 0      // kernel/block/mas_blk.h:299:22
	tst	w8, w9
.Ltmp137:
	.loc	151 310 6 is_stmt 1     // kernel/block/mas_blk_latency.c:310:6
	b.eq	.LBB4_7
.Ltmp138:
// %bb.5:
	//DEBUG_VALUE: mas_blk_latency_check_timer_expire:q <- $x21
	//DEBUG_VALUE: mas_blk_latency_check_timer_expire:flags <- $x20
	//DEBUG_VALUE: mas_blk_latency_check_timer_expire:data <- $x19
	//DEBUG_VALUE: mas_blk_latency_check_timer_expire:bio <- $x19
	.loc	151 311 3               // kernel/block/mas_blk_latency.c:311:3
	mov	w0, wzr
	b	.LBB4_8
.Ltmp139:
.LBB4_6:
	//DEBUG_VALUE: mas_blk_latency_check_timer_expire:flags <- $x20
	//DEBUG_VALUE: mas_blk_latency_check_timer_expire:data <- $x19
	//DEBUG_VALUE: mas_blk_latency_check_timer_expire:bio <- $x19
	.loc	151 298 3               // kernel/block/mas_blk_latency.c:298:3
	adrp	x0, .L.str.20
	adrp	x1, .L__func__.mas_blk_latency_check_timer_expire
	add	x0, x0, :lo12:.L.str.20
	add	x1, x1, :lo12:.L__func__.mas_blk_latency_check_timer_expire
	mov	w2, #298
	bl	printk
	b	.LBB4_16
.Ltmp140:
.LBB4_7:
	//DEBUG_VALUE: mas_blk_latency_check_timer_expire:q <- $x21
	//DEBUG_VALUE: mas_blk_latency_check_timer_expire:flags <- $x20
	//DEBUG_VALUE: mas_blk_latency_check_timer_expire:data <- $x19
	//DEBUG_VALUE: mas_blk_latency_check_timer_expire:bio <- $x19
	.loc	151 314 3               // kernel/block/mas_blk_latency.c:314:3
	orr	w0, wzr, #0x1
.Ltmp141:
.LBB4_8:
	//DEBUG_VALUE: mas_blk_latency_check_timer_expire:q <- $x21
	//DEBUG_VALUE: mas_blk_latency_check_timer_expire:flags <- $x20
	//DEBUG_VALUE: mas_blk_latency_check_timer_expire:data <- $x19
	//DEBUG_VALUE: mas_blk_latency_check_timer_expire:bio <- $x19
	.loc	151 0 0 is_stmt 0       // kernel/block/mas_blk_latency.c:0:0
	bl	dsm_block_record
.Ltmp142:
	.loc	151 202 28 is_stmt 1    // kernel/block/mas_blk_latency.c:202:28
	mov	x0, x21
	bl	mas_blk_get_lld
	.loc	151 203 33              // kernel/block/mas_blk_latency.c:203:33
	ldr	x23, [x21, #1816]
.Ltmp143:
	//DEBUG_VALUE: mas_blk_dump_timeouted_bio:ops <- $x23
	.loc	151 202 28              // kernel/block/mas_blk_latency.c:202:28
	mov	x22, x0
.Ltmp144:
	//DEBUG_VALUE: mas_blk_dump_timeouted_bio:lld <- $x22
	.loc	151 205 2               // kernel/block/mas_blk_latency.c:205:2
	mov	x0, x19
	mov	w1, wzr
	bl	mas_blk_dump_bio
	.loc	151 206 2               // kernel/block/mas_blk_latency.c:206:2
	mov	x0, x21
	mov	w1, wzr
	bl	mas_blk_dump_queue_status
.Ltmp145:
	.loc	1 414 11                // kernel/block/mas_blk.h:414:11
	ldr	x8, [x19, #312]
.Ltmp146:
	.loc	1 414 6 is_stmt 0       // kernel/block/mas_blk.h:414:6
	cbz	x8, .LBB4_10
.Ltmp147:
// %bb.9:
	//DEBUG_VALUE: mas_blk_dump_timeouted_bio:lld <- $x22
	//DEBUG_VALUE: mas_blk_dump_timeouted_bio:ops <- $x23
	//DEBUG_VALUE: mas_blk_latency_check_timer_expire:q <- $x21
	//DEBUG_VALUE: mas_blk_latency_check_timer_expire:flags <- $x20
	//DEBUG_VALUE: mas_blk_latency_check_timer_expire:data <- $x19
	//DEBUG_VALUE: mas_blk_latency_check_timer_expire:bio <- $x19
	.loc	1 415 3 is_stmt 1       // kernel/block/mas_blk.h:415:3
	blr	x8
.Ltmp148:
.LBB4_10:
	//DEBUG_VALUE: mas_blk_dump_timeouted_bio:lld <- $x22
	//DEBUG_VALUE: mas_blk_dump_timeouted_bio:ops <- $x23
	//DEBUG_VALUE: mas_blk_latency_check_timer_expire:q <- $x21
	//DEBUG_VALUE: mas_blk_latency_check_timer_expire:flags <- $x20
	//DEBUG_VALUE: mas_blk_latency_check_timer_expire:data <- $x19
	//DEBUG_VALUE: mas_blk_latency_check_timer_expire:bio <- $x19
	.loc	151 209 11              // kernel/block/mas_blk_latency.c:209:11
	ldr	x8, [x22, #40]
.Ltmp149:
	.loc	151 209 6 is_stmt 0     // kernel/block/mas_blk_latency.c:209:6
	cbz	x8, .LBB4_12
.Ltmp150:
// %bb.11:
	//DEBUG_VALUE: mas_blk_dump_timeouted_bio:lld <- $x22
	//DEBUG_VALUE: mas_blk_dump_timeouted_bio:ops <- $x23
	//DEBUG_VALUE: mas_blk_latency_check_timer_expire:q <- $x21
	//DEBUG_VALUE: mas_blk_latency_check_timer_expire:flags <- $x20
	//DEBUG_VALUE: mas_blk_latency_check_timer_expire:data <- $x19
	//DEBUG_VALUE: mas_blk_latency_check_timer_expire:bio <- $x19
	.loc	151 210 3 is_stmt 1     // kernel/block/mas_blk_latency.c:210:3
	mov	x0, x21
	mov	w1, wzr
	blr	x8
.Ltmp151:
.LBB4_12:
	//DEBUG_VALUE: mas_blk_dump_timeouted_bio:lld <- $x22
	//DEBUG_VALUE: mas_blk_dump_timeouted_bio:ops <- $x23
	//DEBUG_VALUE: mas_blk_latency_check_timer_expire:q <- $x21
	//DEBUG_VALUE: mas_blk_latency_check_timer_expire:flags <- $x20
	//DEBUG_VALUE: mas_blk_latency_check_timer_expire:data <- $x19
	//DEBUG_VALUE: mas_blk_latency_check_timer_expire:bio <- $x19
	.loc	151 211 10              // kernel/block/mas_blk_latency.c:211:10
	cbz	x23, .LBB4_15
.Ltmp152:
// %bb.13:
	//DEBUG_VALUE: mas_blk_dump_timeouted_bio:lld <- $x22
	//DEBUG_VALUE: mas_blk_dump_timeouted_bio:ops <- $x23
	//DEBUG_VALUE: mas_blk_latency_check_timer_expire:q <- $x21
	//DEBUG_VALUE: mas_blk_latency_check_timer_expire:flags <- $x20
	//DEBUG_VALUE: mas_blk_latency_check_timer_expire:data <- $x19
	//DEBUG_VALUE: mas_blk_latency_check_timer_expire:bio <- $x19
	.loc	151 211 18 is_stmt 0    // kernel/block/mas_blk_latency.c:211:18
	ldr	x8, [x23, #160]
.Ltmp153:
	.loc	151 211 6               // kernel/block/mas_blk_latency.c:211:6
	cbz	x8, .LBB4_15
.Ltmp154:
// %bb.14:
	//DEBUG_VALUE: mas_blk_dump_timeouted_bio:lld <- $x22
	//DEBUG_VALUE: mas_blk_dump_timeouted_bio:ops <- $x23
	//DEBUG_VALUE: mas_blk_latency_check_timer_expire:q <- $x21
	//DEBUG_VALUE: mas_blk_latency_check_timer_expire:flags <- $x20
	//DEBUG_VALUE: mas_blk_latency_check_timer_expire:data <- $x19
	//DEBUG_VALUE: mas_blk_latency_check_timer_expire:bio <- $x19
	.loc	151 212 3 is_stmt 1     // kernel/block/mas_blk_latency.c:212:3
	mov	x0, x21
	mov	w1, wzr
	blr	x8
.Ltmp155:
.LBB4_15:
	//DEBUG_VALUE: mas_blk_latency_check_timer_expire:q <- $x21
	//DEBUG_VALUE: mas_blk_latency_check_timer_expire:flags <- $x20
	//DEBUG_VALUE: mas_blk_latency_check_timer_expire:data <- $x19
	//DEBUG_VALUE: mas_blk_latency_check_timer_expire:bio <- $x19
	.loc	151 321 16              // kernel/block/mas_blk_latency.c:321:16
	ldp	w0, w1, [x19, #120]
	.loc	151 320 2               // kernel/block/mas_blk_latency.c:320:2
	adrp	x2, .L.str.21
	add	x2, x2, :lo12:.L.str.21
	bl	iowp_report
.Ltmp156:
.LBB4_16:
	//DEBUG_VALUE: mas_blk_latency_check_timer_expire:flags <- $x20
	//DEBUG_VALUE: mas_blk_latency_check_timer_expire:data <- $x19
	//DEBUG_VALUE: mas_blk_latency_check_timer_expire:bio <- $x19
	//DEBUG_LABEL: mas_blk_latency_check_timer_expire:put_bio
	.file	165 "/mnt/disk/jenkins/ci/workspace/chipset_pipeline_release/opensource/component_code/vendor/huawei/extra/build/build_script/kirin_kernel_release/kernel/include/linux/spinlock.h"
	.loc	165 372 2               // kernel/include/linux/spinlock.h:372:2
	adrp	x0, latency_log_protect_lock
	add	x0, x0, :lo12:latency_log_protect_lock
.Ltmp157:
	//DEBUG_VALUE: spin_unlock_irqrestore:lock <- $x0
	mov	x1, x20
	bl	_raw_spin_unlock_irqrestore
.Ltmp158:
	.loc	151 327 2               // kernel/block/mas_blk_latency.c:327:2
	mov	x0, x19
	.loc	151 326 37              // kernel/block/mas_blk_latency.c:326:37
	str	wzr, [x19, #232]
	.loc	151 327 2               // kernel/block/mas_blk_latency.c:327:2
	bl	bio_put
	.loc	151 328 1               // kernel/block/mas_blk_latency.c:328:1
	ldp	x29, x30, [sp, #48]     // 16-byte Folded Reload
	ldp	x20, x19, [sp, #32]     // 16-byte Folded Reload
.Ltmp159:
	ldp	x22, x21, [sp, #16]     // 16-byte Folded Reload
	ldr	x23, [sp], #64          // 8-byte Folded Reload
	ret
.LBB4_17:
.Ltmp160:
	//DEBUG_VALUE: mas_blk_latency_check_timer_expire:flags <- $x20
	//DEBUG_VALUE: mas_blk_latency_check_timer_expire:data <- $x19
	//DEBUG_VALUE: mas_blk_latency_check_timer_expire:bio <- $x19
	.loc	151 292 3               // kernel/block/mas_blk_latency.c:292:3
	adrp	x0, .L.str.19
	adrp	x1, .L__func__.mas_blk_latency_check_timer_expire
	add	x0, x0, :lo12:.L.str.19
	add	x1, x1, :lo12:.L__func__.mas_blk_latency_check_timer_expire
	mov	w2, #293
	bl	printk
	b	.LBB4_16
.Ltmp161:
.Lfunc_end4:
	.size	mas_blk_latency_check_timer_expire, .Lfunc_end4-mas_blk_latency_check_timer_expire
	.cfi_endproc
                                        // -- End function
	.section	.text.mas_blk_latency_bio_check,"ax",@progbits
	.hidden	mas_blk_latency_bio_check // -- Begin function mas_blk_latency_bio_check
	.globl	mas_blk_latency_bio_check
	.p2align	2
	.type	mas_blk_latency_bio_check,@function
mas_blk_latency_bio_check:              // @mas_blk_latency_bio_check
.Lfunc_begin5:
	.loc	151 335 0               // kernel/block/mas_blk_latency.c:335:0
	.cfi_startproc
// %bb.0:
	//DEBUG_VALUE: mas_blk_latency_bio_check:bio <- $x0
	//DEBUG_VALUE: mas_blk_latency_bio_check:bio_stage <- $w1
	stp	x20, x19, [sp, #-32]!   // 16-byte Folded Spill
	stp	x29, x30, [sp, #16]     // 16-byte Folded Spill
	add	x29, sp, #16            // =16
	.cfi_def_cfa w29, 16
	.cfi_offset w30, -8
	.cfi_offset w29, -16
	.cfi_offset w19, -24
	.cfi_offset w20, -32
	mov	x19, x0
	//DEBUG_VALUE: mas_blk_latency_bio_check:bio_stage <- $w1
.Ltmp162:
	//DEBUG_VALUE: mas_blk_latency_bio_check:bio <- $x19
	.loc	151 336 6 prologue_end  // kernel/block/mas_blk_latency.c:336:6
	cbz	w1, .LBB5_3
.Ltmp163:
// %bb.1:
	//DEBUG_VALUE: mas_blk_latency_bio_check:bio <- $x19
	//DEBUG_VALUE: mas_blk_latency_bio_check:bio_stage <- $w1
	ldrb	w8, [x19, #145]
.Ltmp164:
	.loc	151 336 6 is_stmt 0     // kernel/block/mas_blk_latency.c:336:6
	cmp	w8, #76                 // =76
	b.ne	.LBB5_6
.Ltmp165:
// %bb.2:
	//DEBUG_VALUE: mas_blk_latency_bio_check:bio <- $x19
	//DEBUG_VALUE: mas_blk_latency_bio_check:bio_stage <- $w1
	.loc	151 340 6 is_stmt 1     // kernel/block/mas_blk_latency.c:340:6
	cmp	w1, #1                  // =1
.Ltmp166:
	.loc	151 340 6 is_stmt 0     // kernel/block/mas_blk_latency.c:340:6
	mov	w20, w1
.Ltmp167:
	.loc	151 340 6               // kernel/block/mas_blk_latency.c:340:6
	b.ls	.LBB5_4
	b	.LBB5_5
.Ltmp168:
.LBB5_3:
	//DEBUG_VALUE: mas_blk_latency_bio_check:bio <- $x19
	//DEBUG_VALUE: mas_blk_latency_bio_check:bio_stage <- $w1
	.loc	151 0 6                 // kernel/block/mas_blk_latency.c:0:6
	mov	x20, xzr
.Ltmp169:
.LBB5_4:
	//DEBUG_VALUE: mas_blk_latency_bio_check:bio <- $x19
	//DEBUG_VALUE: mas_blk_latency_bio_check:bio_stage <- $w1
	.loc	151 340 31              // kernel/block/mas_blk_latency.c:340:31
	adrp	x8, bio_stage_cfg
	add	x8, x8, :lo12:bio_stage_cfg
	add	x8, x8, x20, lsl #4
	ldr	x8, [x8, #8]
	.loc	151 341 3 is_stmt 1     // kernel/block/mas_blk_latency.c:341:3
	mov	x0, x19
	blr	x8
.Ltmp170:
.LBB5_5:
	//DEBUG_VALUE: mas_blk_latency_bio_check:bio <- $x19
	.loc	151 343 44              // kernel/block/mas_blk_latency.c:343:44
	bl	ktime_get
	.loc	151 343 2 is_stmt 0     // kernel/block/mas_blk_latency.c:343:2
	add	x8, x19, x20, lsl #3
	.loc	151 343 42              // kernel/block/mas_blk_latency.c:343:42
	str	x0, [x8, #152]
.Ltmp171:
.LBB5_6:
	//DEBUG_VALUE: mas_blk_latency_bio_check:bio <- $x19
	.loc	151 344 1 is_stmt 1     // kernel/block/mas_blk_latency.c:344:1
	ldp	x29, x30, [sp, #16]     // 16-byte Folded Reload
	ldp	x20, x19, [sp], #32     // 16-byte Folded Reload
.Ltmp172:
	ret
.Ltmp173:
.Lfunc_end5:
	.size	mas_blk_latency_bio_check, .Lfunc_end5-mas_blk_latency_bio_check
	.cfi_endproc
                                        // -- End function
	.section	.text.mas_blk_latency_req_check,"ax",@progbits
	.hidden	mas_blk_latency_req_check // -- Begin function mas_blk_latency_req_check
	.globl	mas_blk_latency_req_check
	.p2align	2
	.type	mas_blk_latency_req_check,@function
mas_blk_latency_req_check:              // @mas_blk_latency_req_check
.Lfunc_begin6:
	.loc	151 351 0               // kernel/block/mas_blk_latency.c:351:0
	.cfi_startproc
// %bb.0:
	//DEBUG_VALUE: mas_blk_latency_req_check:req <- $x0
	//DEBUG_VALUE: mas_blk_latency_req_check:req_stage <- $w1
	stp	x20, x19, [sp, #-32]!   // 16-byte Folded Spill
	stp	x29, x30, [sp, #16]     // 16-byte Folded Spill
	add	x29, sp, #16            // =16
	.cfi_def_cfa w29, 16
	.cfi_offset w30, -8
	.cfi_offset w29, -16
	.cfi_offset w19, -24
	.cfi_offset w20, -32
	mov	x19, x0
	//DEBUG_VALUE: mas_blk_latency_req_check:req_stage <- $w1
.Ltmp174:
	//DEBUG_VALUE: mas_blk_latency_req_check:req <- $x19
	.loc	151 352 6 prologue_end  // kernel/block/mas_blk_latency.c:352:6
	cbz	w1, .LBB6_4
.Ltmp175:
// %bb.1:
	//DEBUG_VALUE: mas_blk_latency_req_check:req <- $x19
	//DEBUG_VALUE: mas_blk_latency_req_check:req_stage <- $w1
	ldrb	w8, [x19, #280]
.Ltmp176:
	.loc	151 352 6 is_stmt 0     // kernel/block/mas_blk_latency.c:352:6
	cmp	w8, #76                 // =76
	b.ne	.LBB6_8
.Ltmp177:
// %bb.2:
	//DEBUG_VALUE: mas_blk_latency_req_check:req <- $x19
	//DEBUG_VALUE: mas_blk_latency_req_check:req_stage <- $w1
	.loc	151 356 6 is_stmt 1     // kernel/block/mas_blk_latency.c:356:6
	cmp	w1, #14                 // =14
	b.ne	.LBB6_6
.Ltmp178:
// %bb.3:
	//DEBUG_VALUE: mas_blk_latency_req_check:req <- $x19
	//DEBUG_VALUE: mas_blk_latency_req_check:req_stage <- $w1
	.loc	151 0 6 is_stmt 0       // kernel/block/mas_blk_latency.c:0:6
	orr	w20, wzr, #0xe
	b	.LBB6_5
.Ltmp179:
.LBB6_4:
	//DEBUG_VALUE: mas_blk_latency_req_check:req <- $x19
	//DEBUG_VALUE: mas_blk_latency_req_check:req_stage <- $w1
	mov	x20, xzr
.Ltmp180:
.LBB6_5:
	//DEBUG_VALUE: mas_blk_latency_req_check:req <- $x19
	//DEBUG_VALUE: mas_blk_latency_req_check:req_stage <- $w1
	.loc	151 356 6               // kernel/block/mas_blk_latency.c:356:6
	adrp	x8, req_stage_cfg
	add	x8, x8, :lo12:req_stage_cfg
	add	x8, x8, x20, lsl #4
	ldr	x8, [x8, #8]
	.loc	151 357 3 is_stmt 1     // kernel/block/mas_blk_latency.c:357:3
	mov	x0, x19
	blr	x8
.Ltmp181:
	.loc	151 0 3 is_stmt 0       // kernel/block/mas_blk_latency.c:0:3
	b	.LBB6_7
.Ltmp182:
.LBB6_6:
	//DEBUG_VALUE: mas_blk_latency_req_check:req <- $x19
	//DEBUG_VALUE: mas_blk_latency_req_check:req_stage <- $w1
	mov	w20, w1
.Ltmp183:
.LBB6_7:
	//DEBUG_VALUE: mas_blk_latency_req_check:req <- $x19
	.loc	151 359 44 is_stmt 1    // kernel/block/mas_blk_latency.c:359:44
	bl	ktime_get
	.loc	151 359 2 is_stmt 0     // kernel/block/mas_blk_latency.c:359:2
	add	x8, x19, x20, lsl #3
	.loc	151 359 42              // kernel/block/mas_blk_latency.c:359:42
	str	x0, [x8, #304]
.Ltmp184:
.LBB6_8:
	//DEBUG_VALUE: mas_blk_latency_req_check:req <- $x19
	.loc	151 360 1 is_stmt 1     // kernel/block/mas_blk_latency.c:360:1
	ldp	x29, x30, [sp, #16]     // 16-byte Folded Reload
	ldp	x20, x19, [sp], #32     // 16-byte Folded Reload
.Ltmp185:
	ret
.Ltmp186:
.Lfunc_end6:
	.size	mas_blk_latency_req_check, .Lfunc_end6-mas_blk_latency_req_check
	.cfi_endproc
                                        // -- End function
	.section	.text.mas_blk_latency_for_merge,"ax",@progbits
	.hidden	mas_blk_latency_for_merge // -- Begin function mas_blk_latency_for_merge
	.globl	mas_blk_latency_for_merge
	.p2align	2
	.type	mas_blk_latency_for_merge,@function
mas_blk_latency_for_merge:              // @mas_blk_latency_for_merge
.Lfunc_begin7:
	.loc	151 367 0               // kernel/block/mas_blk_latency.c:367:0
	.cfi_startproc
// %bb.0:
	//DEBUG_VALUE: mas_blk_latency_for_merge:req <- $x0
	//DEBUG_VALUE: mas_blk_latency_for_merge:next <- $x1
	//DEBUG_VALUE: mas_blk_latency_for_merge:next <- $x1
	.loc	151 0 0 prologue_end    // kernel/block/mas_blk_latency.c:0:0
	ldr	x8, [x1, #120]
.Ltmp187:
	//DEBUG_VALUE: mas_blk_latency_for_merge:bio <- 0
	//DEBUG_VALUE: mas_blk_latency_for_merge:bio <- $x8
	//DEBUG_VALUE: mas_blk_latency_for_merge:req <- $x0
	.loc	151 371 2               // kernel/block/mas_blk_latency.c:371:2
	cbz	x8, .LBB7_2
.Ltmp188:
.LBB7_1:                                // =>This Inner Loop Header: Depth=1
	//DEBUG_VALUE: mas_blk_latency_for_merge:bio <- $x8
	//DEBUG_VALUE: mas_blk_latency_for_merge:next <- $x1
	//DEBUG_VALUE: mas_blk_latency_for_merge:req <- $x0
	.loc	151 372 23              // kernel/block/mas_blk_latency.c:372:23
	str	x0, [x8, #104]
.Ltmp189:
	.loc	151 0 0 is_stmt 0       // kernel/block/mas_blk_latency.c:0:0
	ldr	x8, [x8]
.Ltmp190:
	//DEBUG_VALUE: mas_blk_latency_for_merge:bio <- $x8
	.loc	151 371 2 is_stmt 1     // kernel/block/mas_blk_latency.c:371:2
	cbnz	x8, .LBB7_1
.Ltmp191:
.LBB7_2:
	//DEBUG_VALUE: mas_blk_latency_for_merge:bio <- $x8
	//DEBUG_VALUE: mas_blk_latency_for_merge:next <- $x1
	//DEBUG_VALUE: mas_blk_latency_for_merge:req <- $x0
	.loc	151 375 1               // kernel/block/mas_blk_latency.c:375:1
	ret
.Ltmp192:
.Lfunc_end7:
	.size	mas_blk_latency_for_merge, .Lfunc_end7-mas_blk_latency_for_merge
	.cfi_endproc
                                        // -- End function
	.section	.text.mas_blk_queue_latency_init,"ax",@progbits
	.hidden	mas_blk_queue_latency_init // -- Begin function mas_blk_queue_latency_init
	.globl	mas_blk_queue_latency_init
	.p2align	2
	.type	mas_blk_queue_latency_init,@function
mas_blk_queue_latency_init:             // @mas_blk_queue_latency_init
.Lfunc_begin8:
	.loc	151 378 0               // kernel/block/mas_blk_latency.c:378:0
	.cfi_startproc
// %bb.0:
	//DEBUG_VALUE: mas_blk_queue_latency_init:q <- $x0
	str	x19, [sp, #-32]!        // 8-byte Folded Spill
	stp	x29, x30, [sp, #16]     // 16-byte Folded Spill
	add	x29, sp, #16            // =16
	.cfi_def_cfa w29, 16
	.cfi_offset w30, -8
	.cfi_offset w29, -16
	.cfi_offset w19, -32
	mov	x19, x0
.Ltmp193:
	//DEBUG_VALUE: mas_blk_queue_latency_init:q <- $x19
	.loc	151 379 32 prologue_end // kernel/block/mas_blk_latency.c:379:32
	bl	mas_blk_get_lld
.Ltmp194:
	//DEBUG_VALUE: mas_blk_queue_latency_init:blk_lld <- $x0
	.loc	151 381 16              // kernel/block/mas_blk_latency.c:381:16
	ldr	w8, [x0, #48]
.Ltmp195:
	.loc	151 381 6 is_stmt 0     // kernel/block/mas_blk_latency.c:381:6
	cbnz	w8, .LBB8_2
.Ltmp196:
// %bb.1:
	//DEBUG_VALUE: mas_blk_queue_latency_init:blk_lld <- $x0
	//DEBUG_VALUE: mas_blk_queue_latency_init:q <- $x19
	.loc	151 0 6                 // kernel/block/mas_blk_latency.c:0:6
	mov	w8, #2000
.Ltmp197:
	.loc	151 382 41 is_stmt 1    // kernel/block/mas_blk_latency.c:382:41
	str	w8, [x0, #48]
.Ltmp198:
.LBB8_2:
	//DEBUG_VALUE: mas_blk_queue_latency_init:blk_lld <- $x0
	//DEBUG_VALUE: mas_blk_queue_latency_init:q <- $x19
	.loc	151 383 37              // kernel/block/mas_blk_latency.c:383:37
	str	w8, [x19, #1704]
	.loc	151 386 12              // kernel/block/mas_blk_latency.c:386:12
	ldr	w8, [x0, #24]
	.loc	151 386 3 is_stmt 0     // kernel/block/mas_blk_latency.c:386:3
	ubfx	w8, w8, #1, #1
	.loc	151 385 33 is_stmt 1    // kernel/block/mas_blk_latency.c:385:33
	str	w8, [x19, #1700]
	.loc	151 387 1               // kernel/block/mas_blk_latency.c:387:1
	ldp	x29, x30, [sp, #16]     // 16-byte Folded Reload
	ldr	x19, [sp], #32          // 8-byte Folded Reload
.Ltmp199:
	ret
.Ltmp200:
.Lfunc_end8:
	.size	mas_blk_queue_latency_init, .Lfunc_end8-mas_blk_queue_latency_init
	.cfi_endproc
                                        // -- End function
	.section	.init.text,"ax",@progbits
	.hidden	mas_blk_latency_init    // -- Begin function mas_blk_latency_init
	.globl	mas_blk_latency_init
	.p2align	2
	.type	mas_blk_latency_init,@function
mas_blk_latency_init:                   // @mas_blk_latency_init
.Lfunc_begin9:
	.loc	151 390 0               // kernel/block/mas_blk_latency.c:390:0
	.cfi_startproc
// %bb.0:
	stp	x29, x30, [sp, #-16]!   // 16-byte Folded Spill
	mov	x29, sp
	.cfi_def_cfa w29, 16
	.cfi_offset w30, -8
	.cfi_offset w29, -16
.Ltmp201:
	.loc	151 391 2 prologue_end  // kernel/block/mas_blk_latency.c:391:2
	adrp	x0, latency_log_protect_lock
	adrp	x1, .L.str.22
	adrp	x2, mas_blk_latency_init.__key
	add	x0, x0, :lo12:latency_log_protect_lock
	add	x1, x1, :lo12:.L.str.22
	add	x2, x2, :lo12:mas_blk_latency_init.__key
	bl	__raw_spin_lock_init
.Ltmp202:
	.loc	151 393 2               // kernel/block/mas_blk_latency.c:393:2
	bl	iowp_workqueue_init
	.loc	151 395 1               // kernel/block/mas_blk_latency.c:395:1
	ldp	x29, x30, [sp], #16     // 16-byte Folded Reload
	ret
.Ltmp203:
.Lfunc_end9:
	.size	mas_blk_latency_init, .Lfunc_end9-mas_blk_latency_init
	.cfi_endproc
                                        // -- End function
	.section	.text.blk_mq_tagset_latency_warning_set,"ax",@progbits
	.hidden	blk_mq_tagset_latency_warning_set // -- Begin function blk_mq_tagset_latency_warning_set
	.globl	blk_mq_tagset_latency_warning_set
	.p2align	2
	.type	blk_mq_tagset_latency_warning_set,@function
blk_mq_tagset_latency_warning_set:      // @blk_mq_tagset_latency_warning_set
.Lfunc_begin10:
	.loc	151 403 0               // kernel/block/mas_blk_latency.c:403:0
	.cfi_startproc
// %bb.0:
	//DEBUG_VALUE: blk_mq_tagset_latency_warning_set:tag_set <- $x0
	//DEBUG_VALUE: blk_mq_tagset_latency_warning_set:tag_set <- $x0
	//DEBUG_VALUE: blk_mq_tagset_latency_warning_set:warning_threshold_ms <- $w1
	//DEBUG_VALUE: blk_mq_tagset_latency_warning_set:warning_threshold_ms <- $w1
	.loc	151 404 29 prologue_end // kernel/block/mas_blk_latency.c:404:29
	ldr	x8, [x0, #40]
	.loc	151 405 51              // kernel/block/mas_blk_latency.c:405:51
	cmp	w1, #0                  // =0
	mov	w9, #2000
	csel	w9, w9, w1, eq
	.loc	151 404 29              // kernel/block/mas_blk_latency.c:404:29
	orr	x8, x8, #0x2
	str	x8, [x0, #40]
	.loc	151 405 49              // kernel/block/mas_blk_latency.c:405:49
	str	w9, [x0, #64]
	.loc	151 408 1               // kernel/block/mas_blk_latency.c:408:1
	ret
.Ltmp204:
.Lfunc_end10:
	.size	blk_mq_tagset_latency_warning_set, .Lfunc_end10-blk_mq_tagset_latency_warning_set
	.cfi_endproc
                                        // -- End function
	.section	.text.blk_queue_latency_warning_set,"ax",@progbits
	.hidden	blk_queue_latency_warning_set // -- Begin function blk_queue_latency_warning_set
	.globl	blk_queue_latency_warning_set
	.p2align	2
	.type	blk_queue_latency_warning_set,@function
blk_queue_latency_warning_set:          // @blk_queue_latency_warning_set
.Lfunc_begin11:
	.loc	151 416 0               // kernel/block/mas_blk_latency.c:416:0
	.cfi_startproc
// %bb.0:
	//DEBUG_VALUE: blk_queue_latency_warning_set:q <- $x0
	//DEBUG_VALUE: blk_queue_latency_warning_set:warning_threshold_ms <- $w1
	stp	x20, x19, [sp, #-32]!   // 16-byte Folded Spill
	stp	x29, x30, [sp, #16]     // 16-byte Folded Spill
	add	x29, sp, #16            // =16
	.cfi_def_cfa w29, 16
	.cfi_offset w30, -8
	.cfi_offset w29, -16
	.cfi_offset w19, -24
	.cfi_offset w20, -32
	mov	w19, w1
	mov	x20, x0
.Ltmp205:
	//DEBUG_VALUE: blk_queue_latency_warning_set:warning_threshold_ms <- $w19
	//DEBUG_VALUE: blk_queue_latency_warning_set:q <- $x20
	.loc	151 417 32 prologue_end // kernel/block/mas_blk_latency.c:417:32
	bl	mas_blk_get_lld
.Ltmp206:
	//DEBUG_VALUE: blk_queue_latency_warning_set:blk_lld <- $x0
	.loc	151 419 20              // kernel/block/mas_blk_latency.c:419:20
	ldr	x8, [x0, #24]
	.loc	151 421 3               // kernel/block/mas_blk_latency.c:421:3
	cmp	w19, #0                 // =0
	mov	w9, #2000
	orr	w10, wzr, #0x1
	csel	w9, w9, w19, eq
	.loc	151 419 20              // kernel/block/mas_blk_latency.c:419:20
	orr	x8, x8, #0x2
	.loc	151 420 40              // kernel/block/mas_blk_latency.c:420:40
	str	w9, [x0, #48]
	.loc	151 419 20              // kernel/block/mas_blk_latency.c:419:20
	str	x8, [x0, #24]
	.loc	151 423 37              // kernel/block/mas_blk_latency.c:423:37
	str	w9, [x20, #1704]
	.loc	151 425 33              // kernel/block/mas_blk_latency.c:425:33
	str	w10, [x20, #1700]
	.loc	151 426 1               // kernel/block/mas_blk_latency.c:426:1
	ldp	x29, x30, [sp, #16]     // 16-byte Folded Reload
	ldp	x20, x19, [sp], #32     // 16-byte Folded Reload
.Ltmp207:
	ret
.Ltmp208:
.Lfunc_end11:
	.size	blk_queue_latency_warning_set, .Lfunc_end11-blk_queue_latency_warning_set
	.cfi_endproc
                                        // -- End function
	.section	.text.mas_queue_io_latency_warning_threshold_store,"ax",@progbits
	.hidden	mas_queue_io_latency_warning_threshold_store // -- Begin function mas_queue_io_latency_warning_threshold_store
	.globl	mas_queue_io_latency_warning_threshold_store
	.p2align	2
	.type	mas_queue_io_latency_warning_threshold_store,@function
mas_queue_io_latency_warning_threshold_store: // @mas_queue_io_latency_warning_threshold_store
.Lfunc_begin12:
	.loc	151 458 0               // kernel/block/mas_blk_latency.c:458:0
	.cfi_startproc
// %bb.0:
	//DEBUG_VALUE: mas_queue_io_latency_warning_threshold_store:q <- $x0
	//DEBUG_VALUE: mas_queue_io_latency_warning_threshold_store:page <- $x1
	//DEBUG_VALUE: mas_queue_io_latency_warning_threshold_store:count <- $x2
	sub	sp, sp, #64             // =64
	stp	x22, x21, [sp, #16]     // 16-byte Folded Spill
	stp	x20, x19, [sp, #32]     // 16-byte Folded Spill
	stp	x29, x30, [sp, #48]     // 16-byte Folded Spill
	add	x29, sp, #48            // =48
	.cfi_def_cfa w29, 16
	.cfi_offset w30, -8
	.cfi_offset w29, -16
	.cfi_offset w19, -24
	.cfi_offset w20, -32
	.cfi_offset w21, -40
	.cfi_offset w22, -48
	adrp	x8, __stack_chk_guard
	ldr	x8, [x8, :lo12:__stack_chk_guard]
	mov	x20, x0
.Ltmp209:
	.loc	151 462 8 prologue_end  // kernel/block/mas_blk_latency.c:462:8
	mov	x0, sp
.Ltmp210:
	//DEBUG_VALUE: mas_queue_io_latency_warning_threshold_store:page <- $x1
	.loc	151 0 8 is_stmt 0       // kernel/block/mas_blk_latency.c:0:8
	mov	x19, x2
	str	x8, [sp, #8]
.Ltmp211:
	//DEBUG_VALUE: mas_queue_io_latency_warning_threshold_store:val <- [DW_OP_deref] $sp
	//DEBUG_VALUE: mas_queue_io_latency_warning_threshold_store:count <- $x19
	//DEBUG_VALUE: mas_queue_io_latency_warning_threshold_store:page <- $x1
	//DEBUG_VALUE: mas_queue_io_latency_warning_threshold_store:q <- $x20
	.loc	151 462 8               // kernel/block/mas_blk_latency.c:462:8
	bl	queue_var_store
.Ltmp212:
	//DEBUG_VALUE: mas_queue_io_latency_warning_threshold_store:ret <- $x0
	.loc	151 463 6 is_stmt 1     // kernel/block/mas_blk_latency.c:463:6
	tbnz	x0, #63, .LBB12_4
.Ltmp213:
// %bb.1:
	//DEBUG_VALUE: mas_queue_io_latency_warning_threshold_store:ret <- $x0
	//DEBUG_VALUE: mas_queue_io_latency_warning_threshold_store:q <- $x20
	//DEBUG_VALUE: mas_queue_io_latency_warning_threshold_store:count <- $x19
	//DEBUG_VALUE: mas_queue_io_latency_warning_threshold_store:val <- [DW_OP_deref] $sp
	.loc	151 464 3               // kernel/block/mas_blk_latency.c:464:3
	ldr	x2, [sp]
.Ltmp214:
	//DEBUG_VALUE: mas_queue_io_latency_warning_threshold_store:val <- $x2
	adrp	x0, .L.str.23
.Ltmp215:
	adrp	x1, .L__func__.mas_queue_io_latency_warning_threshold_store
	add	x0, x0, :lo12:.L.str.23
	add	x1, x1, :lo12:.L__func__.mas_queue_io_latency_warning_threshold_store
	bl	printk
.Ltmp216:
	.loc	151 467 31              // kernel/block/mas_blk_latency.c:467:31
	ldr	x21, [sp]
.Ltmp217:
	//DEBUG_VALUE: mas_queue_io_latency_warning_threshold_store:val <- $x21
	.loc	151 431 32              // kernel/block/mas_blk_latency.c:431:32
	mov	x0, x20
.Ltmp218:
	.loc	151 467 31              // kernel/block/mas_blk_latency.c:467:31
	cmp	x21, #0                 // =0
	cset	w22, ne
.Ltmp219:
	//DEBUG_VALUE: mas_blk_queue_io_latency_check_enable:q <- $x20
	//DEBUG_VALUE: mas_blk_queue_io_latency_check_enable:enable <- $w22
	.loc	151 431 32              // kernel/block/mas_blk_latency.c:431:32
	bl	mas_blk_get_lld
.Ltmp220:
	.loc	151 433 19              // kernel/block/mas_blk_latency.c:433:19
	ldr	w8, [x20, #1700]
.Ltmp221:
	.loc	151 433 6 is_stmt 0     // kernel/block/mas_blk_latency.c:433:6
	cmp	w8, w22
.Ltmp222:
	//DEBUG_VALUE: mas_blk_queue_io_latency_check_enable:blk_lld <- $x0
	b.eq	.LBB12_3
.Ltmp223:
// %bb.2:
	//DEBUG_VALUE: mas_blk_queue_io_latency_check_enable:blk_lld <- $x0
	//DEBUG_VALUE: mas_blk_queue_io_latency_check_enable:enable <- $w22
	//DEBUG_VALUE: mas_blk_queue_io_latency_check_enable:q <- $x20
	//DEBUG_VALUE: mas_queue_io_latency_warning_threshold_store:val <- $x21
	//DEBUG_VALUE: mas_queue_io_latency_warning_threshold_store:q <- $x20
	//DEBUG_VALUE: mas_queue_io_latency_warning_threshold_store:count <- $x19
	.loc	151 436 33 is_stmt 1    // kernel/block/mas_blk_latency.c:436:33
	str	w22, [x20, #1700]
.Ltmp224:
	.loc	151 0 0 is_stmt 0       // kernel/block/mas_blk_latency.c:0:0
	ldr	x8, [x0, #24]
.Ltmp225:
	.loc	151 437 6 is_stmt 1     // kernel/block/mas_blk_latency.c:437:6
	cmp	x21, #0                 // =0
	and	x9, x8, #0xfffffffffffffffd
	orr	x8, x8, #0x2
	csel	x8, x8, x9, ne
.Ltmp226:
	.loc	151 0 0 is_stmt 0       // kernel/block/mas_blk_latency.c:0:0
	str	x8, [x0, #24]
.Ltmp227:
.LBB12_3:
	//DEBUG_VALUE: mas_queue_io_latency_warning_threshold_store:val <- $x21
	//DEBUG_VALUE: mas_queue_io_latency_warning_threshold_store:q <- $x20
	//DEBUG_VALUE: mas_queue_io_latency_warning_threshold_store:count <- $x19
	.loc	151 469 31 is_stmt 1    // kernel/block/mas_blk_latency.c:469:31
	ldr	w21, [sp]
.Ltmp228:
	//DEBUG_VALUE: mas_blk_queue_io_latency_warning_threshold:warning_threshold_ms <- $w21
	//DEBUG_VALUE: mas_blk_queue_io_latency_warning_threshold:q <- $x20
	//DEBUG_VALUE: mas_queue_io_latency_warning_threshold_store:val <- undef
	.loc	151 446 32              // kernel/block/mas_blk_latency.c:446:32
	mov	x0, x20
	bl	mas_blk_get_lld
.Ltmp229:
	//DEBUG_VALUE: mas_blk_queue_io_latency_warning_threshold:blk_lld <- $x0
	.loc	151 449 3               // kernel/block/mas_blk_latency.c:449:3
	cmp	w21, #0                 // =0
	mov	w8, #2000
	csel	w8, w8, w21, eq
	.loc	151 448 40              // kernel/block/mas_blk_latency.c:448:40
	str	w8, [x0, #48]
	.loc	151 451 37              // kernel/block/mas_blk_latency.c:451:37
	str	w8, [x20, #1704]
.Ltmp230:
.LBB12_4:
	//DEBUG_VALUE: mas_queue_io_latency_warning_threshold_store:q <- $x20
	//DEBUG_VALUE: mas_queue_io_latency_warning_threshold_store:count <- $x19
	.loc	151 0 37 is_stmt 0      // kernel/block/mas_blk_latency.c:0:37
	adrp	x9, __stack_chk_guard
	ldr	x8, [sp, #8]
	ldr	x9, [x9, :lo12:__stack_chk_guard]
	cmp	x9, x8
	b.ne	.LBB12_6
.Ltmp231:
// %bb.5:
	//DEBUG_VALUE: mas_queue_io_latency_warning_threshold_store:q <- $x20
	//DEBUG_VALUE: mas_queue_io_latency_warning_threshold_store:count <- $x19
	.loc	151 472 2 is_stmt 1     // kernel/block/mas_blk_latency.c:472:2
	mov	x0, x19
	ldp	x29, x30, [sp, #48]     // 16-byte Folded Reload
	ldp	x20, x19, [sp, #32]     // 16-byte Folded Reload
.Ltmp232:
	ldp	x22, x21, [sp, #16]     // 16-byte Folded Reload
	add	sp, sp, #64             // =64
	ret
.Ltmp233:
.LBB12_6:
	//DEBUG_VALUE: mas_queue_io_latency_warning_threshold_store:q <- $x20
	//DEBUG_VALUE: mas_queue_io_latency_warning_threshold_store:count <- $x19
	.loc	151 0 2 is_stmt 0       // kernel/block/mas_blk_latency.c:0:2
	bl	__stack_chk_fail
.Lfunc_end12:
	.size	mas_queue_io_latency_warning_threshold_store, .Lfunc_end12-mas_queue_io_latency_warning_threshold_store
	.cfi_endproc
                                        // -- End function
	.type	.L.str,@object          // @.str
	.section	.rodata.str1.1,"aMS",@progbits,1
.L.str:
	.asciz	"BIO_SUBMIT"
	.size	.L.str, 11

	.type	.L.str.1,@object        // @.str.1
.L.str.1:
	.asciz	"BIO_END"
	.size	.L.str.1, 8

	.type	.L.str.2,@object        // @.str.2
.L.str.2:
	.asciz	"BIO_MAKE_REQ"
	.size	.L.str.2, 13

	.type	.L.str.3,@object        // @.str.3
.L.str.3:
	.asciz	"BIO_WBT_DONE"
	.size	.L.str.3, 13

	.hidden	bio_stage_cfg           // @bio_stage_cfg
	.type	bio_stage_cfg,@object
	.section	.rodata.bio_stage_cfg,"a",@progbits
	.globl	bio_stage_cfg
	.p2align	3
bio_stage_cfg:
	.xword	.L.str
	.xword	mas_blk_latency_bio_submit_func
	.xword	.L.str.1
	.xword	mas_blk_latency_bio_endio_func
	.xword	.L.str.2
	.xword	0
	.xword	.L.str.3
	.xword	0
	.size	bio_stage_cfg, 64

	.type	.L.str.4,@object        // @.str.4
	.section	.rodata.str1.1,"aMS",@progbits,1
.L.str.4:
	.asciz	"REQ_INIT"
	.size	.L.str.4, 9

	.type	.L.str.5,@object        // @.str.5
.L.str.5:
	.asciz	"FSEQ_PREFLUSH"
	.size	.L.str.5, 14

	.type	.L.str.6,@object        // @.str.6
.L.str.6:
	.asciz	"FSEQ_DATA"
	.size	.L.str.6, 10

	.type	.L.str.7,@object        // @.str.7
.L.str.7:
	.asciz	"FSEQ_POSTFLUSH"
	.size	.L.str.7, 15

	.type	.L.str.8,@object        // @.str.8
.L.str.8:
	.asciz	"FSEQ_DONE"
	.size	.L.str.8, 10

	.type	.L.str.9,@object        // @.str.9
.L.str.9:
	.asciz	"REQ_RQ_START"
	.size	.L.str.9, 13

	.type	.L.str.10,@object       // @.str.10
.L.str.10:
	.asciz	"REQ_MQ_ADDTO_PLUGLIST"
	.size	.L.str.10, 22

	.type	.L.str.11,@object       // @.str.11
.L.str.11:
	.asciz	"REQ_MQ_FLUSH_PLUGLIST"
	.size	.L.str.11, 22

	.type	.L.str.12,@object       // @.str.12
.L.str.12:
	.asciz	"REQ_MQ_ADDTO_SYNC_LIST"
	.size	.L.str.12, 23

	.type	.L.str.13,@object       // @.str.13
.L.str.13:
	.asciz	"REQ_MQ_ADDTO_ASYNC_LIST"
	.size	.L.str.13, 24

	.type	.L.str.14,@object       // @.str.14
.L.str.14:
	.asciz	"REQ_MQ_QUEUE_RQ"
	.size	.L.str.14, 16

	.type	.L.str.15,@object       // @.str.15
.L.str.15:
	.asciz	"REQ_SQ_REQUEUE"
	.size	.L.str.15, 15

	.type	.L.str.16,@object       // @.str.16
.L.str.16:
	.asciz	"REQ_SCSI_SFT_IRQ_DONE"
	.size	.L.str.16, 22

	.type	.L.str.17,@object       // @.str.17
.L.str.17:
	.asciz	"REQ_RQ_UPDATE"
	.size	.L.str.17, 14

	.type	.L.str.18,@object       // @.str.18
.L.str.18:
	.asciz	"REQ_RQ_FREE"
	.size	.L.str.18, 12

	.hidden	req_stage_cfg           // @req_stage_cfg
	.type	req_stage_cfg,@object
	.section	.rodata.req_stage_cfg,"a",@progbits
	.globl	req_stage_cfg
	.p2align	3
req_stage_cfg:
	.xword	.L.str.4
	.xword	mas_blk_latency_req_init_func
	.xword	.L.str.5
	.xword	0
	.xword	.L.str.6
	.xword	0
	.xword	.L.str.7
	.xword	0
	.xword	.L.str.8
	.xword	0
	.xword	.L.str.9
	.xword	0
	.xword	.L.str.10
	.xword	0
	.xword	.L.str.11
	.xword	0
	.xword	.L.str.12
	.xword	0
	.xword	.L.str.13
	.xword	0
	.xword	.L.str.14
	.xword	0
	.xword	.L.str.15
	.xword	0
	.xword	.L.str.16
	.xword	0
	.xword	.L.str.17
	.xword	0
	.xword	.L.str.18
	.xword	mas_blk_latency_req_free_func
	.size	req_stage_cfg, 240

	.type	latency_log_protect_lock,@object // @latency_log_protect_lock
	.section	.bss.latency_log_protect_lock,"aw",@nobits
	.p2align	3
latency_log_protect_lock:
	.zero	24
	.size	latency_log_protect_lock, 24

	.type	.L.str.19,@object       // @.str.19
	.section	.rodata.str1.1,"aMS",@progbits,1
.L.str.19:
	.asciz	"\0013[BLK-IO]%s %d Invalid fs_io_flag: 0x%x\n"
	.size	.L.str.19, 42

	.type	.L__func__.mas_blk_latency_check_timer_expire,@object // @__func__.mas_blk_latency_check_timer_expire
.L__func__.mas_blk_latency_check_timer_expire:
	.asciz	"mas_blk_latency_check_timer_expire"
	.size	.L__func__.mas_blk_latency_check_timer_expire, 35

	.type	.L.str.20,@object       // @.str.20
.L.str.20:
	.asciz	"\0013[BLK-IO]%s %d Invalid request queue !\n"
	.size	.L.str.20, 41

	.type	latency_log_ratelmt_state,@object // @latency_log_ratelmt_state
	.section	.data.latency_log_ratelmt_state,"aw",@progbits
	.p2align	3
latency_log_ratelmt_state:
	.zero	4
	.word	3735899821              // 0xdead4ead
	.word	4294967295              // 0xffffffff
	.zero	4
	.xword	-1
	.word	750                     // 0x2ee
	.word	5                       // 0x5
	.word	0                       // 0x0
	.word	0                       // 0x0
	.xword	0                       // 0x0
	.xword	0                       // 0x0
	.size	latency_log_ratelmt_state, 56

	.type	.L.str.21,@object       // @.str.21
	.section	.rodata.str1.1,"aMS",@progbits,1
.L.str.21:
	.asciz	"io latency"
	.size	.L.str.21, 11

	.type	mas_blk_latency_init.__key,@object // @mas_blk_latency_init.__key
	.section	.bss.mas_blk_latency_init.__key,"aw",@nobits
mas_blk_latency_init.__key:
	.size	mas_blk_latency_init.__key, 0

	.type	.L.str.22,@object       // @.str.22
	.section	.rodata.str1.1,"aMS",@progbits,1
.L.str.22:
	.asciz	"&(&latency_log_protect_lock)->rlock"
	.size	.L.str.22, 36

	.type	.L.str.23,@object       // @.str.23
.L.str.23:
	.asciz	"\0013[BLK-IO]%s: io latency warning threshold is set to %lu\n"
	.size	.L.str.23, 58

	.type	.L__func__.mas_queue_io_latency_warning_threshold_store,@object // @__func__.mas_queue_io_latency_warning_threshold_store
.L__func__.mas_queue_io_latency_warning_threshold_store:
	.asciz	"mas_queue_io_latency_warning_threshold_store"
	.size	.L__func__.mas_queue_io_latency_warning_threshold_store, 45

	.type	latency_endbio_ratelmt_state,@object // @latency_endbio_ratelmt_state
	.section	.data.latency_endbio_ratelmt_state,"aw",@progbits
	.p2align	3
latency_endbio_ratelmt_state:
	.zero	4
	.word	3735899821              // 0xdead4ead
	.word	4294967295              // 0xffffffff
	.zero	4
	.xword	-1
	.word	1250                    // 0x4e2
	.word	10                      // 0xa
	.word	0                       // 0x0
	.word	0                       // 0x0
	.xword	0                       // 0x0
	.xword	0                       // 0x0
	.size	latency_endbio_ratelmt_state, 56

	.type	.L.str.24,@object       // @.str.24
	.section	.rodata.str1.1,"aMS",@progbits,1
.L.str.24:
	.asciz	"bio timeout"
	.size	.L.str.24, 12

	.type	.L.str.25,@object       // @.str.25
.L.str.25:
	.asciz	"Failed to wait io latency timer"
	.size	.L.str.25, 32
