	.text
	.file	"mas_blk_mq_tag.c"
	.file	1 "/mnt/disk/jenkins/ci/workspace/chipset_pipeline_release/opensource/component_code/vendor/huawei/extra/build/build_script/kirin_kernel_release/kernel/include/linux/kobject_ns.h"
	.file	2 "/mnt/disk/jenkins/ci/workspace/chipset_pipeline_release/opensource/component_code/vendor/huawei/extra/build/build_script/kirin_kernel_release/kernel/include/linux/hrtimer.h"
	.file	3 "/mnt/disk/jenkins/ci/workspace/chipset_pipeline_release/opensource/component_code/vendor/huawei/extra/build/build_script/kirin_kernel_release/kernel/include/linux/module.h"
	.file	4 "/mnt/disk/jenkins/ci/workspace/chipset_pipeline_release/opensource/component_code/vendor/huawei/extra/build/build_script/kirin_kernel_release/kernel/include/linux/quota.h"
	.file	5 "/mnt/disk/jenkins/ci/workspace/chipset_pipeline_release/opensource/component_code/vendor/huawei/extra/build/build_script/kirin_kernel_release/kernel/include/linux/fs.h"
	.file	6 "/mnt/disk/jenkins/ci/workspace/chipset_pipeline_release/opensource/component_code/vendor/huawei/extra/build/build_script/kirin_kernel_release/kernel/include/linux/pid.h"
	.file	7 "/mnt/disk/jenkins/ci/workspace/chipset_pipeline_release/opensource/component_code/vendor/huawei/extra/build/build_script/kirin_kernel_release/kernel/include/linux/device.h"
	.file	8 "/mnt/disk/jenkins/ci/workspace/chipset_pipeline_release/opensource/component_code/vendor/huawei/extra/build/build_script/kirin_kernel_release/kernel/include/linux/pm.h"
	.file	9 "/mnt/disk/jenkins/ci/workspace/chipset_pipeline_release/opensource/component_code/vendor/huawei/extra/build/build_script/kirin_kernel_release/kernel/include/linux/rcu_sync.h"
	.file	10 "/mnt/disk/jenkins/ci/workspace/chipset_pipeline_release/opensource/component_code/vendor/huawei/extra/build/build_script/kirin_kernel_release/kernel/include/linux/migrate_mode.h"
	.file	11 "/mnt/disk/jenkins/ci/workspace/chipset_pipeline_release/opensource/component_code/vendor/huawei/extra/build/build_script/kirin_kernel_release/kernel/include/linux/memremap.h"
	.file	12 "/mnt/disk/jenkins/ci/workspace/chipset_pipeline_release/opensource/component_code/vendor/huawei/extra/build/build_script/kirin_kernel_release/kernel/include/linux/mm.h"
	.file	13 "/mnt/disk/jenkins/ci/workspace/chipset_pipeline_release/opensource/component_code/vendor/huawei/extra/build/build_script/kirin_kernel_release/kernel/include/linux/restart_block.h"
	.file	14 "/mnt/disk/jenkins/ci/workspace/chipset_pipeline_release/opensource/component_code/vendor/huawei/extra/build/build_script/kirin_kernel_release/kernel/include/linux/blkdev.h"
	.file	15 "/mnt/disk/jenkins/ci/workspace/chipset_pipeline_release/opensource/component_code/vendor/huawei/extra/build/build_script/kirin_kernel_release/kernel/include/linux/elevator.h"
	.file	16 "/mnt/disk/jenkins/ci/workspace/chipset_pipeline_release/opensource/component_code/vendor/huawei/extra/build/build_script/kirin_kernel_release/kernel/block/mas_blk.h"
	.file	17 "/mnt/disk/jenkins/ci/workspace/chipset_pipeline_release/opensource/component_code/vendor/huawei/extra/build/build_script/kirin_kernel_release/kernel/include/linux/stddef.h"
	.file	18 "/mnt/disk/jenkins/ci/workspace/chipset_pipeline_release/opensource/component_code/vendor/huawei/extra/build/build_script/kirin_kernel_release/kernel/block/blk-mq-tag.h"
	.file	19 "/mnt/disk/jenkins/ci/workspace/chipset_pipeline_release/opensource/component_code/vendor/huawei/extra/build/build_script/kirin_kernel_release/kernel/include/linux/blk_types.h"
	.file	20 "/mnt/disk/jenkins/ci/workspace/chipset_pipeline_release/opensource/component_code/vendor/huawei/extra/build/build_script/kirin_kernel_release/kernel/include/linux/slab.h"
	.file	21 "/mnt/disk/jenkins/ci/workspace/chipset_pipeline_release/opensource/component_code/vendor/huawei/extra/build/build_script/kirin_kernel_release/kernel/include/linux/types.h"
	.file	22 "/mnt/disk/jenkins/ci/workspace/chipset_pipeline_release/opensource/component_code/vendor/huawei/extra/build/build_script/kirin_kernel_release/kernel/arch/arm64/include/asm/thread_info.h"
	.file	23 "/mnt/disk/jenkins/ci/workspace/chipset_pipeline_release/opensource/component_code/vendor/huawei/extra/build/build_script/kirin_kernel_release/kernel/include/linux/sched.h"
	.file	24 "/mnt/disk/jenkins/ci/workspace/chipset_pipeline_release/opensource/component_code/vendor/huawei/extra/build/build_script/kirin_kernel_release/kernel/include/asm-generic/int-ll64.h"
	.file	25 "/mnt/disk/jenkins/ci/workspace/chipset_pipeline_release/opensource/component_code/vendor/huawei/extra/build/build_script/kirin_kernel_release/kernel/include/uapi/asm-generic/posix_types.h"
	.file	26 "/mnt/disk/jenkins/ci/workspace/chipset_pipeline_release/opensource/component_code/vendor/huawei/extra/build/build_script/kirin_kernel_release/kernel/include/linux/llist.h"
	.file	27 "/mnt/disk/jenkins/ci/workspace/chipset_pipeline_release/opensource/component_code/vendor/huawei/extra/build/build_script/kirin_kernel_release/kernel/include/linux/rbtree.h"
	.file	28 "/mnt/disk/jenkins/ci/workspace/chipset_pipeline_release/opensource/component_code/vendor/huawei/extra/build/build_script/kirin_kernel_release/kernel/include/linux/cpumask.h"
	.file	29 "/mnt/disk/jenkins/ci/workspace/chipset_pipeline_release/opensource/component_code/vendor/huawei/extra/build/build_script/kirin_kernel_release/kernel/arch/arm64/include/asm/spinlock_types.h"
	.file	30 "/mnt/disk/jenkins/ci/workspace/chipset_pipeline_release/opensource/component_code/vendor/huawei/extra/build/build_script/kirin_kernel_release/kernel/include/linux/spinlock_types.h"
	.file	31 "/mnt/disk/jenkins/ci/workspace/chipset_pipeline_release/opensource/component_code/vendor/huawei/extra/build/build_script/kirin_kernel_release/kernel/include/linux/timerqueue.h"
	.file	32 "/mnt/disk/jenkins/ci/workspace/chipset_pipeline_release/opensource/component_code/vendor/huawei/extra/build/build_script/kirin_kernel_release/kernel/include/linux/ktime.h"
	.file	33 "/mnt/disk/jenkins/ci/workspace/chipset_pipeline_release/opensource/component_code/vendor/huawei/extra/build/build_script/kirin_kernel_release/kernel/include/linux/seqlock.h"
	.file	34 "/mnt/disk/jenkins/ci/workspace/chipset_pipeline_release/opensource/component_code/vendor/huawei/extra/build/build_script/kirin_kernel_release/kernel/include/linux/plist.h"
	.file	35 "/mnt/disk/jenkins/ci/workspace/chipset_pipeline_release/opensource/component_code/vendor/huawei/extra/build/build_script/kirin_kernel_release/kernel/include/linux/mm_types.h"
	.file	36 "/mnt/disk/jenkins/ci/workspace/chipset_pipeline_release/opensource/component_code/vendor/huawei/extra/build/build_script/kirin_kernel_release/kernel/arch/arm64/include/asm/pgtable-types.h"
	.file	37 "/mnt/disk/jenkins/ci/workspace/chipset_pipeline_release/opensource/component_code/vendor/huawei/extra/build/build_script/kirin_kernel_release/kernel/include/asm-generic/pgtable-nop4d-hack.h"
	.file	38 "/mnt/disk/jenkins/ci/workspace/chipset_pipeline_release/opensource/component_code/vendor/huawei/extra/build/build_script/kirin_kernel_release/kernel/include/linux/uidgid.h"
	.file	39 "/mnt/disk/jenkins/ci/workspace/chipset_pipeline_release/opensource/component_code/vendor/huawei/extra/build/build_script/kirin_kernel_release/kernel/include/linux/dcache.h"
	.file	40 "/mnt/disk/jenkins/ci/workspace/chipset_pipeline_release/opensource/component_code/vendor/huawei/extra/build/build_script/kirin_kernel_release/kernel/include/linux/list_bl.h"
	.file	41 "/mnt/disk/jenkins/ci/workspace/chipset_pipeline_release/opensource/component_code/vendor/huawei/extra/build/build_script/kirin_kernel_release/kernel/include/linux/lockref.h"
	.file	42 "/mnt/disk/jenkins/ci/workspace/chipset_pipeline_release/opensource/component_code/vendor/huawei/extra/build/build_script/kirin_kernel_release/kernel/include/linux/path.h"
	.file	43 "/mnt/disk/jenkins/ci/workspace/chipset_pipeline_release/opensource/component_code/vendor/huawei/extra/build/build_script/kirin_kernel_release/kernel/include/uapi/asm-generic/int-ll64.h"
	.file	44 "/mnt/disk/jenkins/ci/workspace/chipset_pipeline_release/opensource/component_code/vendor/huawei/extra/build/build_script/kirin_kernel_release/kernel/include/linux/kobject.h"
	.file	45 "/mnt/disk/jenkins/ci/workspace/chipset_pipeline_release/opensource/component_code/vendor/huawei/extra/build/build_script/kirin_kernel_release/kernel/include/linux/sysfs.h"
	.file	46 "/mnt/disk/jenkins/ci/workspace/chipset_pipeline_release/opensource/component_code/vendor/huawei/extra/build/build_script/kirin_kernel_release/kernel/include/linux/kernfs.h"
	.file	47 "/mnt/disk/jenkins/ci/workspace/chipset_pipeline_release/opensource/component_code/vendor/huawei/extra/build/build_script/kirin_kernel_release/kernel/include/linux/radix-tree.h"
	.file	48 "/mnt/disk/jenkins/ci/workspace/chipset_pipeline_release/opensource/component_code/vendor/huawei/extra/build/build_script/kirin_kernel_release/kernel/include/linux/idr.h"
	.file	49 "/mnt/disk/jenkins/ci/workspace/chipset_pipeline_release/opensource/component_code/vendor/huawei/extra/build/build_script/kirin_kernel_release/kernel/include/linux/seq_file.h"
	.file	50 "/mnt/disk/jenkins/ci/workspace/chipset_pipeline_release/opensource/component_code/vendor/huawei/extra/build/build_script/kirin_kernel_release/kernel/include/asm-generic/atomic-long.h"
	.file	51 "/mnt/disk/jenkins/ci/workspace/chipset_pipeline_release/opensource/component_code/vendor/huawei/extra/build/build_script/kirin_kernel_release/kernel/include/linux/mutex.h"
	.file	52 "/mnt/disk/jenkins/ci/workspace/chipset_pipeline_release/opensource/component_code/vendor/huawei/extra/build/build_script/kirin_kernel_release/kernel/include/linux/osq_lock.h"
	.file	53 "/mnt/disk/jenkins/ci/workspace/chipset_pipeline_release/opensource/component_code/vendor/huawei/extra/build/build_script/kirin_kernel_release/kernel/include/linux/wait.h"
	.file	54 "/mnt/disk/jenkins/ci/workspace/chipset_pipeline_release/opensource/component_code/vendor/huawei/extra/build/build_script/kirin_kernel_release/kernel/include/linux/nfs_fs_i.h"
	.file	55 "/mnt/disk/jenkins/ci/workspace/chipset_pipeline_release/opensource/component_code/vendor/huawei/extra/build/build_script/kirin_kernel_release/kernel/include/linux/rwlock_types.h"
	.file	56 "/mnt/disk/jenkins/ci/workspace/chipset_pipeline_release/opensource/component_code/vendor/huawei/extra/build/build_script/kirin_kernel_release/kernel/include/linux/cred.h"
	.file	57 "/mnt/disk/jenkins/ci/workspace/chipset_pipeline_release/opensource/component_code/vendor/huawei/extra/build/build_script/kirin_kernel_release/kernel/include/linux/capability.h"
	.file	58 "/mnt/disk/jenkins/ci/workspace/chipset_pipeline_release/opensource/component_code/vendor/huawei/extra/build/build_script/kirin_kernel_release/kernel/include/linux/refcount.h"
	.file	59 "/mnt/disk/jenkins/ci/workspace/chipset_pipeline_release/opensource/component_code/vendor/huawei/extra/build/build_script/kirin_kernel_release/kernel/include/linux/key.h"
	.file	60 "/mnt/disk/jenkins/ci/workspace/chipset_pipeline_release/opensource/component_code/vendor/huawei/extra/build/build_script/kirin_kernel_release/kernel/include/linux/rwsem.h"
	.file	61 "/mnt/disk/jenkins/ci/workspace/chipset_pipeline_release/opensource/component_code/vendor/huawei/extra/build/build_script/kirin_kernel_release/kernel/include/linux/assoc_array.h"
	.file	62 "/mnt/disk/jenkins/ci/workspace/chipset_pipeline_release/opensource/component_code/vendor/huawei/extra/build/build_script/kirin_kernel_release/kernel/include/linux/sched/user.h"
	.file	63 "/mnt/disk/jenkins/ci/workspace/chipset_pipeline_release/opensource/component_code/vendor/huawei/extra/build/build_script/kirin_kernel_release/kernel/include/linux/errseq.h"
	.file	64 "/mnt/disk/jenkins/ci/workspace/chipset_pipeline_release/opensource/component_code/vendor/huawei/extra/build/build_script/kirin_kernel_release/kernel/include/linux/kref.h"
	.file	65 "/mnt/disk/jenkins/ci/workspace/chipset_pipeline_release/opensource/component_code/vendor/huawei/extra/build/build_script/kirin_kernel_release/kernel/include/linux/completion.h"
	.file	66 "/mnt/disk/jenkins/ci/workspace/chipset_pipeline_release/opensource/component_code/vendor/huawei/extra/build/build_script/kirin_kernel_release/kernel/include/linux/export.h"
	.file	67 "/mnt/disk/jenkins/ci/workspace/chipset_pipeline_release/opensource/component_code/vendor/huawei/extra/build/build_script/kirin_kernel_release/kernel/include/linux/cfi.h"
	.file	68 "/mnt/disk/jenkins/ci/workspace/chipset_pipeline_release/opensource/component_code/vendor/huawei/extra/build/build_script/kirin_kernel_release/kernel/include/linux/moduleparam.h"
	.file	69 "/mnt/disk/jenkins/ci/workspace/chipset_pipeline_release/opensource/component_code/vendor/huawei/extra/build/build_script/kirin_kernel_release/kernel/arch/arm64/include/asm/extable.h"
	.file	70 "/mnt/disk/jenkins/ci/workspace/chipset_pipeline_release/opensource/component_code/vendor/huawei/extra/build/build_script/kirin_kernel_release/kernel/include/linux/rbtree_latch.h"
	.file	71 "/mnt/disk/jenkins/ci/workspace/chipset_pipeline_release/opensource/component_code/vendor/huawei/extra/build/build_script/kirin_kernel_release/kernel/include/uapi/linux/elf.h"
	.file	72 "/mnt/disk/jenkins/ci/workspace/chipset_pipeline_release/opensource/component_code/vendor/huawei/extra/build/build_script/kirin_kernel_release/kernel/arch/arm64/include/asm/module.h"
	.file	73 "/mnt/disk/jenkins/ci/workspace/chipset_pipeline_release/opensource/component_code/vendor/huawei/extra/build/build_script/kirin_kernel_release/kernel/include/uapi/linux/types.h"
	.file	74 "/mnt/disk/jenkins/ci/workspace/chipset_pipeline_release/opensource/component_code/vendor/huawei/extra/build/build_script/kirin_kernel_release/kernel/include/asm-generic/bug.h"
	.file	75 "/mnt/disk/jenkins/ci/workspace/chipset_pipeline_release/opensource/component_code/vendor/huawei/extra/build/build_script/kirin_kernel_release/kernel/include/linux/tracepoint-defs.h"
	.file	76 "/mnt/disk/jenkins/ci/workspace/chipset_pipeline_release/opensource/component_code/vendor/huawei/extra/build/build_script/kirin_kernel_release/kernel/include/linux/jump_label.h"
	.file	77 "/mnt/disk/jenkins/ci/workspace/chipset_pipeline_release/opensource/component_code/vendor/huawei/extra/build/build_script/kirin_kernel_release/kernel/include/linux/lockdep.h"
	.file	78 "/mnt/disk/jenkins/ci/workspace/chipset_pipeline_release/opensource/component_code/vendor/huawei/extra/build/build_script/kirin_kernel_release/kernel/include/linux/projid.h"
	.file	79 "/mnt/disk/jenkins/ci/workspace/chipset_pipeline_release/opensource/component_code/vendor/huawei/extra/build/build_script/kirin_kernel_release/kernel/include/linux/time64.h"
	.file	80 "/mnt/disk/jenkins/ci/workspace/chipset_pipeline_release/opensource/component_code/vendor/huawei/extra/build/build_script/kirin_kernel_release/kernel/include/linux/shrinker.h"
	.file	81 "/mnt/disk/jenkins/ci/workspace/chipset_pipeline_release/opensource/component_code/vendor/huawei/extra/build/build_script/kirin_kernel_release/kernel/include/linux/genhd.h"
	.file	82 "/mnt/disk/jenkins/ci/workspace/chipset_pipeline_release/opensource/component_code/vendor/huawei/extra/build/build_script/kirin_kernel_release/kernel/include/linux/pm_wakeup.h"
	.file	83 "/mnt/disk/jenkins/ci/workspace/chipset_pipeline_release/opensource/component_code/vendor/huawei/extra/build/build_script/kirin_kernel_release/kernel/include/linux/timer.h"
	.file	84 "/mnt/disk/jenkins/ci/workspace/chipset_pipeline_release/opensource/component_code/vendor/huawei/extra/build/build_script/kirin_kernel_release/kernel/include/linux/workqueue.h"
	.file	85 "/mnt/disk/jenkins/ci/workspace/chipset_pipeline_release/opensource/component_code/vendor/huawei/extra/build/build_script/kirin_kernel_release/kernel/include/linux/pinctrl/devinfo.h"
	.file	86 "/mnt/disk/jenkins/ci/workspace/chipset_pipeline_release/opensource/component_code/vendor/huawei/extra/build/build_script/kirin_kernel_release/kernel/arch/arm64/include/asm/device.h"
	.file	87 "/mnt/disk/jenkins/ci/workspace/chipset_pipeline_release/opensource/component_code/vendor/huawei/extra/build/build_script/kirin_kernel_release/kernel/include/linux/klist.h"
	.file	88 "/mnt/disk/jenkins/ci/workspace/chipset_pipeline_release/opensource/component_code/vendor/huawei/extra/build/build_script/kirin_kernel_release/kernel/include/linux/percpu-refcount.h"
	.file	89 "/mnt/disk/jenkins/ci/workspace/chipset_pipeline_release/opensource/component_code/vendor/huawei/extra/build/build_script/kirin_kernel_release/kernel/include/linux/smp.h"
	.file	90 "/mnt/disk/jenkins/ci/workspace/chipset_pipeline_release/opensource/component_code/vendor/huawei/extra/build/build_script/kirin_kernel_release/kernel/block/blk-mq.h"
	.file	91 "/mnt/disk/jenkins/ci/workspace/chipset_pipeline_release/opensource/component_code/vendor/huawei/extra/build/build_script/kirin_kernel_release/kernel/include/linux/bvec.h"
	.file	92 "/mnt/disk/jenkins/ci/workspace/chipset_pipeline_release/opensource/component_code/vendor/huawei/extra/build/build_script/kirin_kernel_release/kernel/include/uapi/linux/time.h"
	.file	93 "/mnt/disk/jenkins/ci/workspace/chipset_pipeline_release/opensource/component_code/vendor/huawei/extra/build/build_script/kirin_kernel_release/kernel/include/linux/iocontext.h"
	.file	94 "/mnt/disk/jenkins/ci/workspace/chipset_pipeline_release/opensource/component_code/vendor/huawei/extra/build/build_script/kirin_kernel_release/kernel/include/linux/bio.h"
	.file	95 "/mnt/disk/jenkins/ci/workspace/chipset_pipeline_release/opensource/component_code/vendor/huawei/extra/build/build_script/kirin_kernel_release/kernel/include/linux/mempool.h"
	.file	96 "/mnt/disk/jenkins/ci/workspace/chipset_pipeline_release/opensource/component_code/vendor/huawei/extra/build/build_script/kirin_kernel_release/kernel/include/linux/blk-mq.h"
	.file	97 "/mnt/disk/jenkins/ci/workspace/chipset_pipeline_release/opensource/component_code/vendor/huawei/extra/build/build_script/kirin_kernel_release/kernel/include/linux/sbitmap.h"
	.file	98 "/mnt/disk/jenkins/ci/workspace/chipset_pipeline_release/opensource/component_code/vendor/huawei/extra/build/build_script/kirin_kernel_release/kernel/include/linux/notifier.h"
	.file	99 "/mnt/disk/jenkins/ci/workspace/chipset_pipeline_release/opensource/component_code/vendor/huawei/extra/build/build_script/kirin_kernel_release/kernel/include/linux/srcutree.h"
	.file	100 "/mnt/disk/jenkins/ci/workspace/chipset_pipeline_release/opensource/component_code/vendor/huawei/extra/build/build_script/kirin_kernel_release/kernel/include/linux/rcu_segcblist.h"
	.file	101 "/mnt/disk/jenkins/ci/workspace/chipset_pipeline_release/opensource/component_code/vendor/huawei/extra/build/build_script/kirin_kernel_release/kernel/include/linux/backing-dev-defs.h"
	.file	102 "/mnt/disk/jenkins/ci/workspace/chipset_pipeline_release/opensource/component_code/vendor/huawei/extra/build/build_script/kirin_kernel_release/kernel/include/linux/percpu_counter.h"
	.file	103 "/mnt/disk/jenkins/ci/workspace/chipset_pipeline_release/opensource/component_code/vendor/huawei/extra/build/build_script/kirin_kernel_release/kernel/include/linux/flex_proportions.h"
	.file	104 "/mnt/disk/jenkins/ci/workspace/chipset_pipeline_release/opensource/component_code/vendor/huawei/extra/build/build_script/kirin_kernel_release/kernel/block/blk-stat.h"
	.file	105 "/mnt/disk/jenkins/ci/workspace/chipset_pipeline_release/opensource/component_code/vendor/huawei/extra/build/build_script/kirin_kernel_release/kernel/include/linux/bsg.h"
	.file	106 "/mnt/disk/jenkins/ci/workspace/chipset_pipeline_release/opensource/component_code/vendor/huawei/extra/build/build_script/kirin_kernel_release/kernel/include/linux/percpu-rwsem.h"
	.file	107 "/mnt/disk/jenkins/ci/workspace/chipset_pipeline_release/opensource/component_code/vendor/huawei/extra/build/build_script/kirin_kernel_release/kernel/include/linux/rcuwait.h"
	.file	108 "/mnt/disk/jenkins/ci/workspace/chipset_pipeline_release/opensource/component_code/vendor/huawei/extra/build/build_script/kirin_kernel_release/kernel/include/linux/uuid.h"
	.file	109 "/mnt/disk/jenkins/ci/workspace/chipset_pipeline_release/opensource/component_code/vendor/huawei/extra/build/build_script/kirin_kernel_release/kernel/include/linux/list_lru.h"
	.file	110 "/mnt/disk/jenkins/ci/workspace/chipset_pipeline_release/opensource/component_code/vendor/huawei/extra/build/build_script/kirin_kernel_release/kernel/include/linux/delayed_call.h"
	.file	111 "/mnt/disk/jenkins/ci/workspace/chipset_pipeline_release/opensource/component_code/vendor/huawei/extra/build/build_script/kirin_kernel_release/kernel/include/linux/stat.h"
	.file	112 "/mnt/disk/jenkins/ci/workspace/chipset_pipeline_release/opensource/component_code/vendor/huawei/extra/build/build_script/kirin_kernel_release/kernel/include/uapi/linux/fiemap.h"
	.file	113 "/mnt/disk/jenkins/ci/workspace/chipset_pipeline_release/opensource/component_code/vendor/huawei/extra/build/build_script/kirin_kernel_release/kernel/include/linux/mmzone.h"
	.file	114 "/mnt/disk/jenkins/ci/workspace/chipset_pipeline_release/opensource/component_code/vendor/huawei/extra/build/build_script/kirin_kernel_release/kernel/include/linux/ioport.h"
	.file	115 "/mnt/disk/jenkins/ci/workspace/chipset_pipeline_release/opensource/component_code/vendor/huawei/extra/build/build_script/kirin_kernel_release/kernel/arch/arm64/include/asm/page.h"
	.file	116 "/mnt/disk/jenkins/ci/workspace/chipset_pipeline_release/opensource/component_code/vendor/huawei/extra/build/build_script/kirin_kernel_release/kernel/include/linux/mm_types_task.h"
	.file	117 "/mnt/disk/jenkins/ci/workspace/chipset_pipeline_release/opensource/component_code/vendor/huawei/extra/build/build_script/kirin_kernel_release/kernel/arch/arm64/include/asm/mmu.h"
	.file	118 "/mnt/disk/jenkins/ci/workspace/chipset_pipeline_release/opensource/component_code/vendor/huawei/extra/build/build_script/kirin_kernel_release/kernel/include/linux/uprobes.h"
	.file	119 "/mnt/disk/jenkins/ci/workspace/chipset_pipeline_release/opensource/component_code/vendor/huawei/extra/build/build_script/kirin_kernel_release/kernel/include/linux/xreclaimer_types.h"
	.file	120 "/mnt/disk/jenkins/ci/workspace/chipset_pipeline_release/opensource/component_code/vendor/huawei/extra/build/build_script/kirin_kernel_release/kernel/arch/arm64/include/asm/compat.h"
	.file	121 "/mnt/disk/jenkins/ci/workspace/chipset_pipeline_release/opensource/component_code/vendor/huawei/extra/build/build_script/kirin_kernel_release/kernel/include/uapi/asm-generic/signal.h"
	.file	122 "/mnt/disk/jenkins/ci/workspace/chipset_pipeline_release/opensource/component_code/vendor/huawei/extra/build/build_script/kirin_kernel_release/kernel/include/linux/signal_types.h"
	.file	123 "/mnt/disk/jenkins/ci/workspace/chipset_pipeline_release/opensource/component_code/vendor/huawei/extra/build/build_script/kirin_kernel_release/kernel/include/linux/seccomp.h"
	.file	124 "/mnt/disk/jenkins/ci/workspace/chipset_pipeline_release/opensource/component_code/vendor/huawei/extra/build/build_script/kirin_kernel_release/kernel/include/uapi/asm-generic/siginfo.h"
	.file	125 "/mnt/disk/jenkins/ci/workspace/chipset_pipeline_release/opensource/component_code/vendor/huawei/extra/build/build_script/kirin_kernel_release/kernel/include/linux/task_io_accounting.h"
	.file	126 "/mnt/disk/jenkins/ci/workspace/chipset_pipeline_release/opensource/component_code/vendor/huawei/extra/build/build_script/kirin_kernel_release/kernel/include/linux/nodemask.h"
	.file	127 "/mnt/disk/jenkins/ci/workspace/chipset_pipeline_release/opensource/component_code/vendor/huawei/extra/build/build_script/kirin_kernel_release/kernel/arch/arm64/include/asm/processor.h"
	.file	128 "/mnt/disk/jenkins/ci/workspace/chipset_pipeline_release/opensource/component_code/vendor/huawei/extra/build/build_script/kirin_kernel_release/kernel/arch/arm64/include/uapi/asm/ptrace.h"
	.file	129 "/mnt/disk/jenkins/ci/workspace/chipset_pipeline_release/opensource/component_code/vendor/huawei/extra/build/build_script/kirin_kernel_release/kernel/arch/arm64/include/asm/fpsimd.h"
	.section	.text.ufs_tagset_tag_busy_iter,"ax",@progbits
	.hidden	ufs_tagset_tag_busy_iter // -- Begin function ufs_tagset_tag_busy_iter
	.globl	ufs_tagset_tag_busy_iter
	.p2align	2
	.type	ufs_tagset_tag_busy_iter,@function
ufs_tagset_tag_busy_iter:               // @ufs_tagset_tag_busy_iter
.Lfunc_begin0:
	.file	130 "/mnt/disk/jenkins/ci/workspace/chipset_pipeline_release/opensource/component_code/vendor/huawei/extra/build/build_script/kirin_kernel_release/kernel/block/mas_blk_mq_tag.c"
	.loc	130 74 0                // kernel/block/mas_blk_mq_tag.c:74:0
	.cfi_sections .debug_frame
	.cfi_startproc
// %bb.0:
	//DEBUG_VALUE: ufs_tagset_tag_busy_iter:hctx <- $x0
	//DEBUG_VALUE: ufs_tagset_tag_busy_iter:fn <- $x1
	//DEBUG_VALUE: ufs_tagset_tag_busy_iter:priv <- $x2
	str	x27, [sp, #-96]!        // 8-byte Folded Spill
	stp	x26, x25, [sp, #16]     // 16-byte Folded Spill
	stp	x24, x23, [sp, #32]     // 16-byte Folded Spill
	stp	x22, x21, [sp, #48]     // 16-byte Folded Spill
	stp	x20, x19, [sp, #64]     // 16-byte Folded Spill
	stp	x29, x30, [sp, #80]     // 16-byte Folded Spill
	add	x29, sp, #80            // =80
	.cfi_def_cfa w29, 16
	.cfi_offset w30, -8
	.cfi_offset w29, -16
	.cfi_offset w19, -24
	.cfi_offset w20, -32
	.cfi_offset w21, -40
	.cfi_offset w22, -48
	.cfi_offset w23, -56
	.cfi_offset w24, -64
	.cfi_offset w25, -72
	.cfi_offset w26, -80
	.cfi_offset w27, -96
.Ltmp0:
	.loc	130 76 35 prologue_end  // kernel/block/mas_blk_mq_tag.c:76:35
	ldr	x24, [x0, #304]
.Ltmp1:
	//DEBUG_VALUE: sbitmap_for_each_set:i <- 0
	//DEBUG_VALUE: sbitmap_for_each_set:data <- undef
	//DEBUG_VALUE: ufs_tagset_bt_for_each:iter_data <- undef
	//DEBUG_VALUE: ufs_tagset_tag_busy_iter:iter_data <- [DW_OP_deref] undef
	//DEBUG_VALUE: ufs_tagset_tag_busy_iter:tags <- $x24
	//DEBUG_VALUE: ufs_tagset_bt_for_each:bt <- [DW_OP_plus_uconst 40, DW_OP_stack_value] $x24
	//DEBUG_VALUE: sbitmap_for_each_set:sb <- [DW_OP_plus_uconst 40, DW_OP_stack_value] $x24
	//DEBUG_VALUE: ufs_tagset_bt_iter:bitmap <- [DW_OP_plus_uconst 40, DW_OP_stack_value] $x24
	//DEBUG_VALUE: ufs_tagset_bt_for_each:bt <- [DW_OP_plus_uconst 152, DW_OP_stack_value] $x24
	//DEBUG_VALUE: sbitmap_for_each_set:sb <- [DW_OP_plus_uconst 152, DW_OP_stack_value] $x24
	//DEBUG_VALUE: ufs_tagset_bt_iter:bitmap <- [DW_OP_plus_uconst 152, DW_OP_stack_value] $x24
	//DEBUG_VALUE: ufs_tagset_bt_for_each:bt <- [DW_OP_plus_uconst 96, DW_OP_stack_value] $x24
	//DEBUG_VALUE: sbitmap_for_each_set:sb <- [DW_OP_plus_uconst 96, DW_OP_stack_value] $x24
	//DEBUG_VALUE: ufs_tagset_bt_iter:bitmap <- [DW_OP_plus_uconst 96, DW_OP_stack_value] $x24
	.loc	130 0 35 is_stmt 0      // kernel/block/mas_blk_mq_tag.c:0:35
	mov	x19, x2
	mov	x20, x0
.Ltmp2:
	//DEBUG_VALUE: ufs_tagset_tag_busy_iter:priv <- $x19
	//DEBUG_VALUE: ufs_tagset_tag_busy_iter:hctx <- $x20
	mov	x21, x1
.Ltmp3:
	//DEBUG_VALUE: ufs_tagset_tag_busy_iter:fn <- $x21
	.loc	97 230 22 is_stmt 1     // kernel/include/linux/sbitmap.h:230:22
	ldr	w8, [x24, #48]
.Ltmp4:
	.loc	97 230 2 is_stmt 0      // kernel/include/linux/sbitmap.h:230:2
	cbz	w8, .LBB0_11
.Ltmp5:
// %bb.1:
	//DEBUG_VALUE: ufs_tagset_tag_busy_iter:fn <- $x21
	//DEBUG_VALUE: ufs_tagset_tag_busy_iter:hctx <- $x20
	//DEBUG_VALUE: ufs_tagset_tag_busy_iter:priv <- $x19
	//DEBUG_VALUE: ufs_tagset_bt_iter:bitmap <- [DW_OP_plus_uconst 96, DW_OP_stack_value] $x24
	//DEBUG_VALUE: sbitmap_for_each_set:sb <- [DW_OP_plus_uconst 96, DW_OP_stack_value] $x24
	//DEBUG_VALUE: ufs_tagset_bt_for_each:bt <- [DW_OP_plus_uconst 96, DW_OP_stack_value] $x24
	//DEBUG_VALUE: ufs_tagset_bt_iter:bitmap <- [DW_OP_plus_uconst 152, DW_OP_stack_value] $x24
	//DEBUG_VALUE: sbitmap_for_each_set:sb <- [DW_OP_plus_uconst 152, DW_OP_stack_value] $x24
	//DEBUG_VALUE: ufs_tagset_bt_for_each:bt <- [DW_OP_plus_uconst 152, DW_OP_stack_value] $x24
	//DEBUG_VALUE: ufs_tagset_bt_iter:bitmap <- [DW_OP_plus_uconst 40, DW_OP_stack_value] $x24
	//DEBUG_VALUE: sbitmap_for_each_set:sb <- [DW_OP_plus_uconst 40, DW_OP_stack_value] $x24
	//DEBUG_VALUE: ufs_tagset_bt_for_each:bt <- [DW_OP_plus_uconst 40, DW_OP_stack_value] $x24
	//DEBUG_VALUE: ufs_tagset_tag_busy_iter:tags <- $x24
	.loc	97 0 2                  // kernel/include/linux/sbitmap.h:0:2
	mov	x25, xzr
.Ltmp6:
.LBB0_2:                                // =>This Loop Header: Depth=1
                                        //     Child Loop BB0_5 Depth 2
	//DEBUG_VALUE: ufs_tagset_tag_busy_iter:fn <- $x21
	//DEBUG_VALUE: ufs_tagset_tag_busy_iter:hctx <- $x20
	//DEBUG_VALUE: ufs_tagset_tag_busy_iter:priv <- $x19
	//DEBUG_VALUE: sbitmap_for_each_set:sb <- [DW_OP_plus_uconst 40, DW_OP_stack_value] $x24
	//DEBUG_VALUE: ufs_tagset_bt_for_each:bt <- [DW_OP_plus_uconst 40, DW_OP_stack_value] $x24
	//DEBUG_VALUE: ufs_tagset_tag_busy_iter:tags <- $x24
	//DEBUG_VALUE: sbitmap_for_each_set:i <- $x25
	.loc	97 231 36 is_stmt 1     // kernel/include/linux/sbitmap.h:231:36
	ldr	x8, [x24, #56]
.Ltmp7:
	.loc	97 234 14               // kernel/include/linux/sbitmap.h:234:14
	add	x22, x8, x25, lsl #6
	ldr	x8, [x22]
.Ltmp8:
	.loc	97 234 7 is_stmt 0      // kernel/include/linux/sbitmap.h:234:7
	cbz	x8, .LBB0_10
.Ltmp9:
// %bb.3:                               //   in Loop: Header=BB0_2 Depth=1
	//DEBUG_VALUE: sbitmap_for_each_set:i <- $x25
	//DEBUG_VALUE: ufs_tagset_tag_busy_iter:fn <- $x21
	//DEBUG_VALUE: ufs_tagset_tag_busy_iter:hctx <- $x20
	//DEBUG_VALUE: ufs_tagset_tag_busy_iter:priv <- $x19
	//DEBUG_VALUE: sbitmap_for_each_set:sb <- [DW_OP_plus_uconst 40, DW_OP_stack_value] $x24
	//DEBUG_VALUE: ufs_tagset_bt_for_each:bt <- [DW_OP_plus_uconst 40, DW_OP_stack_value] $x24
	//DEBUG_VALUE: ufs_tagset_tag_busy_iter:tags <- $x24
	//DEBUG_VALUE: nr <- 0
	.loc	97 240 42 is_stmt 1     // kernel/include/linux/sbitmap.h:240:42
	mov	x26, x22
.Ltmp10:
	.loc	97 238 18               // kernel/include/linux/sbitmap.h:238:18
	ldr	w27, [x24, #44]
.Ltmp11:
	.loc	97 240 42               // kernel/include/linux/sbitmap.h:240:42
	ldr	x1, [x26, #8]!
	.loc	97 240 9 is_stmt 0      // kernel/include/linux/sbitmap.h:240:9
	mov	x0, x22
	mov	x2, xzr
	bl	find_next_bit
.Ltmp12:
	.loc	97 241 20 is_stmt 1     // kernel/include/linux/sbitmap.h:241:20
	ldr	x1, [x26]
.Ltmp13:
	.loc	97 240 9                // kernel/include/linux/sbitmap.h:240:9
	mov	x23, x0
.Ltmp14:
	//DEBUG_VALUE: nr <- undef
	.loc	97 241 8                // kernel/include/linux/sbitmap.h:241:8
	cmp	x1, w23, uxtw
	b.ls	.LBB0_10
.Ltmp15:
// %bb.4:                               //   in Loop: Header=BB0_2 Depth=1
	//DEBUG_VALUE: sbitmap_for_each_set:i <- $x25
	//DEBUG_VALUE: ufs_tagset_tag_busy_iter:fn <- $x21
	//DEBUG_VALUE: ufs_tagset_tag_busy_iter:hctx <- $x20
	//DEBUG_VALUE: ufs_tagset_tag_busy_iter:priv <- $x19
	//DEBUG_VALUE: sbitmap_for_each_set:sb <- [DW_OP_plus_uconst 40, DW_OP_stack_value] $x24
	//DEBUG_VALUE: ufs_tagset_bt_for_each:bt <- [DW_OP_plus_uconst 40, DW_OP_stack_value] $x24
	//DEBUG_VALUE: ufs_tagset_tag_busy_iter:tags <- $x24
	.loc	97 0 8 is_stmt 0        // kernel/include/linux/sbitmap.h:0:8
	lsl	w27, w25, w27
.Ltmp16:
	//DEBUG_VALUE: off <- $w27
.LBB0_5:                                //   Parent Loop BB0_2 Depth=1
                                        // =>  This Inner Loop Header: Depth=2
	//DEBUG_VALUE: off <- $w27
	//DEBUG_VALUE: sbitmap_for_each_set:i <- $x25
	//DEBUG_VALUE: ufs_tagset_tag_busy_iter:fn <- $x21
	//DEBUG_VALUE: ufs_tagset_tag_busy_iter:hctx <- $x20
	//DEBUG_VALUE: ufs_tagset_tag_busy_iter:priv <- $x19
	//DEBUG_VALUE: sbitmap_for_each_set:sb <- [DW_OP_plus_uconst 40, DW_OP_stack_value] $x24
	//DEBUG_VALUE: ufs_tagset_bt_for_each:bt <- [DW_OP_plus_uconst 40, DW_OP_stack_value] $x24
	//DEBUG_VALUE: ufs_tagset_tag_busy_iter:tags <- $x24
	//DEBUG_VALUE: nr <- $w23
	//DEBUG_VALUE: nr <- [DW_OP_plus_uconst 1, DW_OP_stack_value] $w23
	.loc	130 46 35 is_stmt 1     // kernel/block/mas_blk_mq_tag.c:46:35
	ldr	x8, [x20, #304]
.Ltmp17:
	//DEBUG_VALUE: ufs_tagset_bt_iter:rq <- 0
	//DEBUG_VALUE: ufs_tagset_bt_iter:tags <- $x8
	.loc	97 244 20               // kernel/include/linux/sbitmap.h:244:20
	add	w9, w27, w23
.Ltmp18:
	//DEBUG_VALUE: ufs_tagset_bt_iter:hctx <- $x20
	//DEBUG_VALUE: ufs_tagset_bt_iter:iter_data <- undef
	//DEBUG_VALUE: ufs_tagset_bt_iter:data <- undef
	//DEBUG_VALUE: ufs_tagset_bt_iter:bitnr <- $w9
	.loc	130 54 13               // kernel/block/mas_blk_mq_tag.c:54:13
	ldr	x8, [x8, #208]
.Ltmp19:
	.loc	130 54 7 is_stmt 0      // kernel/block/mas_blk_mq_tag.c:54:7
	ldr	x8, [x8, w9, uxtw #3]
.Ltmp20:
	//DEBUG_VALUE: ufs_tagset_bt_iter:rq <- $x8
	//DEBUG_VALUE: ufs_tagset_bt_iter:rq <- 0
	.loc	130 60 9 is_stmt 1      // kernel/block/mas_blk_mq_tag.c:60:9
	cbz	x8, .LBB0_9
.Ltmp21:
// %bb.6:                               //   in Loop: Header=BB0_5 Depth=2
	//DEBUG_VALUE: ufs_tagset_bt_iter:bitnr <- $w9
	//DEBUG_VALUE: ufs_tagset_bt_iter:hctx <- $x20
	//DEBUG_VALUE: nr <- $w23
	//DEBUG_VALUE: off <- $w27
	//DEBUG_VALUE: sbitmap_for_each_set:i <- $x25
	//DEBUG_VALUE: ufs_tagset_tag_busy_iter:fn <- $x21
	//DEBUG_VALUE: ufs_tagset_tag_busy_iter:hctx <- $x20
	//DEBUG_VALUE: ufs_tagset_tag_busy_iter:priv <- $x19
	//DEBUG_VALUE: sbitmap_for_each_set:sb <- [DW_OP_plus_uconst 40, DW_OP_stack_value] $x24
	//DEBUG_VALUE: ufs_tagset_bt_for_each:bt <- [DW_OP_plus_uconst 40, DW_OP_stack_value] $x24
	//DEBUG_VALUE: ufs_tagset_tag_busy_iter:tags <- $x24
	.loc	130 60 33 is_stmt 0     // kernel/block/mas_blk_mq_tag.c:60:33
	cbz	x21, .LBB0_9
.Ltmp22:
// %bb.7:                               //   in Loop: Header=BB0_5 Depth=2
	//DEBUG_VALUE: ufs_tagset_bt_iter:bitnr <- $w9
	//DEBUG_VALUE: ufs_tagset_bt_iter:hctx <- $x20
	//DEBUG_VALUE: nr <- $w23
	//DEBUG_VALUE: off <- $w27
	//DEBUG_VALUE: sbitmap_for_each_set:i <- $x25
	//DEBUG_VALUE: ufs_tagset_tag_busy_iter:fn <- $x21
	//DEBUG_VALUE: ufs_tagset_tag_busy_iter:hctx <- $x20
	//DEBUG_VALUE: ufs_tagset_tag_busy_iter:priv <- $x19
	//DEBUG_VALUE: sbitmap_for_each_set:sb <- [DW_OP_plus_uconst 40, DW_OP_stack_value] $x24
	//DEBUG_VALUE: ufs_tagset_bt_for_each:bt <- [DW_OP_plus_uconst 40, DW_OP_stack_value] $x24
	//DEBUG_VALUE: ufs_tagset_tag_busy_iter:tags <- $x24
	.loc	130 0 0                 // kernel/block/mas_blk_mq_tag.c:0:0
	ldr	x9, [x8, #64]
.Ltmp23:
	ldr	x10, [x20, #192]
	.loc	130 60 33               // kernel/block/mas_blk_mq_tag.c:60:33
	cmp	x9, x10
	b.ne	.LBB0_9
.Ltmp24:
// %bb.8:                               //   in Loop: Header=BB0_5 Depth=2
	//DEBUG_VALUE: ufs_tagset_bt_iter:hctx <- $x20
	//DEBUG_VALUE: nr <- $w23
	//DEBUG_VALUE: off <- $w27
	//DEBUG_VALUE: sbitmap_for_each_set:i <- $x25
	//DEBUG_VALUE: ufs_tagset_tag_busy_iter:fn <- $x21
	//DEBUG_VALUE: ufs_tagset_tag_busy_iter:hctx <- $x20
	//DEBUG_VALUE: ufs_tagset_tag_busy_iter:priv <- $x19
	//DEBUG_VALUE: sbitmap_for_each_set:sb <- [DW_OP_plus_uconst 40, DW_OP_stack_value] $x24
	//DEBUG_VALUE: ufs_tagset_bt_for_each:bt <- [DW_OP_plus_uconst 40, DW_OP_stack_value] $x24
	//DEBUG_VALUE: ufs_tagset_tag_busy_iter:tags <- $x24
	.loc	130 61 3 is_stmt 1      // kernel/block/mas_blk_mq_tag.c:61:3
	mov	x0, x20
	mov	x1, x8
	mov	x2, x19
	mov	w3, wzr
	blr	x21
.Ltmp25:
	.loc	97 240 42               // kernel/include/linux/sbitmap.h:240:42
	ldr	x1, [x26]
.Ltmp26:
.LBB0_9:                                //   in Loop: Header=BB0_5 Depth=2
	//DEBUG_VALUE: nr <- $w23
	//DEBUG_VALUE: off <- $w27
	//DEBUG_VALUE: sbitmap_for_each_set:i <- $x25
	//DEBUG_VALUE: ufs_tagset_tag_busy_iter:fn <- $x21
	//DEBUG_VALUE: ufs_tagset_tag_busy_iter:hctx <- $x20
	//DEBUG_VALUE: ufs_tagset_tag_busy_iter:priv <- $x19
	//DEBUG_VALUE: sbitmap_for_each_set:sb <- [DW_OP_plus_uconst 40, DW_OP_stack_value] $x24
	//DEBUG_VALUE: ufs_tagset_bt_for_each:bt <- [DW_OP_plus_uconst 40, DW_OP_stack_value] $x24
	//DEBUG_VALUE: ufs_tagset_tag_busy_iter:tags <- $x24
	.loc	97 247 6                // kernel/include/linux/sbitmap.h:247:6
	add	w2, w23, #1             // =1
	.loc	97 240 9                // kernel/include/linux/sbitmap.h:240:9
	mov	x0, x22
	bl	find_next_bit
.Ltmp27:
	.loc	97 241 20               // kernel/include/linux/sbitmap.h:241:20
	ldr	x1, [x26]
.Ltmp28:
	.loc	97 240 9                // kernel/include/linux/sbitmap.h:240:9
	mov	x23, x0
.Ltmp29:
	//DEBUG_VALUE: nr <- undef
	.loc	97 241 8                // kernel/include/linux/sbitmap.h:241:8
	cmp	x1, w23, uxtw
	b.hi	.LBB0_5
.Ltmp30:
.LBB0_10:                               //   in Loop: Header=BB0_2 Depth=1
	//DEBUG_VALUE: sbitmap_for_each_set:i <- $x25
	//DEBUG_VALUE: ufs_tagset_tag_busy_iter:fn <- $x21
	//DEBUG_VALUE: ufs_tagset_tag_busy_iter:hctx <- $x20
	//DEBUG_VALUE: ufs_tagset_tag_busy_iter:priv <- $x19
	//DEBUG_VALUE: sbitmap_for_each_set:sb <- [DW_OP_plus_uconst 40, DW_OP_stack_value] $x24
	//DEBUG_VALUE: ufs_tagset_bt_for_each:bt <- [DW_OP_plus_uconst 40, DW_OP_stack_value] $x24
	//DEBUG_VALUE: ufs_tagset_tag_busy_iter:tags <- $x24
	.loc	97 230 22               // kernel/include/linux/sbitmap.h:230:22
	ldr	w8, [x24, #48]
	.loc	97 230 31 is_stmt 0     // kernel/include/linux/sbitmap.h:230:31
	add	x25, x25, #1            // =1
.Ltmp31:
	//DEBUG_VALUE: sbitmap_for_each_set:i <- [DW_OP_plus_uconst 1, DW_OP_stack_value] undef
	.loc	97 230 2                // kernel/include/linux/sbitmap.h:230:2
	cmp	x25, x8
	b.lo	.LBB0_2
.Ltmp32:
.LBB0_11:
	//DEBUG_VALUE: ufs_tagset_tag_busy_iter:fn <- $x21
	//DEBUG_VALUE: ufs_tagset_tag_busy_iter:hctx <- $x20
	//DEBUG_VALUE: ufs_tagset_tag_busy_iter:priv <- $x19
	//DEBUG_VALUE: ufs_tagset_tag_busy_iter:tags <- $x24
	.loc	130 86 12 is_stmt 1     // kernel/block/mas_blk_mq_tag.c:86:12
	ldr	w8, [x24, #8]
.Ltmp33:
	.loc	130 86 6 is_stmt 0      // kernel/block/mas_blk_mq_tag.c:86:6
	cbz	w8, .LBB0_23
.Ltmp34:
// %bb.12:
	//DEBUG_VALUE: ufs_tagset_tag_busy_iter:fn <- $x21
	//DEBUG_VALUE: ufs_tagset_tag_busy_iter:hctx <- $x20
	//DEBUG_VALUE: ufs_tagset_tag_busy_iter:priv <- $x19
	//DEBUG_VALUE: ufs_tagset_tag_busy_iter:tags <- $x24
	//DEBUG_VALUE: ufs_tagset_tag_busy_iter:iter_data <- [DW_OP_deref] undef
	//DEBUG_VALUE: ufs_tagset_bt_for_each:iter_data <- undef
	//DEBUG_VALUE: sbitmap_for_each_set:data <- undef
	//DEBUG_VALUE: sbitmap_for_each_set:i <- 0
	.loc	97 230 22 is_stmt 1     // kernel/include/linux/sbitmap.h:230:22
	ldr	w8, [x24, #160]
.Ltmp35:
	.loc	97 230 2 is_stmt 0      // kernel/include/linux/sbitmap.h:230:2
	cbz	w8, .LBB0_23
.Ltmp36:
// %bb.13:
	//DEBUG_VALUE: ufs_tagset_tag_busy_iter:fn <- $x21
	//DEBUG_VALUE: ufs_tagset_tag_busy_iter:hctx <- $x20
	//DEBUG_VALUE: ufs_tagset_tag_busy_iter:priv <- $x19
	//DEBUG_VALUE: ufs_tagset_tag_busy_iter:tags <- $x24
	.loc	97 0 2                  // kernel/include/linux/sbitmap.h:0:2
	mov	x25, xzr
.Ltmp37:
.LBB0_14:                               // =>This Loop Header: Depth=1
                                        //     Child Loop BB0_17 Depth 2
	//DEBUG_VALUE: ufs_tagset_tag_busy_iter:fn <- $x21
	//DEBUG_VALUE: ufs_tagset_tag_busy_iter:hctx <- $x20
	//DEBUG_VALUE: ufs_tagset_tag_busy_iter:priv <- $x19
	//DEBUG_VALUE: ufs_tagset_tag_busy_iter:tags <- $x24
	//DEBUG_VALUE: sbitmap_for_each_set:i <- $x25
	.loc	97 231 36 is_stmt 1     // kernel/include/linux/sbitmap.h:231:36
	ldr	x8, [x24, #168]
.Ltmp38:
	.loc	97 234 14               // kernel/include/linux/sbitmap.h:234:14
	add	x22, x8, x25, lsl #6
	ldr	x8, [x22]
.Ltmp39:
	.loc	97 234 7 is_stmt 0      // kernel/include/linux/sbitmap.h:234:7
	cbz	x8, .LBB0_22
.Ltmp40:
// %bb.15:                              //   in Loop: Header=BB0_14 Depth=1
	//DEBUG_VALUE: sbitmap_for_each_set:i <- $x25
	//DEBUG_VALUE: ufs_tagset_tag_busy_iter:fn <- $x21
	//DEBUG_VALUE: ufs_tagset_tag_busy_iter:hctx <- $x20
	//DEBUG_VALUE: ufs_tagset_tag_busy_iter:priv <- $x19
	//DEBUG_VALUE: ufs_tagset_tag_busy_iter:tags <- $x24
	//DEBUG_VALUE: nr <- 0
	.loc	97 240 42 is_stmt 1     // kernel/include/linux/sbitmap.h:240:42
	mov	x26, x22
.Ltmp41:
	.loc	97 238 18               // kernel/include/linux/sbitmap.h:238:18
	ldr	w27, [x24, #156]
.Ltmp42:
	.loc	97 240 42               // kernel/include/linux/sbitmap.h:240:42
	ldr	x1, [x26, #8]!
	.loc	97 240 9 is_stmt 0      // kernel/include/linux/sbitmap.h:240:9
	mov	x0, x22
	mov	x2, xzr
	bl	find_next_bit
.Ltmp43:
	.loc	97 241 20 is_stmt 1     // kernel/include/linux/sbitmap.h:241:20
	ldr	x1, [x26]
.Ltmp44:
	.loc	97 240 9                // kernel/include/linux/sbitmap.h:240:9
	mov	x23, x0
.Ltmp45:
	//DEBUG_VALUE: nr <- undef
	.loc	97 241 8                // kernel/include/linux/sbitmap.h:241:8
	cmp	x1, w23, uxtw
	b.ls	.LBB0_22
.Ltmp46:
// %bb.16:                              //   in Loop: Header=BB0_14 Depth=1
	//DEBUG_VALUE: sbitmap_for_each_set:i <- $x25
	//DEBUG_VALUE: ufs_tagset_tag_busy_iter:fn <- $x21
	//DEBUG_VALUE: ufs_tagset_tag_busy_iter:hctx <- $x20
	//DEBUG_VALUE: ufs_tagset_tag_busy_iter:priv <- $x19
	//DEBUG_VALUE: ufs_tagset_tag_busy_iter:tags <- $x24
	.loc	97 0 8 is_stmt 0        // kernel/include/linux/sbitmap.h:0:8
	lsl	w27, w25, w27
.Ltmp47:
	//DEBUG_VALUE: off <- $w27
.LBB0_17:                               //   Parent Loop BB0_14 Depth=1
                                        // =>  This Inner Loop Header: Depth=2
	//DEBUG_VALUE: off <- $w27
	//DEBUG_VALUE: sbitmap_for_each_set:i <- $x25
	//DEBUG_VALUE: ufs_tagset_tag_busy_iter:fn <- $x21
	//DEBUG_VALUE: ufs_tagset_tag_busy_iter:hctx <- $x20
	//DEBUG_VALUE: ufs_tagset_tag_busy_iter:priv <- $x19
	//DEBUG_VALUE: ufs_tagset_tag_busy_iter:tags <- $x24
	//DEBUG_VALUE: nr <- $w23
	//DEBUG_VALUE: nr <- [DW_OP_plus_uconst 1, DW_OP_stack_value] $w23
	.loc	130 46 35 is_stmt 1     // kernel/block/mas_blk_mq_tag.c:46:35
	ldr	x8, [x20, #304]
.Ltmp48:
	//DEBUG_VALUE: ufs_tagset_bt_iter:rq <- 0
	//DEBUG_VALUE: ufs_tagset_bt_iter:tags <- $x8
	.loc	97 244 20               // kernel/include/linux/sbitmap.h:244:20
	add	w10, w27, w23
.Ltmp49:
	//DEBUG_VALUE: ufs_tagset_bt_iter:hctx <- $x20
	//DEBUG_VALUE: ufs_tagset_bt_iter:iter_data <- undef
	//DEBUG_VALUE: ufs_tagset_bt_iter:data <- undef
	//DEBUG_VALUE: ufs_tagset_bt_iter:bitnr <- $w10
	.loc	130 52 18               // kernel/block/mas_blk_mq_tag.c:52:18
	ldr	w9, [x8, #20]
.Ltmp50:
	.loc	130 54 13               // kernel/block/mas_blk_mq_tag.c:54:13
	ldr	x8, [x8, #208]
.Ltmp51:
	.loc	130 52 9                // kernel/block/mas_blk_mq_tag.c:52:9
	add	w9, w10, w9
.Ltmp52:
	//DEBUG_VALUE: ufs_tagset_bt_iter:bitnr <- $w9
	//DEBUG_VALUE: ufs_tagset_bt_iter:rq <- 0
	.loc	130 54 7                // kernel/block/mas_blk_mq_tag.c:54:7
	ldr	x8, [x8, w9, uxtw #3]
.Ltmp53:
	//DEBUG_VALUE: ufs_tagset_bt_iter:rq <- $x8
	.loc	130 60 9                // kernel/block/mas_blk_mq_tag.c:60:9
	cbz	x8, .LBB0_21
.Ltmp54:
// %bb.18:                              //   in Loop: Header=BB0_17 Depth=2
	//DEBUG_VALUE: ufs_tagset_bt_iter:rq <- $x8
	//DEBUG_VALUE: ufs_tagset_bt_iter:bitnr <- $w9
	//DEBUG_VALUE: ufs_tagset_bt_iter:hctx <- $x20
	//DEBUG_VALUE: nr <- $w23
	//DEBUG_VALUE: off <- $w27
	//DEBUG_VALUE: sbitmap_for_each_set:i <- $x25
	//DEBUG_VALUE: ufs_tagset_tag_busy_iter:fn <- $x21
	//DEBUG_VALUE: ufs_tagset_tag_busy_iter:hctx <- $x20
	//DEBUG_VALUE: ufs_tagset_tag_busy_iter:priv <- $x19
	//DEBUG_VALUE: ufs_tagset_tag_busy_iter:tags <- $x24
	.loc	130 60 33 is_stmt 0     // kernel/block/mas_blk_mq_tag.c:60:33
	cbz	x21, .LBB0_21
.Ltmp55:
// %bb.19:                              //   in Loop: Header=BB0_17 Depth=2
	//DEBUG_VALUE: ufs_tagset_bt_iter:rq <- $x8
	//DEBUG_VALUE: ufs_tagset_bt_iter:bitnr <- $w9
	//DEBUG_VALUE: ufs_tagset_bt_iter:hctx <- $x20
	//DEBUG_VALUE: nr <- $w23
	//DEBUG_VALUE: off <- $w27
	//DEBUG_VALUE: sbitmap_for_each_set:i <- $x25
	//DEBUG_VALUE: ufs_tagset_tag_busy_iter:fn <- $x21
	//DEBUG_VALUE: ufs_tagset_tag_busy_iter:hctx <- $x20
	//DEBUG_VALUE: ufs_tagset_tag_busy_iter:priv <- $x19
	//DEBUG_VALUE: ufs_tagset_tag_busy_iter:tags <- $x24
	.loc	130 0 0                 // kernel/block/mas_blk_mq_tag.c:0:0
	ldr	x9, [x8, #64]
.Ltmp56:
	ldr	x10, [x20, #192]
	.loc	130 60 33               // kernel/block/mas_blk_mq_tag.c:60:33
	cmp	x9, x10
	b.ne	.LBB0_21
.Ltmp57:
// %bb.20:                              //   in Loop: Header=BB0_17 Depth=2
	//DEBUG_VALUE: ufs_tagset_bt_iter:rq <- $x8
	//DEBUG_VALUE: ufs_tagset_bt_iter:hctx <- $x20
	//DEBUG_VALUE: nr <- $w23
	//DEBUG_VALUE: off <- $w27
	//DEBUG_VALUE: sbitmap_for_each_set:i <- $x25
	//DEBUG_VALUE: ufs_tagset_tag_busy_iter:fn <- $x21
	//DEBUG_VALUE: ufs_tagset_tag_busy_iter:hctx <- $x20
	//DEBUG_VALUE: ufs_tagset_tag_busy_iter:priv <- $x19
	//DEBUG_VALUE: ufs_tagset_tag_busy_iter:tags <- $x24
	.loc	130 61 3 is_stmt 1      // kernel/block/mas_blk_mq_tag.c:61:3
	mov	x0, x20
	mov	x1, x8
	mov	x2, x19
	mov	w3, wzr
	blr	x21
.Ltmp58:
	.loc	97 240 42               // kernel/include/linux/sbitmap.h:240:42
	ldr	x1, [x26]
.Ltmp59:
.LBB0_21:                               //   in Loop: Header=BB0_17 Depth=2
	//DEBUG_VALUE: nr <- $w23
	//DEBUG_VALUE: off <- $w27
	//DEBUG_VALUE: sbitmap_for_each_set:i <- $x25
	//DEBUG_VALUE: ufs_tagset_tag_busy_iter:fn <- $x21
	//DEBUG_VALUE: ufs_tagset_tag_busy_iter:hctx <- $x20
	//DEBUG_VALUE: ufs_tagset_tag_busy_iter:priv <- $x19
	//DEBUG_VALUE: ufs_tagset_tag_busy_iter:tags <- $x24
	.loc	97 247 6                // kernel/include/linux/sbitmap.h:247:6
	add	w2, w23, #1             // =1
	.loc	97 240 9                // kernel/include/linux/sbitmap.h:240:9
	mov	x0, x22
	bl	find_next_bit
.Ltmp60:
	.loc	97 241 20               // kernel/include/linux/sbitmap.h:241:20
	ldr	x1, [x26]
.Ltmp61:
	.loc	97 240 9                // kernel/include/linux/sbitmap.h:240:9
	mov	x23, x0
.Ltmp62:
	//DEBUG_VALUE: nr <- undef
	.loc	97 241 8                // kernel/include/linux/sbitmap.h:241:8
	cmp	x1, w23, uxtw
	b.hi	.LBB0_17
.Ltmp63:
.LBB0_22:                               //   in Loop: Header=BB0_14 Depth=1
	//DEBUG_VALUE: sbitmap_for_each_set:i <- $x25
	//DEBUG_VALUE: ufs_tagset_tag_busy_iter:fn <- $x21
	//DEBUG_VALUE: ufs_tagset_tag_busy_iter:hctx <- $x20
	//DEBUG_VALUE: ufs_tagset_tag_busy_iter:priv <- $x19
	//DEBUG_VALUE: ufs_tagset_tag_busy_iter:tags <- $x24
	.loc	97 230 22               // kernel/include/linux/sbitmap.h:230:22
	ldr	w8, [x24, #160]
	.loc	97 230 31 is_stmt 0     // kernel/include/linux/sbitmap.h:230:31
	add	x25, x25, #1            // =1
.Ltmp64:
	//DEBUG_VALUE: sbitmap_for_each_set:i <- [DW_OP_plus_uconst 1, DW_OP_stack_value] undef
	.loc	97 230 2                // kernel/include/linux/sbitmap.h:230:2
	cmp	x25, x8
	b.lo	.LBB0_14
.Ltmp65:
.LBB0_23:
	//DEBUG_VALUE: ufs_tagset_tag_busy_iter:fn <- $x21
	//DEBUG_VALUE: ufs_tagset_tag_busy_iter:hctx <- $x20
	//DEBUG_VALUE: ufs_tagset_tag_busy_iter:priv <- $x19
	//DEBUG_VALUE: ufs_tagset_tag_busy_iter:tags <- $x24
	.loc	130 91 12 is_stmt 1     // kernel/block/mas_blk_mq_tag.c:91:12
	ldr	w8, [x24, #4]
.Ltmp66:
	.loc	130 91 6 is_stmt 0      // kernel/block/mas_blk_mq_tag.c:91:6
	cbz	w8, .LBB0_35
.Ltmp67:
// %bb.24:
	//DEBUG_VALUE: ufs_tagset_tag_busy_iter:fn <- $x21
	//DEBUG_VALUE: ufs_tagset_tag_busy_iter:hctx <- $x20
	//DEBUG_VALUE: ufs_tagset_tag_busy_iter:priv <- $x19
	//DEBUG_VALUE: ufs_tagset_tag_busy_iter:tags <- $x24
	//DEBUG_VALUE: ufs_tagset_tag_busy_iter:iter_data <- [DW_OP_deref] undef
	//DEBUG_VALUE: ufs_tagset_bt_for_each:iter_data <- undef
	//DEBUG_VALUE: sbitmap_for_each_set:data <- undef
	//DEBUG_VALUE: sbitmap_for_each_set:i <- 0
	.loc	97 230 22 is_stmt 1     // kernel/include/linux/sbitmap.h:230:22
	ldr	w8, [x24, #104]
.Ltmp68:
	.loc	97 230 2 is_stmt 0      // kernel/include/linux/sbitmap.h:230:2
	cbz	w8, .LBB0_35
.Ltmp69:
// %bb.25:
	//DEBUG_VALUE: ufs_tagset_tag_busy_iter:fn <- $x21
	//DEBUG_VALUE: ufs_tagset_tag_busy_iter:hctx <- $x20
	//DEBUG_VALUE: ufs_tagset_tag_busy_iter:priv <- $x19
	//DEBUG_VALUE: ufs_tagset_tag_busy_iter:tags <- $x24
	.loc	97 0 2                  // kernel/include/linux/sbitmap.h:0:2
	mov	x25, xzr
.Ltmp70:
.LBB0_26:                               // =>This Loop Header: Depth=1
                                        //     Child Loop BB0_29 Depth 2
	//DEBUG_VALUE: ufs_tagset_tag_busy_iter:fn <- $x21
	//DEBUG_VALUE: ufs_tagset_tag_busy_iter:hctx <- $x20
	//DEBUG_VALUE: ufs_tagset_tag_busy_iter:priv <- $x19
	//DEBUG_VALUE: ufs_tagset_tag_busy_iter:tags <- $x24
	//DEBUG_VALUE: sbitmap_for_each_set:i <- $x25
	.loc	97 231 36 is_stmt 1     // kernel/include/linux/sbitmap.h:231:36
	ldr	x8, [x24, #112]
.Ltmp71:
	.loc	97 234 14               // kernel/include/linux/sbitmap.h:234:14
	add	x22, x8, x25, lsl #6
	ldr	x8, [x22]
.Ltmp72:
	.loc	97 234 7 is_stmt 0      // kernel/include/linux/sbitmap.h:234:7
	cbz	x8, .LBB0_34
.Ltmp73:
// %bb.27:                              //   in Loop: Header=BB0_26 Depth=1
	//DEBUG_VALUE: sbitmap_for_each_set:i <- $x25
	//DEBUG_VALUE: ufs_tagset_tag_busy_iter:fn <- $x21
	//DEBUG_VALUE: ufs_tagset_tag_busy_iter:hctx <- $x20
	//DEBUG_VALUE: ufs_tagset_tag_busy_iter:priv <- $x19
	//DEBUG_VALUE: ufs_tagset_tag_busy_iter:tags <- $x24
	//DEBUG_VALUE: nr <- 0
	.loc	97 240 42 is_stmt 1     // kernel/include/linux/sbitmap.h:240:42
	mov	x26, x22
.Ltmp74:
	.loc	97 238 18               // kernel/include/linux/sbitmap.h:238:18
	ldr	w27, [x24, #100]
.Ltmp75:
	.loc	97 240 42               // kernel/include/linux/sbitmap.h:240:42
	ldr	x1, [x26, #8]!
	.loc	97 240 9 is_stmt 0      // kernel/include/linux/sbitmap.h:240:9
	mov	x0, x22
	mov	x2, xzr
	bl	find_next_bit
.Ltmp76:
	.loc	97 241 20 is_stmt 1     // kernel/include/linux/sbitmap.h:241:20
	ldr	x1, [x26]
.Ltmp77:
	.loc	97 240 9                // kernel/include/linux/sbitmap.h:240:9
	mov	x23, x0
.Ltmp78:
	//DEBUG_VALUE: nr <- undef
	.loc	97 241 8                // kernel/include/linux/sbitmap.h:241:8
	cmp	x1, w23, uxtw
	b.ls	.LBB0_34
.Ltmp79:
// %bb.28:                              //   in Loop: Header=BB0_26 Depth=1
	//DEBUG_VALUE: sbitmap_for_each_set:i <- $x25
	//DEBUG_VALUE: ufs_tagset_tag_busy_iter:fn <- $x21
	//DEBUG_VALUE: ufs_tagset_tag_busy_iter:hctx <- $x20
	//DEBUG_VALUE: ufs_tagset_tag_busy_iter:priv <- $x19
	//DEBUG_VALUE: ufs_tagset_tag_busy_iter:tags <- $x24
	.loc	97 0 8 is_stmt 0        // kernel/include/linux/sbitmap.h:0:8
	lsl	w27, w25, w27
.Ltmp80:
	//DEBUG_VALUE: off <- $w27
.LBB0_29:                               //   Parent Loop BB0_26 Depth=1
                                        // =>  This Inner Loop Header: Depth=2
	//DEBUG_VALUE: off <- $w27
	//DEBUG_VALUE: sbitmap_for_each_set:i <- $x25
	//DEBUG_VALUE: ufs_tagset_tag_busy_iter:fn <- $x21
	//DEBUG_VALUE: ufs_tagset_tag_busy_iter:hctx <- $x20
	//DEBUG_VALUE: ufs_tagset_tag_busy_iter:priv <- $x19
	//DEBUG_VALUE: ufs_tagset_tag_busy_iter:tags <- $x24
	//DEBUG_VALUE: nr <- $w23
	//DEBUG_VALUE: nr <- [DW_OP_plus_uconst 1, DW_OP_stack_value] $w23
	.loc	130 46 35 is_stmt 1     // kernel/block/mas_blk_mq_tag.c:46:35
	ldr	x8, [x20, #304]
.Ltmp81:
	//DEBUG_VALUE: ufs_tagset_bt_iter:rq <- 0
	//DEBUG_VALUE: ufs_tagset_bt_iter:tags <- $x8
	.loc	97 244 20               // kernel/include/linux/sbitmap.h:244:20
	add	w10, w27, w23
.Ltmp82:
	//DEBUG_VALUE: ufs_tagset_bt_iter:hctx <- $x20
	//DEBUG_VALUE: ufs_tagset_bt_iter:iter_data <- undef
	//DEBUG_VALUE: ufs_tagset_bt_iter:data <- undef
	//DEBUG_VALUE: ufs_tagset_bt_iter:bitnr <- $w10
	.loc	130 50 18               // kernel/block/mas_blk_mq_tag.c:50:18
	ldr	w9, [x8, #16]
.Ltmp83:
	.loc	130 54 13               // kernel/block/mas_blk_mq_tag.c:54:13
	ldr	x8, [x8, #208]
.Ltmp84:
	.loc	130 50 9                // kernel/block/mas_blk_mq_tag.c:50:9
	add	w9, w10, w9
.Ltmp85:
	//DEBUG_VALUE: ufs_tagset_bt_iter:bitnr <- $w9
	//DEBUG_VALUE: ufs_tagset_bt_iter:rq <- 0
	.loc	130 54 7                // kernel/block/mas_blk_mq_tag.c:54:7
	ldr	x8, [x8, w9, uxtw #3]
.Ltmp86:
	//DEBUG_VALUE: ufs_tagset_bt_iter:rq <- $x8
	.loc	130 60 9                // kernel/block/mas_blk_mq_tag.c:60:9
	cbz	x8, .LBB0_33
.Ltmp87:
// %bb.30:                              //   in Loop: Header=BB0_29 Depth=2
	//DEBUG_VALUE: ufs_tagset_bt_iter:rq <- $x8
	//DEBUG_VALUE: ufs_tagset_bt_iter:bitnr <- $w9
	//DEBUG_VALUE: ufs_tagset_bt_iter:hctx <- $x20
	//DEBUG_VALUE: nr <- $w23
	//DEBUG_VALUE: off <- $w27
	//DEBUG_VALUE: sbitmap_for_each_set:i <- $x25
	//DEBUG_VALUE: ufs_tagset_tag_busy_iter:fn <- $x21
	//DEBUG_VALUE: ufs_tagset_tag_busy_iter:hctx <- $x20
	//DEBUG_VALUE: ufs_tagset_tag_busy_iter:priv <- $x19
	//DEBUG_VALUE: ufs_tagset_tag_busy_iter:tags <- $x24
	.loc	130 60 33 is_stmt 0     // kernel/block/mas_blk_mq_tag.c:60:33
	cbz	x21, .LBB0_33
.Ltmp88:
// %bb.31:                              //   in Loop: Header=BB0_29 Depth=2
	//DEBUG_VALUE: ufs_tagset_bt_iter:rq <- $x8
	//DEBUG_VALUE: ufs_tagset_bt_iter:bitnr <- $w9
	//DEBUG_VALUE: ufs_tagset_bt_iter:hctx <- $x20
	//DEBUG_VALUE: nr <- $w23
	//DEBUG_VALUE: off <- $w27
	//DEBUG_VALUE: sbitmap_for_each_set:i <- $x25
	//DEBUG_VALUE: ufs_tagset_tag_busy_iter:fn <- $x21
	//DEBUG_VALUE: ufs_tagset_tag_busy_iter:hctx <- $x20
	//DEBUG_VALUE: ufs_tagset_tag_busy_iter:priv <- $x19
	//DEBUG_VALUE: ufs_tagset_tag_busy_iter:tags <- $x24
	.loc	130 0 0                 // kernel/block/mas_blk_mq_tag.c:0:0
	ldr	x9, [x8, #64]
.Ltmp89:
	ldr	x10, [x20, #192]
	.loc	130 60 33               // kernel/block/mas_blk_mq_tag.c:60:33
	cmp	x9, x10
	b.ne	.LBB0_33
.Ltmp90:
// %bb.32:                              //   in Loop: Header=BB0_29 Depth=2
	//DEBUG_VALUE: ufs_tagset_bt_iter:rq <- $x8
	//DEBUG_VALUE: ufs_tagset_bt_iter:hctx <- $x20
	//DEBUG_VALUE: nr <- $w23
	//DEBUG_VALUE: off <- $w27
	//DEBUG_VALUE: sbitmap_for_each_set:i <- $x25
	//DEBUG_VALUE: ufs_tagset_tag_busy_iter:fn <- $x21
	//DEBUG_VALUE: ufs_tagset_tag_busy_iter:hctx <- $x20
	//DEBUG_VALUE: ufs_tagset_tag_busy_iter:priv <- $x19
	//DEBUG_VALUE: ufs_tagset_tag_busy_iter:tags <- $x24
	.loc	130 61 3 is_stmt 1      // kernel/block/mas_blk_mq_tag.c:61:3
	orr	w3, wzr, #0x1
	mov	x0, x20
	mov	x1, x8
	mov	x2, x19
	blr	x21
.Ltmp91:
	.loc	97 240 42               // kernel/include/linux/sbitmap.h:240:42
	ldr	x1, [x26]
.Ltmp92:
.LBB0_33:                               //   in Loop: Header=BB0_29 Depth=2
	//DEBUG_VALUE: nr <- $w23
	//DEBUG_VALUE: off <- $w27
	//DEBUG_VALUE: sbitmap_for_each_set:i <- $x25
	//DEBUG_VALUE: ufs_tagset_tag_busy_iter:fn <- $x21
	//DEBUG_VALUE: ufs_tagset_tag_busy_iter:hctx <- $x20
	//DEBUG_VALUE: ufs_tagset_tag_busy_iter:priv <- $x19
	//DEBUG_VALUE: ufs_tagset_tag_busy_iter:tags <- $x24
	.loc	97 247 6                // kernel/include/linux/sbitmap.h:247:6
	add	w2, w23, #1             // =1
	.loc	97 240 9                // kernel/include/linux/sbitmap.h:240:9
	mov	x0, x22
	bl	find_next_bit
.Ltmp93:
	.loc	97 241 20               // kernel/include/linux/sbitmap.h:241:20
	ldr	x1, [x26]
.Ltmp94:
	.loc	97 240 9                // kernel/include/linux/sbitmap.h:240:9
	mov	x23, x0
.Ltmp95:
	//DEBUG_VALUE: nr <- undef
	.loc	97 241 8                // kernel/include/linux/sbitmap.h:241:8
	cmp	x1, w23, uxtw
	b.hi	.LBB0_29
.Ltmp96:
.LBB0_34:                               //   in Loop: Header=BB0_26 Depth=1
	//DEBUG_VALUE: sbitmap_for_each_set:i <- $x25
	//DEBUG_VALUE: ufs_tagset_tag_busy_iter:fn <- $x21
	//DEBUG_VALUE: ufs_tagset_tag_busy_iter:hctx <- $x20
	//DEBUG_VALUE: ufs_tagset_tag_busy_iter:priv <- $x19
	//DEBUG_VALUE: ufs_tagset_tag_busy_iter:tags <- $x24
	.loc	97 230 22               // kernel/include/linux/sbitmap.h:230:22
	ldr	w8, [x24, #104]
	.loc	97 230 31 is_stmt 0     // kernel/include/linux/sbitmap.h:230:31
	add	x25, x25, #1            // =1
.Ltmp97:
	//DEBUG_VALUE: sbitmap_for_each_set:i <- [DW_OP_plus_uconst 1, DW_OP_stack_value] undef
	.loc	97 230 2                // kernel/include/linux/sbitmap.h:230:2
	cmp	x25, x8
	b.lo	.LBB0_26
.Ltmp98:
.LBB0_35:
	//DEBUG_VALUE: ufs_tagset_tag_busy_iter:fn <- $x21
	//DEBUG_VALUE: ufs_tagset_tag_busy_iter:hctx <- $x20
	//DEBUG_VALUE: ufs_tagset_tag_busy_iter:priv <- $x19
	//DEBUG_VALUE: ufs_tagset_tag_busy_iter:tags <- $x24
	.loc	130 96 1 is_stmt 1      // kernel/block/mas_blk_mq_tag.c:96:1
	ldp	x29, x30, [sp, #80]     // 16-byte Folded Reload
	ldp	x20, x19, [sp, #64]     // 16-byte Folded Reload
.Ltmp99:
	ldp	x22, x21, [sp, #48]     // 16-byte Folded Reload
.Ltmp100:
	ldp	x24, x23, [sp, #32]     // 16-byte Folded Reload
.Ltmp101:
	ldp	x26, x25, [sp, #16]     // 16-byte Folded Reload
	ldr	x27, [sp], #96          // 8-byte Folded Reload
	ret
.Ltmp102:
.Lfunc_end0:
	.size	ufs_tagset_tag_busy_iter, .Lfunc_end0-ufs_tagset_tag_busy_iter
	.cfi_endproc
                                        // -- End function
	.section	.text.ufs_tagset_bt_get,"ax",@progbits
	.hidden	ufs_tagset_bt_get       // -- Begin function ufs_tagset_bt_get
	.globl	ufs_tagset_bt_get
	.p2align	2
	.type	ufs_tagset_bt_get,@function
ufs_tagset_bt_get:                      // @ufs_tagset_bt_get
.Lfunc_begin1:
	.loc	130 235 0               // kernel/block/mas_blk_mq_tag.c:235:0
	.cfi_startproc
// %bb.0:
	//DEBUG_VALUE: ufs_tagset_bt_get:data <- $x0
	//DEBUG_VALUE: ufs_tagset_bt_get:bt <- $x1
	//DEBUG_VALUE: ufs_tagset_bt_get:hctx <- $x2
	sub	sp, sp, #144            // =144
	str	x27, [sp, #48]          // 8-byte Folded Spill
	stp	x26, x25, [sp, #64]     // 16-byte Folded Spill
	stp	x24, x23, [sp, #80]     // 16-byte Folded Spill
	stp	x22, x21, [sp, #96]     // 16-byte Folded Spill
	stp	x20, x19, [sp, #112]    // 16-byte Folded Spill
	stp	x29, x30, [sp, #128]    // 16-byte Folded Spill
	add	x29, sp, #128           // =128
	.cfi_def_cfa w29, 16
	.cfi_offset w30, -8
	.cfi_offset w29, -16
	.cfi_offset w19, -24
	.cfi_offset w20, -32
	.cfi_offset w21, -40
	.cfi_offset w22, -48
	.cfi_offset w23, -56
	.cfi_offset w24, -64
	.cfi_offset w25, -72
	.cfi_offset w26, -80
	.cfi_offset w27, -96
	adrp	x8, __stack_chk_guard
	ldr	x8, [x8, :lo12:__stack_chk_guard]
	str	x8, [sp, #40]
.Ltmp103:
	.loc	130 238 6 prologue_end  // kernel/block/mas_blk_mq_tag.c:238:6
	cbz	x2, .LBB1_36
.Ltmp104:
// %bb.1:
	//DEBUG_VALUE: ufs_tagset_bt_get:hctx <- $x2
	//DEBUG_VALUE: ufs_tagset_bt_get:bt <- $x1
	//DEBUG_VALUE: ufs_tagset_bt_get:data <- $x0
	.loc	130 127 16              // kernel/block/mas_blk_mq_tag.c:127:16
	ldr	x8, [x0, #8]
	mov	w24, #4096
	mov	x21, x2
.Ltmp105:
	//DEBUG_VALUE: ufs_tagset_bt_get:hctx <- $x21
	.loc	130 0 16 is_stmt 0      // kernel/block/mas_blk_mq_tag.c:0:16
	mov	x20, x1
.Ltmp106:
	//DEBUG_VALUE: ufs_tagset_bt_get:bt <- $x20
	mov	x19, x0
.Ltmp107:
	//DEBUG_VALUE: ufs_tagset_bt_get:data <- $x19
	//DEBUG_VALUE: ufs_sbitmap_queue_get:data <- $x19
	//DEBUG_VALUE: ufs_sbitmap_queue_get:bt <- $x20
	//DEBUG_VALUE: ufs_sbitmap_is_fg:data <- $x19
	movk	w24, #64, lsl #16
.Ltmp108:
	.loc	130 143 6 is_stmt 1     // kernel/block/mas_blk_mq_tag.c:143:6
	tbnz	w8, #23, .LBB1_6
.Ltmp109:
// %bb.2:
	//DEBUG_VALUE: ufs_sbitmap_queue_get:bt <- $x20
	//DEBUG_VALUE: ufs_sbitmap_queue_get:data <- $x19
	//DEBUG_VALUE: ufs_tagset_bt_get:data <- $x19
	//DEBUG_VALUE: ufs_tagset_bt_get:bt <- $x20
	//DEBUG_VALUE: ufs_tagset_bt_get:hctx <- $x21
	.loc	130 0 0 is_stmt 0       // kernel/block/mas_blk_mq_tag.c:0:0
	and	x8, x8, x24
	.loc	130 143 6               // kernel/block/mas_blk_mq_tag.c:143:6
	cbz	x8, .LBB1_6
.Ltmp110:
// %bb.3:
	//DEBUG_VALUE: ufs_sbitmap_queue_get:bt <- $x20
	//DEBUG_VALUE: ufs_sbitmap_queue_get:data <- $x19
	//DEBUG_VALUE: ufs_tagset_bt_get:data <- $x19
	//DEBUG_VALUE: ufs_tagset_bt_get:bt <- $x20
	//DEBUG_VALUE: ufs_tagset_bt_get:hctx <- $x21
	mov	x0, x19
	bl	ufs_mq_vip_tag_wait_cnt
	cbz	w0, .LBB1_6
.Ltmp111:
// %bb.4:
	//DEBUG_VALUE: ufs_sbitmap_queue_get:bt <- $x20
	//DEBUG_VALUE: ufs_sbitmap_queue_get:data <- $x19
	//DEBUG_VALUE: ufs_tagset_bt_get:data <- $x19
	//DEBUG_VALUE: ufs_tagset_bt_get:bt <- $x20
	//DEBUG_VALUE: ufs_tagset_bt_get:hctx <- $x21
	//DEBUG_VALUE: ufs_sbitmap_fg_starved:data <- $x19
	.loc	130 133 13 is_stmt 1    // kernel/block/mas_blk_mq_tag.c:133:13
	ldr	x8, [x19, #32]
.Ltmp112:
	.loc	130 133 6 is_stmt 0     // kernel/block/mas_blk_mq_tag.c:133:6
	cbz	x8, .LBB1_7
.Ltmp113:
// %bb.5:
	//DEBUG_VALUE: ufs_sbitmap_fg_starved:data <- $x19
	//DEBUG_VALUE: ufs_sbitmap_queue_get:bt <- $x20
	//DEBUG_VALUE: ufs_sbitmap_queue_get:data <- $x19
	//DEBUG_VALUE: ufs_tagset_bt_get:data <- $x19
	//DEBUG_VALUE: ufs_tagset_bt_get:bt <- $x20
	//DEBUG_VALUE: ufs_tagset_bt_get:hctx <- $x21
	.loc	130 136 21 is_stmt 1    // kernel/block/mas_blk_mq_tag.c:136:21
	bl	ktime_get
.Ltmp114:
	//DEBUG_VALUE: ktime_after:cmp1 <- $x0
	//DEBUG_VALUE: ktime_compare:cmp1 <- $x0
	.loc	130 137 22              // kernel/block/mas_blk_mq_tag.c:137:22
	ldr	x8, [x19, #32]
	mov	w9, #25856
	movk	w9, #7629, lsl #16
.Ltmp115:
	//DEBUG_VALUE: ktime_add_ms:msec <- 500
	//DEBUG_VALUE: ktime_add_ms:kt <- $x8
	.loc	32 200 9                // kernel/include/linux/ktime.h:200:9
	add	x8, x8, x9
.Ltmp116:
	//DEBUG_VALUE: ktime_compare:cmp2 <- $x8
	//DEBUG_VALUE: ktime_after:cmp2 <- $x8
	.loc	130 143 6               // kernel/block/mas_blk_mq_tag.c:143:6
	cmp	x0, x8
	b.le	.LBB1_7
.Ltmp117:
.LBB1_6:
	//DEBUG_VALUE: ufs_sbitmap_queue_get:bt <- $x20
	//DEBUG_VALUE: ufs_sbitmap_queue_get:data <- $x19
	//DEBUG_VALUE: ufs_tagset_bt_get:data <- $x19
	//DEBUG_VALUE: ufs_tagset_bt_get:bt <- $x20
	//DEBUG_VALUE: ufs_tagset_bt_get:hctx <- $x21
	.loc	130 147 9               // kernel/block/mas_blk_mq_tag.c:147:9
	mov	x0, x20
	bl	__sbitmap_queue_get
	mov	w23, w0
.Ltmp118:
	//DEBUG_VALUE: ufs_tagset_bt_get:tag <- $w23
	.loc	130 242 6               // kernel/block/mas_blk_mq_tag.c:242:6
	cmn	w0, #1                  // =1
	b.ne	.LBB1_37
.Ltmp119:
.LBB1_7:
	//DEBUG_VALUE: ufs_tagset_bt_get:data <- $x19
	//DEBUG_VALUE: ufs_tagset_bt_get:bt <- $x20
	//DEBUG_VALUE: ufs_tagset_bt_get:hctx <- $x21
	.loc	130 246 44              // kernel/block/mas_blk_mq_tag.c:246:44
	ldr	x0, [x19]
	.loc	130 246 6 is_stmt 0     // kernel/block/mas_blk_mq_tag.c:246:6
	bl	blk_queue_query_unistore_enable
	.loc	130 246 47              // kernel/block/mas_blk_mq_tag.c:246:47
	tbz	w0, #0, .LBB1_9
.Ltmp120:
// %bb.8:
	//DEBUG_VALUE: ufs_tagset_bt_get:data <- $x19
	//DEBUG_VALUE: ufs_tagset_bt_get:bt <- $x20
	//DEBUG_VALUE: ufs_tagset_bt_get:hctx <- $x21
	.loc	130 246 6               // kernel/block/mas_blk_mq_tag.c:246:6
	ldrb	w8, [x19, #16]
	tbnz	w8, #2, .LBB1_36
.Ltmp121:
.LBB1_9:
	//DEBUG_VALUE: ufs_tagset_bt_get:data <- $x19
	//DEBUG_VALUE: ufs_tagset_bt_get:bt <- $x20
	//DEBUG_VALUE: ufs_tagset_bt_get:hctx <- $x21
	//DEBUG_VALUE: ufs_tagset_bt_get_slowpath:data <- $x19
	//DEBUG_VALUE: ufs_tagset_bt_get_slowpath:bt <- $x20
	//DEBUG_VALUE: ufs_tagset_bt_get_slowpath:hctx <- $x21
	//DEBUG_VALUE: ufs_tagset_bt_get_slowpath:bs <- 0
	.loc	130 178 2 is_stmt 1     // kernel/block/mas_blk_mq_tag.c:178:2
	adrp	x8, autoremove_wake_function
	add	x8, x8, :lo12:autoremove_wake_function
	mov	x9, sp
.Ltmp122:
	.file	131 "/mnt/disk/jenkins/ci/workspace/chipset_pipeline_release/opensource/component_code/vendor/huawei/extra/build/build_script/kirin_kernel_release/kernel/arch/arm64/include/asm/current.h"
	.loc	131 19 2                // kernel/arch/arm64/include/asm/current.h:19:2
	//APP
	mrs x25, sp_el0
	//NO_APP
.Ltmp123:
	//DEBUG_VALUE: test_ti_thread_flag:ti <- $x25
	//DEBUG_VALUE: get_current:sp_el0 <- $x25
	//DEBUG_VALUE: get_current:sp_el0 <- $x25
	//DEBUG_VALUE: get_current:sp_el0 <- $x25
	//DEBUG_VALUE: test_bit:addr <- $x25
	//DEBUG_VALUE: get_current:sp_el0 <- $x25
	.loc	130 178 2               // kernel/block/mas_blk_mq_tag.c:178:2
	stp	x25, x8, [sp, #8]
	add	x8, x9, #24             // =24
	str	wzr, [sp]
	stp	x8, x8, [sp, #24]
.Ltmp124:
	.loc	130 181 12              // kernel/block/mas_blk_mq_tag.c:181:12
	ldr	x8, [x19, #8]
.Ltmp125:
	.loc	130 181 6 is_stmt 0     // kernel/block/mas_blk_mq_tag.c:181:6
	tbz	w8, #23, .LBB1_11
.Ltmp126:
// %bb.10:
	//DEBUG_VALUE: ufs_tagset_bt_get_slowpath:hctx <- $x21
	//DEBUG_VALUE: ufs_tagset_bt_get_slowpath:bt <- $x20
	//DEBUG_VALUE: ufs_tagset_bt_get_slowpath:data <- $x19
	//DEBUG_VALUE: ufs_tagset_bt_get:data <- $x19
	//DEBUG_VALUE: ufs_tagset_bt_get:bt <- $x20
	//DEBUG_VALUE: ufs_tagset_bt_get:hctx <- $x21
	.loc	130 182 3 is_stmt 1     // kernel/block/mas_blk_mq_tag.c:182:3
	mov	x0, x19
	bl	ufs_mq_inc_vip_wait_cnt
.Ltmp127:
	.loc	130 127 16              // kernel/block/mas_blk_mq_tag.c:127:16
	ldr	x8, [x19, #8]
.Ltmp128:
.LBB1_11:
	//DEBUG_VALUE: ufs_tagset_bt_get_slowpath:hctx <- $x21
	//DEBUG_VALUE: ufs_tagset_bt_get_slowpath:bt <- $x20
	//DEBUG_VALUE: ufs_tagset_bt_get_slowpath:data <- $x19
	//DEBUG_VALUE: ufs_tagset_bt_get:data <- $x19
	//DEBUG_VALUE: ufs_tagset_bt_get:bt <- $x20
	//DEBUG_VALUE: ufs_tagset_bt_get:hctx <- $x21
	//DEBUG_VALUE: ufs_sbitmap_is_fg:data <- $x19
	.loc	130 184 6               // kernel/block/mas_blk_mq_tag.c:184:6
	tbnz	w8, #23, .LBB1_14
.Ltmp129:
// %bb.12:
	//DEBUG_VALUE: ufs_tagset_bt_get_slowpath:hctx <- $x21
	//DEBUG_VALUE: ufs_tagset_bt_get_slowpath:bt <- $x20
	//DEBUG_VALUE: ufs_tagset_bt_get_slowpath:data <- $x19
	//DEBUG_VALUE: ufs_tagset_bt_get:data <- $x19
	//DEBUG_VALUE: ufs_tagset_bt_get:bt <- $x20
	//DEBUG_VALUE: ufs_tagset_bt_get:hctx <- $x21
	.loc	130 0 0 is_stmt 0       // kernel/block/mas_blk_mq_tag.c:0:0
	and	x8, x8, x24
	.loc	130 184 6               // kernel/block/mas_blk_mq_tag.c:184:6
	cbz	x8, .LBB1_14
.Ltmp130:
// %bb.13:
	//DEBUG_VALUE: ufs_tagset_bt_get_slowpath:hctx <- $x21
	//DEBUG_VALUE: ufs_tagset_bt_get_slowpath:bt <- $x20
	//DEBUG_VALUE: ufs_tagset_bt_get_slowpath:data <- $x19
	//DEBUG_VALUE: ufs_tagset_bt_get:data <- $x19
	//DEBUG_VALUE: ufs_tagset_bt_get:bt <- $x20
	//DEBUG_VALUE: ufs_tagset_bt_get:hctx <- $x21
	.loc	130 185 26 is_stmt 1    // kernel/block/mas_blk_mq_tag.c:185:26
	bl	ktime_get
	.loc	130 185 24 is_stmt 0    // kernel/block/mas_blk_mq_tag.c:185:24
	str	x0, [x19, #32]
.Ltmp131:
.LBB1_14:
	//DEBUG_VALUE: ufs_tagset_bt_get_slowpath:hctx <- $x21
	//DEBUG_VALUE: ufs_tagset_bt_get_slowpath:bt <- $x20
	//DEBUG_VALUE: ufs_tagset_bt_get_slowpath:data <- $x19
	//DEBUG_VALUE: ufs_tagset_bt_get:data <- $x19
	//DEBUG_VALUE: ufs_tagset_bt_get:bt <- $x20
	//DEBUG_VALUE: ufs_tagset_bt_get:hctx <- $x21
	.loc	130 187 12 is_stmt 1    // kernel/block/mas_blk_mq_tag.c:187:12
	ldr	x8, [x20, #40]
.Ltmp132:
	//DEBUG_VALUE: ufs_tagset_bt_get_slowpath:bs <- $x8
	//DEBUG_VALUE: ufs_tagset_bt_get_slowpath:hctx <- $x21
	//DEBUG_VALUE: ufs_tagset_bt_get_slowpath:bt <- $x20
	.loc	130 189 3               // kernel/block/mas_blk_mq_tag.c:189:3
	mov	x1, sp
	orr	w2, wzr, #0x2
	.loc	130 189 24 is_stmt 0    // kernel/block/mas_blk_mq_tag.c:189:24
	add	x22, x8, #8             // =8
.Ltmp133:
	//DEBUG_VALUE: ufs_tagset_bt_get_slowpath:wait <- [DW_OP_deref] $sp
	.loc	130 189 3               // kernel/block/mas_blk_mq_tag.c:189:3
	mov	x0, x22
	bl	prepare_to_wait
.Ltmp134:
	.loc	130 191 9 is_stmt 1     // kernel/block/mas_blk_mq_tag.c:191:9
	mov	x0, x19
	mov	x1, x20
	mov	x2, x21
	bl	ufs_try_get_tag
	mov	w23, w0
.Ltmp135:
	//DEBUG_VALUE: ufs_tagset_bt_get_slowpath:tag <- $w23
	.loc	130 192 7               // kernel/block/mas_blk_mq_tag.c:192:7
	cmn	w0, #1                  // =1
	b.ne	.LBB1_41
.Ltmp136:
// %bb.15:
	//DEBUG_VALUE: ufs_tagset_bt_get_slowpath:tag <- $w23
	//DEBUG_VALUE: ufs_tagset_bt_get_slowpath:wait <- [DW_OP_deref] $sp
	//DEBUG_VALUE: ufs_tagset_bt_get_slowpath:hctx <- $x21
	//DEBUG_VALUE: ufs_tagset_bt_get_slowpath:bt <- $x20
	//DEBUG_VALUE: ufs_tagset_bt_get_slowpath:data <- $x19
	//DEBUG_VALUE: ufs_tagset_bt_get:data <- $x19
	//DEBUG_VALUE: ufs_tagset_bt_get:bt <- $x20
	//DEBUG_VALUE: ufs_tagset_bt_get:hctx <- $x21
	.loc	130 0 7 is_stmt 0       // kernel/block/mas_blk_mq_tag.c:0:7
	adrp	x26, cpu_number
	adrp	x27, __per_cpu_offset
	add	x26, x26, :lo12:cpu_number
	add	x27, x27, :lo12:__per_cpu_offset
	//APP
	//NO_APP
.Ltmp137:
.LBB1_16:                               // =>This Inner Loop Header: Depth=1
	//DEBUG_VALUE: ufs_tagset_bt_get_slowpath:tag <- $w23
	//DEBUG_VALUE: ufs_tagset_bt_get_slowpath:wait <- [DW_OP_deref] $sp
	//DEBUG_VALUE: ufs_tagset_bt_get_slowpath:hctx <- $x21
	//DEBUG_VALUE: ufs_tagset_bt_get_slowpath:bt <- $x20
	//DEBUG_VALUE: ufs_tagset_bt_get_slowpath:data <- $x19
	//DEBUG_VALUE: ufs_tagset_bt_get:data <- $x19
	//DEBUG_VALUE: ufs_tagset_bt_get:bt <- $x20
	//DEBUG_VALUE: ufs_tagset_bt_get:hctx <- $x21
	//DEBUG_VALUE: ufs_tagset_bt_get_slowpath:bt <- $x20
	//DEBUG_VALUE: ufs_tagset_bt_get_slowpath:hctx <- $x21
	.loc	130 195 24 is_stmt 1    // kernel/block/mas_blk_mq_tag.c:195:24
	ldr	x8, [x19, #48]
.Ltmp138:
	//DEBUG_VALUE: blk_mq_put_ctx:ctx <- $x8
	.loc	90 115 11               // kernel/block/blk-mq.h:115:11
	ldr	x8, [x8, #144]
.Ltmp139:
	.loc	90 115 18 is_stmt 0     // kernel/block/blk-mq.h:115:18
	ldr	x8, [x8, #1816]
	.loc	90 115 32               // kernel/block/blk-mq.h:115:32
	cbz	x8, .LBB1_22
.Ltmp140:
// %bb.17:                              //   in Loop: Header=BB1_16 Depth=1
	//DEBUG_VALUE: ufs_tagset_bt_get_slowpath:tag <- $w23
	//DEBUG_VALUE: ufs_tagset_bt_get_slowpath:wait <- [DW_OP_deref] $sp
	//DEBUG_VALUE: ufs_tagset_bt_get_slowpath:hctx <- $x21
	//DEBUG_VALUE: ufs_tagset_bt_get_slowpath:bt <- $x20
	//DEBUG_VALUE: ufs_tagset_bt_get_slowpath:data <- $x19
	//DEBUG_VALUE: ufs_tagset_bt_get:data <- $x19
	//DEBUG_VALUE: ufs_tagset_bt_get:bt <- $x20
	//DEBUG_VALUE: ufs_tagset_bt_get:hctx <- $x21
	.loc	90 115 62               // kernel/block/blk-mq.h:115:62
	ldr	x8, [x8, #80]
.Ltmp141:
	.loc	90 115 6                // kernel/block/blk-mq.h:115:6
	cbz	x8, .LBB1_22
.Ltmp142:
// %bb.18:                              //   in Loop: Header=BB1_16 Depth=1
	//DEBUG_VALUE: ufs_tagset_bt_get_slowpath:tag <- $w23
	//DEBUG_VALUE: ufs_tagset_bt_get_slowpath:wait <- [DW_OP_deref] $sp
	//DEBUG_VALUE: ufs_tagset_bt_get_slowpath:hctx <- $x21
	//DEBUG_VALUE: ufs_tagset_bt_get_slowpath:bt <- $x20
	//DEBUG_VALUE: ufs_tagset_bt_get_slowpath:data <- $x19
	//DEBUG_VALUE: ufs_tagset_bt_get:data <- $x19
	//DEBUG_VALUE: ufs_tagset_bt_get:bt <- $x20
	//DEBUG_VALUE: ufs_tagset_bt_get:hctx <- $x21
	.loc	90 116 3 is_stmt 1      // kernel/block/blk-mq.h:116:3
	blr	x8
.Ltmp143:
	//DEBUG_VALUE: ufs_sbitmap_is_fg:data <- $x19
	.loc	130 127 16              // kernel/block/mas_blk_mq_tag.c:127:16
	ldr	x8, [x19, #8]
.Ltmp144:
	.loc	130 196 7               // kernel/block/mas_blk_mq_tag.c:196:7
	tbnz	w8, #23, .LBB1_25
.Ltmp145:
.LBB1_19:                               //   in Loop: Header=BB1_16 Depth=1
	//DEBUG_VALUE: ufs_tagset_bt_get_slowpath:tag <- $w23
	//DEBUG_VALUE: ufs_tagset_bt_get_slowpath:wait <- [DW_OP_deref] $sp
	//DEBUG_VALUE: ufs_tagset_bt_get_slowpath:hctx <- $x21
	//DEBUG_VALUE: ufs_tagset_bt_get_slowpath:bt <- $x20
	//DEBUG_VALUE: ufs_tagset_bt_get_slowpath:data <- $x19
	//DEBUG_VALUE: ufs_tagset_bt_get:data <- $x19
	//DEBUG_VALUE: ufs_tagset_bt_get:bt <- $x20
	//DEBUG_VALUE: ufs_tagset_bt_get:hctx <- $x21
	.loc	130 0 0 is_stmt 0       // kernel/block/mas_blk_mq_tag.c:0:0
	and	x8, x8, x24
	.loc	130 196 7               // kernel/block/mas_blk_mq_tag.c:196:7
	cbz	x8, .LBB1_25
.Ltmp146:
// %bb.20:                              //   in Loop: Header=BB1_16 Depth=1
	//DEBUG_VALUE: ufs_tagset_bt_get_slowpath:tag <- $w23
	//DEBUG_VALUE: ufs_tagset_bt_get_slowpath:wait <- [DW_OP_deref] $sp
	//DEBUG_VALUE: ufs_tagset_bt_get_slowpath:hctx <- $x21
	//DEBUG_VALUE: ufs_tagset_bt_get_slowpath:bt <- $x20
	//DEBUG_VALUE: ufs_tagset_bt_get_slowpath:data <- $x19
	//DEBUG_VALUE: ufs_tagset_bt_get:data <- $x19
	//DEBUG_VALUE: ufs_tagset_bt_get:bt <- $x20
	//DEBUG_VALUE: ufs_tagset_bt_get:hctx <- $x21
	.loc	130 197 9 is_stmt 1     // kernel/block/mas_blk_mq_tag.c:197:9
	orr	w0, wzr, #0x1
	bl	io_schedule_timeout
.Ltmp147:
	.loc	130 197 8 is_stmt 0     // kernel/block/mas_blk_mq_tag.c:197:8
	cbnz	x0, .LBB1_26
.Ltmp148:
// %bb.21:                              //   in Loop: Header=BB1_16 Depth=1
	//DEBUG_VALUE: ufs_tagset_bt_get_slowpath:tag <- $w23
	//DEBUG_VALUE: ufs_tagset_bt_get_slowpath:wait <- [DW_OP_deref] $sp
	//DEBUG_VALUE: ufs_tagset_bt_get_slowpath:hctx <- $x21
	//DEBUG_VALUE: ufs_tagset_bt_get_slowpath:bt <- $x20
	//DEBUG_VALUE: ufs_tagset_bt_get_slowpath:data <- $x19
	//DEBUG_VALUE: ufs_tagset_bt_get:data <- $x19
	//DEBUG_VALUE: ufs_tagset_bt_get:bt <- $x20
	//DEBUG_VALUE: ufs_tagset_bt_get:hctx <- $x21
	.loc	130 198 5 is_stmt 1     // kernel/block/mas_blk_mq_tag.c:198:5
	mov	x0, x19
	bl	reset_vip_wait_cnt
	b	.LBB1_26
.Ltmp149:
.LBB1_22:                               //   in Loop: Header=BB1_16 Depth=1
	//DEBUG_VALUE: ufs_tagset_bt_get_slowpath:tag <- $w23
	//DEBUG_VALUE: ufs_tagset_bt_get_slowpath:wait <- [DW_OP_deref] $sp
	//DEBUG_VALUE: ufs_tagset_bt_get_slowpath:hctx <- $x21
	//DEBUG_VALUE: ufs_tagset_bt_get_slowpath:bt <- $x20
	//DEBUG_VALUE: ufs_tagset_bt_get_slowpath:data <- $x19
	//DEBUG_VALUE: ufs_tagset_bt_get:data <- $x19
	//DEBUG_VALUE: ufs_tagset_bt_get:bt <- $x20
	//DEBUG_VALUE: ufs_tagset_bt_get:hctx <- $x21
	.loc	90 119 3                // kernel/block/blk-mq.h:119:3
	//APP
	//NO_APP
.Ltmp150:
	.file	132 "/mnt/disk/jenkins/ci/workspace/chipset_pipeline_release/opensource/component_code/vendor/huawei/extra/build/build_script/kirin_kernel_release/kernel/include/asm-generic/preempt.h"
	.loc	132 69 10               // kernel/include/asm-generic/preempt.h:69:10
	ldr	w8, [x25, #16]
	subs	w8, w8, #1              // =1
	str	w8, [x25, #16]
	.loc	132 69 33 is_stmt 0     // kernel/include/asm-generic/preempt.h:69:33
	b.ne	.LBB1_24
.Ltmp151:
// %bb.23:                              //   in Loop: Header=BB1_16 Depth=1
	//DEBUG_VALUE: ufs_tagset_bt_get_slowpath:tag <- $w23
	//DEBUG_VALUE: ufs_tagset_bt_get_slowpath:wait <- [DW_OP_deref] $sp
	//DEBUG_VALUE: ufs_tagset_bt_get_slowpath:hctx <- $x21
	//DEBUG_VALUE: ufs_tagset_bt_get_slowpath:bt <- $x20
	//DEBUG_VALUE: ufs_tagset_bt_get_slowpath:data <- $x19
	//DEBUG_VALUE: ufs_tagset_bt_get:data <- $x19
	//DEBUG_VALUE: ufs_tagset_bt_get:bt <- $x20
	//DEBUG_VALUE: ufs_tagset_bt_get:hctx <- $x21
	//DEBUG_VALUE: test_ti_thread_flag:flag <- 1
	//DEBUG_VALUE: test_bit:nr <- 1
	.file	133 "/mnt/disk/jenkins/ci/workspace/chipset_pipeline_release/opensource/component_code/vendor/huawei/extra/build/build_script/kirin_kernel_release/kernel/include/asm-generic/bitops/non-atomic.h"
	.loc	133 106 16 is_stmt 1    // kernel/include/asm-generic/bitops/non-atomic.h:106:16
	ldr	x8, [x25]
.Ltmp152:
	.loc	90 119 3                // kernel/block/blk-mq.h:119:3
	tbnz	w8, #1, .LBB1_33
.Ltmp153:
.LBB1_24:                               //   in Loop: Header=BB1_16 Depth=1
	//DEBUG_VALUE: ufs_tagset_bt_get_slowpath:tag <- $w23
	//DEBUG_VALUE: ufs_tagset_bt_get_slowpath:wait <- [DW_OP_deref] $sp
	//DEBUG_VALUE: ufs_tagset_bt_get_slowpath:hctx <- $x21
	//DEBUG_VALUE: ufs_tagset_bt_get_slowpath:bt <- $x20
	//DEBUG_VALUE: ufs_tagset_bt_get_slowpath:data <- $x19
	//DEBUG_VALUE: ufs_tagset_bt_get:data <- $x19
	//DEBUG_VALUE: ufs_tagset_bt_get:bt <- $x20
	//DEBUG_VALUE: ufs_tagset_bt_get:hctx <- $x21
	//DEBUG_VALUE: ufs_sbitmap_is_fg:data <- $x19
	.loc	130 127 16              // kernel/block/mas_blk_mq_tag.c:127:16
	ldr	x8, [x19, #8]
.Ltmp154:
	.loc	130 196 7               // kernel/block/mas_blk_mq_tag.c:196:7
	tbz	w8, #23, .LBB1_19
.Ltmp155:
.LBB1_25:                               //   in Loop: Header=BB1_16 Depth=1
	//DEBUG_VALUE: ufs_tagset_bt_get_slowpath:tag <- $w23
	//DEBUG_VALUE: ufs_tagset_bt_get_slowpath:wait <- [DW_OP_deref] $sp
	//DEBUG_VALUE: ufs_tagset_bt_get_slowpath:hctx <- $x21
	//DEBUG_VALUE: ufs_tagset_bt_get_slowpath:bt <- $x20
	//DEBUG_VALUE: ufs_tagset_bt_get_slowpath:data <- $x19
	//DEBUG_VALUE: ufs_tagset_bt_get:data <- $x19
	//DEBUG_VALUE: ufs_tagset_bt_get:bt <- $x20
	//DEBUG_VALUE: ufs_tagset_bt_get:hctx <- $x21
	.loc	130 200 4               // kernel/block/mas_blk_mq_tag.c:200:4
	bl	io_schedule
.Ltmp156:
.LBB1_26:                               //   in Loop: Header=BB1_16 Depth=1
	//DEBUG_VALUE: ufs_tagset_bt_get_slowpath:tag <- $w23
	//DEBUG_VALUE: ufs_tagset_bt_get_slowpath:wait <- [DW_OP_deref] $sp
	//DEBUG_VALUE: ufs_tagset_bt_get_slowpath:hctx <- $x21
	//DEBUG_VALUE: ufs_tagset_bt_get_slowpath:bt <- $x20
	//DEBUG_VALUE: ufs_tagset_bt_get_slowpath:data <- $x19
	//DEBUG_VALUE: ufs_tagset_bt_get:data <- $x19
	//DEBUG_VALUE: ufs_tagset_bt_get:bt <- $x20
	//DEBUG_VALUE: ufs_tagset_bt_get:hctx <- $x21
	.loc	130 203 36              // kernel/block/mas_blk_mq_tag.c:203:36
	ldr	x8, [x19]
.Ltmp157:
	//DEBUG_VALUE: __preempt_count_add:val <- 1
	//DEBUG_VALUE: blk_mq_get_ctx:q <- $x8
	.loc	132 54 23               // kernel/include/asm-generic/preempt.h:54:23
	ldr	w9, [x25, #16]
	add	w9, w9, #1              // =1
	str	w9, [x25, #16]
.Ltmp158:
	.loc	90 109 29               // kernel/block/blk-mq.h:109:29
	//APP
	//NO_APP
.Ltmp159:
	//DEBUG_VALUE: __ptr <- $x26
	.file	134 "/mnt/disk/jenkins/ci/workspace/chipset_pipeline_release/opensource/component_code/vendor/huawei/extra/build/build_script/kirin_kernel_release/kernel/arch/arm64/include/asm/percpu.h"
	.loc	134 38 2                // kernel/arch/arm64/include/asm/percpu.h:38:2
	//APP
	.if 1 == 1
661:
	mrs x9, tpidr_el1
662:
.pushsection .altinstructions,"a"
 .word 661b - .
 .if 0 == 0
 .word 663f - .
 .else
 .word 0- .
 .endif
 .hword 11
 .byte 662b-661b
 .byte 664f-663f
.popsection
 .if 0 == 0
.pushsection .altinstr_replacement, "a"
663:
	mrs x9, tpidr_el2
664:
	.popsection
	.org	. - (664b-663b) + (662b-661b)
	.org	. - (662b-661b) + (664b-663b)
.else
	663:
	664:
	.endif
.endif

	//NO_APP
.Ltmp160:
	//DEBUG_VALUE: __my_cpu_offset:off <- $x9
	.loc	90 109 29               // kernel/block/blk-mq.h:109:29
	ldr	w9, [x9, x26]
.Ltmp161:
	//DEBUG_VALUE: __blk_mq_get_ctx:cpu <- undef
	//DEBUG_VALUE: __blk_mq_get_ctx:q <- $x8
	.loc	90 98 9                 // kernel/block/blk-mq.h:98:9
	ldr	x8, [x8, #328]
.Ltmp162:
	.loc	130 204 39              // kernel/block/mas_blk_mq_tag.c:204:39
	ldr	x10, [x19]
.Ltmp163:
	.loc	90 98 9                 // kernel/block/blk-mq.h:98:9
	//APP
	//NO_APP
.Ltmp164:
	//DEBUG_VALUE: __ptr <- $x8
	ldr	x9, [x27, x9, lsl #3]
	add	x8, x9, x8
.Ltmp165:
	.loc	130 203 13              // kernel/block/mas_blk_mq_tag.c:203:13
	str	x8, [x19, #48]
	.loc	130 204 53              // kernel/block/mas_blk_mq_tag.c:204:53
	ldrsw	x8, [x8, #64]
.Ltmp166:
	//DEBUG_VALUE: blk_mq_map_queue:cpu <- undef
	//DEBUG_VALUE: blk_mq_map_queue:q <- $x10
	.loc	90 78 28                // kernel/block/blk-mq.h:78:28
	ldr	x9, [x10, #320]
	.loc	90 78 12 is_stmt 0      // kernel/block/blk-mq.h:78:12
	ldr	x10, [x10, #344]
.Ltmp167:
	.loc	90 78 25                // kernel/block/blk-mq.h:78:25
	ldr	w8, [x9, x8, lsl #2]
	.loc	90 78 9                 // kernel/block/blk-mq.h:78:9
	ldr	x8, [x10, x8, lsl #3]
.Ltmp168:
	.loc	130 204 14 is_stmt 1    // kernel/block/mas_blk_mq_tag.c:204:14
	str	x8, [x19, #56]
	.loc	130 205 7               // kernel/block/mas_blk_mq_tag.c:205:7
	cbz	x8, .LBB1_39
.Ltmp169:
// %bb.27:                              //   in Loop: Header=BB1_16 Depth=1
	//DEBUG_VALUE: ufs_tagset_bt_get_slowpath:tag <- $w23
	//DEBUG_VALUE: ufs_tagset_bt_get_slowpath:wait <- [DW_OP_deref] $sp
	//DEBUG_VALUE: ufs_tagset_bt_get_slowpath:hctx <- $x21
	//DEBUG_VALUE: ufs_tagset_bt_get_slowpath:bt <- $x20
	//DEBUG_VALUE: ufs_tagset_bt_get_slowpath:data <- $x19
	//DEBUG_VALUE: ufs_tagset_bt_get:data <- $x19
	//DEBUG_VALUE: ufs_tagset_bt_get:bt <- $x20
	//DEBUG_VALUE: ufs_tagset_bt_get:hctx <- $x21
	.loc	130 208 7               // kernel/block/mas_blk_mq_tag.c:208:7
	cmp	x21, x8
	b.ne	.LBB1_29
.Ltmp170:
.LBB1_28:                               //   in Loop: Header=BB1_16 Depth=1
	//DEBUG_VALUE: ufs_tagset_bt_get_slowpath:tag <- $w23
	//DEBUG_VALUE: ufs_tagset_bt_get_slowpath:wait <- [DW_OP_deref] $sp
	//DEBUG_VALUE: ufs_tagset_bt_get_slowpath:bt <- $x20
	//DEBUG_VALUE: ufs_tagset_bt_get_slowpath:data <- $x19
	//DEBUG_VALUE: ufs_tagset_bt_get:data <- $x19
	//DEBUG_VALUE: ufs_tagset_bt_get_slowpath:bt <- $x20
	//DEBUG_VALUE: ufs_tagset_bt_get_slowpath:hctx <- $x21
	//DEBUG_VALUE: ufs_tagset_bt_get_slowpath:wait <- [DW_OP_deref] $sp
	//DEBUG_LABEL: finish_wait
	.loc	130 221 3               // kernel/block/mas_blk_mq_tag.c:221:3
	mov	x1, sp
	mov	x0, x22
	bl	finish_wait
	.loc	130 189 3               // kernel/block/mas_blk_mq_tag.c:189:3
	mov	x1, sp
	orr	w2, wzr, #0x2
	mov	x0, x22
	bl	prepare_to_wait
	.loc	130 191 9               // kernel/block/mas_blk_mq_tag.c:191:9
	mov	x0, x19
	mov	x1, x20
	mov	x2, x21
	bl	ufs_try_get_tag
	.loc	130 192 7               // kernel/block/mas_blk_mq_tag.c:192:7
	cmn	w0, #1                  // =1
	b.eq	.LBB1_16
	b	.LBB1_40
.Ltmp171:
.LBB1_29:                               //   in Loop: Header=BB1_16 Depth=1
	//DEBUG_VALUE: ufs_tagset_bt_get_slowpath:tag <- $w23
	//DEBUG_VALUE: ufs_tagset_bt_get_slowpath:wait <- [DW_OP_deref] $sp
	//DEBUG_VALUE: ufs_tagset_bt_get_slowpath:hctx <- $x21
	//DEBUG_VALUE: ufs_tagset_bt_get_slowpath:bt <- $x20
	//DEBUG_VALUE: ufs_tagset_bt_get_slowpath:data <- $x19
	//DEBUG_VALUE: ufs_tagset_bt_get:data <- $x19
	//DEBUG_VALUE: ufs_tagset_bt_get:bt <- $x20
	//DEBUG_VALUE: ufs_tagset_bt_get:hctx <- $x21
	.loc	130 211 7               // kernel/block/mas_blk_mq_tag.c:211:7
	ldr	x9, [x19, #8]
.Ltmp172:
	.loc	130 211 7 is_stmt 0     // kernel/block/mas_blk_mq_tag.c:211:7
	tbz	w9, #11, .LBB1_34
.Ltmp173:
// %bb.30:                              //   in Loop: Header=BB1_16 Depth=1
	//DEBUG_VALUE: ufs_tagset_bt_get_slowpath:tag <- $w23
	//DEBUG_VALUE: ufs_tagset_bt_get_slowpath:wait <- [DW_OP_deref] $sp
	//DEBUG_VALUE: ufs_tagset_bt_get_slowpath:hctx <- $x21
	//DEBUG_VALUE: ufs_tagset_bt_get_slowpath:bt <- $x20
	//DEBUG_VALUE: ufs_tagset_bt_get_slowpath:data <- $x19
	//DEBUG_VALUE: ufs_tagset_bt_get:data <- $x19
	//DEBUG_VALUE: ufs_tagset_bt_get:bt <- $x20
	//DEBUG_VALUE: ufs_tagset_bt_get:hctx <- $x21
	.loc	130 0 0                 // kernel/block/mas_blk_mq_tag.c:0:0
	ldr	x10, [x8, #304]
	.loc	130 212 8 is_stmt 1     // kernel/block/mas_blk_mq_tag.c:212:8
	tst	x9, x24
.Ltmp174:
	.loc	130 212 8 is_stmt 0     // kernel/block/mas_blk_mq_tag.c:212:8
	b.ne	.LBB1_35
.Ltmp175:
// %bb.31:                              //   in Loop: Header=BB1_16 Depth=1
	//DEBUG_VALUE: ufs_tagset_bt_get_slowpath:tag <- $w23
	//DEBUG_VALUE: ufs_tagset_bt_get_slowpath:wait <- [DW_OP_deref] $sp
	//DEBUG_VALUE: ufs_tagset_bt_get_slowpath:hctx <- $x21
	//DEBUG_VALUE: ufs_tagset_bt_get_slowpath:bt <- $x20
	//DEBUG_VALUE: ufs_tagset_bt_get_slowpath:data <- $x19
	//DEBUG_VALUE: ufs_tagset_bt_get:data <- $x19
	//DEBUG_VALUE: ufs_tagset_bt_get:bt <- $x20
	//DEBUG_VALUE: ufs_tagset_bt_get:hctx <- $x21
	.loc	130 213 29 is_stmt 1    // kernel/block/mas_blk_mq_tag.c:213:29
	add	x20, x10, #40           // =40
.Ltmp176:
.LBB1_32:                               //   in Loop: Header=BB1_16 Depth=1
	//DEBUG_VALUE: ufs_tagset_bt_get_slowpath:tag <- $w23
	//DEBUG_VALUE: ufs_tagset_bt_get_slowpath:wait <- [DW_OP_deref] $sp
	//DEBUG_VALUE: ufs_tagset_bt_get_slowpath:hctx <- $x21
	//DEBUG_VALUE: ufs_tagset_bt_get_slowpath:data <- $x19
	//DEBUG_VALUE: ufs_tagset_bt_get:data <- $x19
	//DEBUG_VALUE: ufs_tagset_bt_get:hctx <- $x21
	//DEBUG_VALUE: ufs_tagset_bt_get_slowpath:bt <- $x20
	.loc	130 0 29 is_stmt 0      // kernel/block/mas_blk_mq_tag.c:0:29
	mov	x21, x8
.Ltmp177:
	b	.LBB1_28
.Ltmp178:
.LBB1_33:                               //   in Loop: Header=BB1_16 Depth=1
	//DEBUG_VALUE: ufs_tagset_bt_get_slowpath:tag <- $w23
	//DEBUG_VALUE: ufs_tagset_bt_get_slowpath:wait <- [DW_OP_deref] $sp
	//DEBUG_VALUE: ufs_tagset_bt_get_slowpath:hctx <- $x21
	//DEBUG_VALUE: ufs_tagset_bt_get_slowpath:bt <- $x20
	//DEBUG_VALUE: ufs_tagset_bt_get_slowpath:data <- $x19
	//DEBUG_VALUE: ufs_tagset_bt_get:data <- $x19
	//DEBUG_VALUE: ufs_tagset_bt_get:bt <- $x20
	//DEBUG_VALUE: ufs_tagset_bt_get:hctx <- $x21
	.loc	90 119 3 is_stmt 1      // kernel/block/blk-mq.h:119:3
	bl	preempt_schedule
.Ltmp179:
	//DEBUG_VALUE: ufs_sbitmap_is_fg:data <- $x19
	.loc	130 127 16              // kernel/block/mas_blk_mq_tag.c:127:16
	ldr	x8, [x19, #8]
.Ltmp180:
	.loc	130 196 7               // kernel/block/mas_blk_mq_tag.c:196:7
	tbz	w8, #23, .LBB1_19
	b	.LBB1_25
.Ltmp181:
.LBB1_34:                               //   in Loop: Header=BB1_16 Depth=1
	//DEBUG_VALUE: ufs_tagset_bt_get_slowpath:tag <- $w23
	//DEBUG_VALUE: ufs_tagset_bt_get_slowpath:wait <- [DW_OP_deref] $sp
	//DEBUG_VALUE: ufs_tagset_bt_get_slowpath:hctx <- $x21
	//DEBUG_VALUE: ufs_tagset_bt_get_slowpath:bt <- $x20
	//DEBUG_VALUE: ufs_tagset_bt_get_slowpath:data <- $x19
	//DEBUG_VALUE: ufs_tagset_bt_get:data <- $x19
	//DEBUG_VALUE: ufs_tagset_bt_get:bt <- $x20
	//DEBUG_VALUE: ufs_tagset_bt_get:hctx <- $x21
	.loc	130 217 22              // kernel/block/mas_blk_mq_tag.c:217:22
	ldr	x9, [x8, #304]
	.loc	130 217 28 is_stmt 0    // kernel/block/mas_blk_mq_tag.c:217:28
	add	x20, x9, #96            // =96
.Ltmp182:
	.loc	130 0 28                // kernel/block/mas_blk_mq_tag.c:0:28
	b	.LBB1_32
.Ltmp183:
.LBB1_35:                               //   in Loop: Header=BB1_16 Depth=1
	//DEBUG_VALUE: ufs_tagset_bt_get_slowpath:tag <- $w23
	//DEBUG_VALUE: ufs_tagset_bt_get_slowpath:wait <- [DW_OP_deref] $sp
	//DEBUG_VALUE: ufs_tagset_bt_get_slowpath:hctx <- $x21
	//DEBUG_VALUE: ufs_tagset_bt_get_slowpath:bt <- $x20
	//DEBUG_VALUE: ufs_tagset_bt_get_slowpath:data <- $x19
	//DEBUG_VALUE: ufs_tagset_bt_get:data <- $x19
	//DEBUG_VALUE: ufs_tagset_bt_get:bt <- $x20
	//DEBUG_VALUE: ufs_tagset_bt_get:hctx <- $x21
	.loc	130 215 29 is_stmt 1    // kernel/block/mas_blk_mq_tag.c:215:29
	add	x20, x10, #152          // =152
.Ltmp184:
	.loc	130 0 29 is_stmt 0      // kernel/block/mas_blk_mq_tag.c:0:29
	b	.LBB1_32
.Ltmp185:
.LBB1_36:
	mov	w23, #-1
.LBB1_37:
	adrp	x9, __stack_chk_guard
	ldr	x8, [sp, #40]
	ldr	x9, [x9, :lo12:__stack_chk_guard]
	cmp	x9, x8
	b.ne	.LBB1_44
// %bb.38:
	.loc	130 252 1 is_stmt 1     // kernel/block/mas_blk_mq_tag.c:252:1
	mov	w0, w23
	ldp	x29, x30, [sp, #128]    // 16-byte Folded Reload
	ldp	x20, x19, [sp, #112]    // 16-byte Folded Reload
	ldp	x22, x21, [sp, #96]     // 16-byte Folded Reload
	ldp	x24, x23, [sp, #80]     // 16-byte Folded Reload
	ldp	x26, x25, [sp, #64]     // 16-byte Folded Reload
	ldr	x27, [sp, #48]          // 8-byte Folded Reload
	add	sp, sp, #144            // =144
	ret
.LBB1_39:
.Ltmp186:
	//DEBUG_VALUE: ufs_tagset_bt_get_slowpath:tag <- $w23
	//DEBUG_VALUE: ufs_tagset_bt_get_slowpath:wait <- [DW_OP_deref] $sp
	//DEBUG_VALUE: ufs_tagset_bt_get_slowpath:hctx <- $x21
	//DEBUG_VALUE: ufs_tagset_bt_get_slowpath:bt <- $x20
	//DEBUG_VALUE: ufs_tagset_bt_get_slowpath:data <- $x19
	//DEBUG_VALUE: ufs_tagset_bt_get:data <- $x19
	//DEBUG_VALUE: ufs_tagset_bt_get:bt <- $x20
	//DEBUG_VALUE: ufs_tagset_bt_get:hctx <- $x21
	.loc	130 0 1 is_stmt 0       // kernel/block/mas_blk_mq_tag.c:0:1
	mov	w23, #-1
.Ltmp187:
	.loc	130 224 6 is_stmt 1     // kernel/block/mas_blk_mq_tag.c:224:6
	ldrb	w8, [x19, #10]
	tbz	w8, #7, .LBB1_43
	b	.LBB1_42
.Ltmp188:
.LBB1_40:
	//DEBUG_VALUE: ufs_tagset_bt_get_slowpath:tag <- $w23
	//DEBUG_VALUE: ufs_tagset_bt_get_slowpath:wait <- [DW_OP_deref] $sp
	//DEBUG_VALUE: ufs_tagset_bt_get_slowpath:hctx <- $x21
	//DEBUG_VALUE: ufs_tagset_bt_get_slowpath:bt <- $x20
	//DEBUG_VALUE: ufs_tagset_bt_get_slowpath:data <- $x19
	//DEBUG_VALUE: ufs_tagset_bt_get:data <- $x19
	.loc	130 0 6 is_stmt 0       // kernel/block/mas_blk_mq_tag.c:0:6
	mov	w23, w0
.Ltmp189:
	//DEBUG_VALUE: ufs_tagset_bt_get_slowpath:tag <- $w23
.LBB1_41:
	//DEBUG_VALUE: ufs_tagset_bt_get_slowpath:tag <- $w23
	//DEBUG_VALUE: ufs_tagset_bt_get_slowpath:wait <- [DW_OP_deref] $sp
	//DEBUG_VALUE: ufs_tagset_bt_get_slowpath:hctx <- $x21
	//DEBUG_VALUE: ufs_tagset_bt_get_slowpath:bt <- $x20
	//DEBUG_VALUE: ufs_tagset_bt_get_slowpath:data <- $x19
	//DEBUG_VALUE: ufs_tagset_bt_get:data <- $x19
	.loc	130 224 6               // kernel/block/mas_blk_mq_tag.c:224:6
	ldrb	w8, [x19, #10]
	tbz	w8, #7, .LBB1_43
.Ltmp190:
.LBB1_42:
	//DEBUG_VALUE: ufs_tagset_bt_get_slowpath:wait <- [DW_OP_deref] $sp
	//DEBUG_VALUE: ufs_tagset_bt_get_slowpath:hctx <- $x21
	//DEBUG_VALUE: ufs_tagset_bt_get_slowpath:bt <- $x20
	//DEBUG_VALUE: ufs_tagset_bt_get_slowpath:data <- $x19
	//DEBUG_VALUE: ufs_tagset_bt_get:data <- $x19
	.loc	130 225 3 is_stmt 1     // kernel/block/mas_blk_mq_tag.c:225:3
	mov	x0, x19
	bl	ufs_mq_dec_vip_wait_cnt
.Ltmp191:
.LBB1_43:
	//DEBUG_VALUE: ufs_tagset_bt_get_slowpath:wait <- [DW_OP_deref] $sp
	//DEBUG_VALUE: ufs_tagset_bt_get_slowpath:hctx <- $x21
	//DEBUG_VALUE: ufs_tagset_bt_get_slowpath:bt <- $x20
	//DEBUG_VALUE: ufs_tagset_bt_get_slowpath:data <- $x19
	//DEBUG_VALUE: ufs_tagset_bt_get:data <- $x19
	//DEBUG_VALUE: ufs_tagset_bt_get_slowpath:wait <- [DW_OP_deref] $sp
	.loc	130 227 2               // kernel/block/mas_blk_mq_tag.c:227:2
	mov	x1, sp
	mov	x0, x22
	bl	finish_wait
	b	.LBB1_37
.Ltmp192:
.LBB1_44:
	.loc	130 0 2 is_stmt 0       // kernel/block/mas_blk_mq_tag.c:0:2
	bl	__stack_chk_fail
.Lfunc_end1:
	.size	ufs_tagset_bt_get, .Lfunc_end1-ufs_tagset_bt_get
	.cfi_endproc
	.file	135 "/mnt/disk/jenkins/ci/workspace/chipset_pipeline_release/opensource/component_code/vendor/huawei/extra/build/build_script/kirin_kernel_release/kernel/include/linux/thread_info.h"
                                        // -- End function
	.section	.text.ufs_tagset_bt_get_unistore,"ax",@progbits
	.hidden	ufs_tagset_bt_get_unistore // -- Begin function ufs_tagset_bt_get_unistore
	.globl	ufs_tagset_bt_get_unistore
	.p2align	2
	.type	ufs_tagset_bt_get_unistore,@function
ufs_tagset_bt_get_unistore:             // @ufs_tagset_bt_get_unistore
.Lfunc_begin2:
	.loc	130 307 0 is_stmt 1     // kernel/block/mas_blk_mq_tag.c:307:0
	.cfi_startproc
// %bb.0:
	//DEBUG_VALUE: ufs_tagset_bt_get_unistore:data <- $x0
	//DEBUG_VALUE: ufs_tagset_bt_get_unistore:highprio <- $x1
	sub	sp, sp, #144            // =144
	stp	x28, x27, [sp, #48]     // 16-byte Folded Spill
	stp	x26, x25, [sp, #64]     // 16-byte Folded Spill
	stp	x24, x23, [sp, #80]     // 16-byte Folded Spill
	stp	x22, x21, [sp, #96]     // 16-byte Folded Spill
	stp	x20, x19, [sp, #112]    // 16-byte Folded Spill
	stp	x29, x30, [sp, #128]    // 16-byte Folded Spill
	add	x29, sp, #128           // =128
	.cfi_def_cfa w29, 16
	.cfi_offset w30, -8
	.cfi_offset w29, -16
	.cfi_offset w19, -24
	.cfi_offset w20, -32
	.cfi_offset w21, -40
	.cfi_offset w22, -48
	.cfi_offset w23, -56
	.cfi_offset w24, -64
	.cfi_offset w25, -72
	.cfi_offset w26, -80
	.cfi_offset w27, -88
	.cfi_offset w28, -96
	adrp	x8, __stack_chk_guard
	ldr	x8, [x8, :lo12:__stack_chk_guard]
	str	x8, [sp, #40]
.Ltmp193:
	//DEBUG_VALUE: ufs_tagset_bt_get_unistore:tag <- 0
	.loc	130 309 36 prologue_end // kernel/block/mas_blk_mq_tag.c:309:36
	ldr	x21, [x0, #56]
.Ltmp194:
	//DEBUG_VALUE: ufs_tagset_bt_get_unistore:hctx <- $x21
	//DEBUG_VALUE: ufs_tagset_bt_get_slowpath_unistore:hctx <- $x21
	.loc	130 312 6               // kernel/block/mas_blk_mq_tag.c:312:6
	cbz	x21, .LBB2_26
.Ltmp195:
// %bb.1:
	//DEBUG_VALUE: ufs_tagset_bt_get_slowpath_unistore:hctx <- $x21
	//DEBUG_VALUE: ufs_tagset_bt_get_unistore:hctx <- $x21
	//DEBUG_VALUE: ufs_tagset_bt_get_unistore:highprio <- $x1
	//DEBUG_VALUE: ufs_tagset_bt_get_unistore:data <- $x0
	.loc	130 0 0 is_stmt 0       // kernel/block/mas_blk_mq_tag.c:0:0
	ldr	x23, [x21, #304]
.Ltmp196:
	.loc	130 127 16 is_stmt 1    // kernel/block/mas_blk_mq_tag.c:127:16
	ldr	x8, [x0, #8]
	mov	w25, #4096
	mov	x19, x0
.Ltmp197:
	//DEBUG_VALUE: ufs_tagset_bt_get_unistore:data <- $x19
	.loc	130 0 16 is_stmt 0      // kernel/block/mas_blk_mq_tag.c:0:16
	mov	x20, x1
.Ltmp198:
	//DEBUG_VALUE: ufs_tagset_bt_get_unistore:highprio <- $x20
	add	x22, x23, #40           // =40
.Ltmp199:
	//DEBUG_VALUE: ufs_sbitmap_is_fg:data <- $x19
	//DEBUG_VALUE: ufs_tagset_bt_get_unistore:bt <- $x22
	//DEBUG_VALUE: ufs_tagset_bt_get_slowpath_unistore:bt <- $x22
	movk	w25, #64, lsl #16
.Ltmp200:
	//DEBUG_VALUE: ufs_sbitmap_queue_get:data <- $x19
	//DEBUG_VALUE: ufs_sbitmap_queue_get:bt <- $x22
	.loc	130 143 6 is_stmt 1     // kernel/block/mas_blk_mq_tag.c:143:6
	tbnz	w8, #23, .LBB2_6
.Ltmp201:
// %bb.2:
	//DEBUG_VALUE: ufs_sbitmap_queue_get:bt <- $x22
	//DEBUG_VALUE: ufs_sbitmap_queue_get:data <- $x19
	//DEBUG_VALUE: ufs_tagset_bt_get_unistore:bt <- $x22
	//DEBUG_VALUE: ufs_tagset_bt_get_unistore:highprio <- $x20
	//DEBUG_VALUE: ufs_tagset_bt_get_unistore:data <- $x19
	//DEBUG_VALUE: ufs_tagset_bt_get_unistore:hctx <- $x21
	.loc	130 0 0 is_stmt 0       // kernel/block/mas_blk_mq_tag.c:0:0
	and	x8, x8, x25
	.loc	130 143 6               // kernel/block/mas_blk_mq_tag.c:143:6
	cbz	x8, .LBB2_6
.Ltmp202:
// %bb.3:
	//DEBUG_VALUE: ufs_sbitmap_queue_get:bt <- $x22
	//DEBUG_VALUE: ufs_sbitmap_queue_get:data <- $x19
	//DEBUG_VALUE: ufs_tagset_bt_get_unistore:bt <- $x22
	//DEBUG_VALUE: ufs_tagset_bt_get_unistore:highprio <- $x20
	//DEBUG_VALUE: ufs_tagset_bt_get_unistore:data <- $x19
	//DEBUG_VALUE: ufs_tagset_bt_get_unistore:hctx <- $x21
	mov	x0, x19
	bl	ufs_mq_vip_tag_wait_cnt
	cbz	w0, .LBB2_6
.Ltmp203:
// %bb.4:
	//DEBUG_VALUE: ufs_sbitmap_queue_get:bt <- $x22
	//DEBUG_VALUE: ufs_sbitmap_queue_get:data <- $x19
	//DEBUG_VALUE: ufs_tagset_bt_get_unistore:bt <- $x22
	//DEBUG_VALUE: ufs_tagset_bt_get_unistore:highprio <- $x20
	//DEBUG_VALUE: ufs_tagset_bt_get_unistore:data <- $x19
	//DEBUG_VALUE: ufs_tagset_bt_get_unistore:hctx <- $x21
	//DEBUG_VALUE: ufs_sbitmap_fg_starved:data <- $x19
	.loc	130 133 13 is_stmt 1    // kernel/block/mas_blk_mq_tag.c:133:13
	ldr	x8, [x19, #32]
.Ltmp204:
	.loc	130 133 6 is_stmt 0     // kernel/block/mas_blk_mq_tag.c:133:6
	cbz	x8, .LBB2_7
.Ltmp205:
// %bb.5:
	//DEBUG_VALUE: ufs_sbitmap_fg_starved:data <- $x19
	//DEBUG_VALUE: ufs_sbitmap_queue_get:bt <- $x22
	//DEBUG_VALUE: ufs_sbitmap_queue_get:data <- $x19
	//DEBUG_VALUE: ufs_tagset_bt_get_unistore:bt <- $x22
	//DEBUG_VALUE: ufs_tagset_bt_get_unistore:highprio <- $x20
	//DEBUG_VALUE: ufs_tagset_bt_get_unistore:data <- $x19
	//DEBUG_VALUE: ufs_tagset_bt_get_unistore:hctx <- $x21
	.loc	130 136 21 is_stmt 1    // kernel/block/mas_blk_mq_tag.c:136:21
	bl	ktime_get
.Ltmp206:
	//DEBUG_VALUE: ktime_after:cmp1 <- $x0
	//DEBUG_VALUE: ktime_compare:cmp1 <- $x0
	.loc	130 137 22              // kernel/block/mas_blk_mq_tag.c:137:22
	ldr	x8, [x19, #32]
	mov	w9, #25856
	movk	w9, #7629, lsl #16
.Ltmp207:
	//DEBUG_VALUE: ktime_add_ms:msec <- 500
	//DEBUG_VALUE: ktime_add_ms:kt <- $x8
	.loc	32 200 9                // kernel/include/linux/ktime.h:200:9
	add	x8, x8, x9
.Ltmp208:
	//DEBUG_VALUE: ktime_compare:cmp2 <- $x8
	//DEBUG_VALUE: ktime_after:cmp2 <- $x8
	.loc	130 143 6               // kernel/block/mas_blk_mq_tag.c:143:6
	cmp	x0, x8
	b.le	.LBB2_7
.Ltmp209:
.LBB2_6:
	//DEBUG_VALUE: ufs_sbitmap_queue_get:bt <- $x22
	//DEBUG_VALUE: ufs_sbitmap_queue_get:data <- $x19
	//DEBUG_VALUE: ufs_tagset_bt_get_unistore:bt <- $x22
	//DEBUG_VALUE: ufs_tagset_bt_get_unistore:highprio <- $x20
	//DEBUG_VALUE: ufs_tagset_bt_get_unistore:data <- $x19
	//DEBUG_VALUE: ufs_tagset_bt_get_unistore:hctx <- $x21
	.loc	130 147 9               // kernel/block/mas_blk_mq_tag.c:147:9
	mov	x0, x22
	bl	__sbitmap_queue_get
	mov	w24, w0
.Ltmp210:
	//DEBUG_VALUE: ufs_tagset_bt_get_unistore:tag <- $w24
	.loc	130 316 6               // kernel/block/mas_blk_mq_tag.c:316:6
	cmn	w0, #1                  // =1
	b.ne	.LBB2_27
.Ltmp211:
.LBB2_7:
	//DEBUG_VALUE: ufs_tagset_bt_get_unistore:bt <- $x22
	//DEBUG_VALUE: ufs_tagset_bt_get_unistore:highprio <- $x20
	//DEBUG_VALUE: ufs_tagset_bt_get_unistore:data <- $x19
	//DEBUG_VALUE: ufs_tagset_bt_get_unistore:hctx <- $x21
	//DEBUG_VALUE: ufs_tagset_bt_get_slowpath_unistore:data <- $x19
	//DEBUG_VALUE: ufs_tagset_bt_get_slowpath_unistore:highprio <- $x20
	//DEBUG_VALUE: ufs_tagset_bt_get_slowpath_unistore:bs <- 0
	.loc	130 260 2               // kernel/block/mas_blk_mq_tag.c:260:2
	adrp	x8, autoremove_wake_function
	add	x8, x8, :lo12:autoremove_wake_function
	mov	x9, sp
.Ltmp212:
	.loc	131 19 2                // kernel/arch/arm64/include/asm/current.h:19:2
	//APP
	mrs x26, sp_el0
	//NO_APP
.Ltmp213:
	//DEBUG_VALUE: test_ti_thread_flag:ti <- $x26
	//DEBUG_VALUE: test_bit:addr <- $x26
	//DEBUG_VALUE: get_current:sp_el0 <- $x26
	//DEBUG_VALUE: get_current:sp_el0 <- $x26
	//DEBUG_VALUE: get_current:sp_el0 <- $x26
	//DEBUG_VALUE: get_current:sp_el0 <- $x26
	.loc	130 260 2               // kernel/block/mas_blk_mq_tag.c:260:2
	stp	x26, x8, [sp, #8]
	add	x8, x9, #24             // =24
	str	wzr, [sp]
	stp	x8, x8, [sp, #24]
	.loc	130 263 12              // kernel/block/mas_blk_mq_tag.c:263:12
	ldr	x8, [x23, #80]
.Ltmp214:
	//DEBUG_VALUE: ufs_tagset_bt_get_slowpath_unistore:bs <- $x8
	.loc	130 0 12 is_stmt 0      // kernel/block/mas_blk_mq_tag.c:0:12
	adrp	x28, cpu_number
	adrp	x27, __per_cpu_offset
	add	x28, x28, :lo12:cpu_number
	add	x23, x8, #8             // =8
	add	x27, x27, :lo12:__per_cpu_offset
	//APP
	//NO_APP
	b	.LBB2_9
.Ltmp215:
.LBB2_8:                                //   in Loop: Header=BB2_9 Depth=1
	//DEBUG_VALUE: ufs_tagset_bt_get_slowpath_unistore:tag <- $w24
	//DEBUG_VALUE: ufs_tagset_bt_get_slowpath_unistore:wait <- [DW_OP_deref] $sp
	//DEBUG_VALUE: ufs_tagset_bt_get_slowpath_unistore:highprio <- $x20
	//DEBUG_VALUE: ufs_tagset_bt_get_slowpath_unistore:data <- $x19
	//DEBUG_VALUE: ufs_tagset_bt_get_slowpath_unistore:bt <- $x22
	//DEBUG_VALUE: ufs_tagset_bt_get_unistore:highprio <- $x20
	//DEBUG_VALUE: ufs_tagset_bt_get_unistore:data <- $x19
	//DEBUG_VALUE: ufs_tagset_bt_get_slowpath_unistore:hctx <- $x21
	//DEBUG_VALUE: ufs_tagset_bt_get_slowpath_unistore:bt <- $x22
	//DEBUG_VALUE: ufs_tagset_bt_get_slowpath_unistore:wait <- [DW_OP_deref] $sp
	//DEBUG_LABEL: finish_wait
	.loc	130 297 3 is_stmt 1     // kernel/block/mas_blk_mq_tag.c:297:3
	mov	x1, sp
	mov	x0, x23
	bl	finish_wait
.Ltmp216:
.LBB2_9:                                // =>This Inner Loop Header: Depth=1
	//DEBUG_VALUE: ufs_tagset_bt_get_slowpath_unistore:bs <- $x8
	//DEBUG_VALUE: ufs_tagset_bt_get_slowpath_unistore:highprio <- $x20
	//DEBUG_VALUE: ufs_tagset_bt_get_slowpath_unistore:data <- $x19
	//DEBUG_VALUE: ufs_tagset_bt_get_unistore:bt <- $x22
	//DEBUG_VALUE: ufs_tagset_bt_get_unistore:highprio <- $x20
	//DEBUG_VALUE: ufs_tagset_bt_get_unistore:data <- $x19
	//DEBUG_VALUE: ufs_tagset_bt_get_unistore:hctx <- $x21
	//DEBUG_VALUE: ufs_tagset_bt_get_slowpath_unistore:hctx <- $x21
	//DEBUG_VALUE: ufs_tagset_bt_get_slowpath_unistore:bt <- $x22
	//DEBUG_VALUE: ufs_tagset_bt_get_slowpath_unistore:wait <- [DW_OP_deref] $sp
	.loc	130 265 3               // kernel/block/mas_blk_mq_tag.c:265:3
	mov	x1, sp
	orr	w2, wzr, #0x2
	mov	x0, x23
	bl	prepare_to_wait
.Ltmp217:
	.loc	130 267 42              // kernel/block/mas_blk_mq_tag.c:267:42
	ldrb	w8, [x19, #16]
	tbnz	w8, #1, .LBB2_12
.Ltmp218:
// %bb.10:                              //   in Loop: Header=BB2_9 Depth=1
	//DEBUG_VALUE: ufs_tagset_bt_get_slowpath_unistore:wait <- [DW_OP_deref] $sp
	//DEBUG_VALUE: ufs_tagset_bt_get_slowpath_unistore:highprio <- $x20
	//DEBUG_VALUE: ufs_tagset_bt_get_slowpath_unistore:data <- $x19
	//DEBUG_VALUE: ufs_tagset_bt_get_slowpath_unistore:bt <- $x22
	//DEBUG_VALUE: ufs_tagset_bt_get_unistore:bt <- $x22
	//DEBUG_VALUE: ufs_tagset_bt_get_unistore:highprio <- $x20
	//DEBUG_VALUE: ufs_tagset_bt_get_unistore:data <- $x19
	//DEBUG_VALUE: ufs_tagset_bt_get_slowpath_unistore:hctx <- $x21
	//DEBUG_VALUE: ufs_tagset_bt_get_unistore:hctx <- $x21
	.loc	130 268 37              // kernel/block/mas_blk_mq_tag.c:268:37
	ldr	x0, [x19]
	.loc	130 268 46 is_stmt 0    // kernel/block/mas_blk_mq_tag.c:268:46
	ldr	x1, [x19, #24]
	.loc	130 268 4               // kernel/block/mas_blk_mq_tag.c:268:4
	bl	mas_blk_match_expected_lba
.Ltmp219:
	.loc	130 267 7 is_stmt 1     // kernel/block/mas_blk_mq_tag.c:267:7
	tbz	w0, #0, .LBB2_12
.Ltmp220:
// %bb.11:                              //   in Loop: Header=BB2_9 Depth=1
	//DEBUG_VALUE: ufs_tagset_bt_get_slowpath_unistore:wait <- [DW_OP_deref] $sp
	//DEBUG_VALUE: ufs_tagset_bt_get_slowpath_unistore:highprio <- $x20
	//DEBUG_VALUE: ufs_tagset_bt_get_slowpath_unistore:data <- $x19
	//DEBUG_VALUE: ufs_tagset_bt_get_slowpath_unistore:bt <- $x22
	//DEBUG_VALUE: ufs_tagset_bt_get_unistore:bt <- $x22
	//DEBUG_VALUE: ufs_tagset_bt_get_unistore:highprio <- $x20
	//DEBUG_VALUE: ufs_tagset_bt_get_unistore:data <- $x19
	//DEBUG_VALUE: ufs_tagset_bt_get_slowpath_unistore:hctx <- $x21
	//DEBUG_VALUE: ufs_tagset_bt_get_unistore:hctx <- $x21
	.loc	130 269 23              // kernel/block/mas_blk_mq_tag.c:269:23
	ldr	x8, [x19, #16]
	.loc	130 270 17              // kernel/block/mas_blk_mq_tag.c:270:17
	ldr	x9, [x19, #56]
	.loc	130 269 23              // kernel/block/mas_blk_mq_tag.c:269:23
	orr	x8, x8, #0x2
	str	x8, [x19, #16]
	.loc	130 270 23              // kernel/block/mas_blk_mq_tag.c:270:23
	ldr	x8, [x9, #304]
	.loc	130 270 29 is_stmt 0    // kernel/block/mas_blk_mq_tag.c:270:29
	add	x22, x8, #152           // =152
.Ltmp221:
	//DEBUG_VALUE: ufs_tagset_bt_get_slowpath_unistore:bt <- $x22
	.loc	130 271 15 is_stmt 1    // kernel/block/mas_blk_mq_tag.c:271:15
	orr	w8, wzr, #0x1
	strb	w8, [x20]
.Ltmp222:
.LBB2_12:                               //   in Loop: Header=BB2_9 Depth=1
	//DEBUG_VALUE: ufs_tagset_bt_get_slowpath_unistore:wait <- [DW_OP_deref] $sp
	//DEBUG_VALUE: ufs_tagset_bt_get_slowpath_unistore:highprio <- $x20
	//DEBUG_VALUE: ufs_tagset_bt_get_slowpath_unistore:data <- $x19
	//DEBUG_VALUE: ufs_tagset_bt_get_slowpath_unistore:bt <- $x22
	//DEBUG_VALUE: ufs_tagset_bt_get_unistore:highprio <- $x20
	//DEBUG_VALUE: ufs_tagset_bt_get_unistore:data <- $x19
	//DEBUG_VALUE: ufs_tagset_bt_get_slowpath_unistore:hctx <- $x21
	//DEBUG_VALUE: ufs_tagset_bt_get_unistore:hctx <- $x21
	//DEBUG_VALUE: ufs_tagset_bt_get_slowpath_unistore:bt <- $x22
	.loc	130 274 9               // kernel/block/mas_blk_mq_tag.c:274:9
	mov	x0, x19
	mov	x1, x22
	mov	x2, x21
	bl	ufs_try_get_tag
	mov	w24, w0
.Ltmp223:
	//DEBUG_VALUE: ufs_tagset_bt_get_slowpath_unistore:tag <- $w24
	.loc	130 275 7               // kernel/block/mas_blk_mq_tag.c:275:7
	cmn	w0, #1                  // =1
	b.ne	.LBB2_29
.Ltmp224:
// %bb.13:                              //   in Loop: Header=BB2_9 Depth=1
	//DEBUG_VALUE: ufs_tagset_bt_get_slowpath_unistore:tag <- $w24
	//DEBUG_VALUE: ufs_tagset_bt_get_slowpath_unistore:wait <- [DW_OP_deref] $sp
	//DEBUG_VALUE: ufs_tagset_bt_get_slowpath_unistore:highprio <- $x20
	//DEBUG_VALUE: ufs_tagset_bt_get_slowpath_unistore:data <- $x19
	//DEBUG_VALUE: ufs_tagset_bt_get_slowpath_unistore:bt <- $x22
	//DEBUG_VALUE: ufs_tagset_bt_get_unistore:highprio <- $x20
	//DEBUG_VALUE: ufs_tagset_bt_get_unistore:data <- $x19
	//DEBUG_VALUE: ufs_tagset_bt_get_slowpath_unistore:hctx <- $x21
	//DEBUG_VALUE: ufs_tagset_bt_get_unistore:hctx <- $x21
	.loc	130 278 24              // kernel/block/mas_blk_mq_tag.c:278:24
	ldr	x8, [x19, #48]
.Ltmp225:
	//DEBUG_VALUE: blk_mq_put_ctx:ctx <- $x8
	.loc	90 115 11               // kernel/block/blk-mq.h:115:11
	ldr	x8, [x8, #144]
.Ltmp226:
	.loc	90 115 18 is_stmt 0     // kernel/block/blk-mq.h:115:18
	ldr	x8, [x8, #1816]
	.loc	90 115 32               // kernel/block/blk-mq.h:115:32
	cbz	x8, .LBB2_16
.Ltmp227:
// %bb.14:                              //   in Loop: Header=BB2_9 Depth=1
	//DEBUG_VALUE: ufs_tagset_bt_get_slowpath_unistore:tag <- $w24
	//DEBUG_VALUE: ufs_tagset_bt_get_slowpath_unistore:wait <- [DW_OP_deref] $sp
	//DEBUG_VALUE: ufs_tagset_bt_get_slowpath_unistore:highprio <- $x20
	//DEBUG_VALUE: ufs_tagset_bt_get_slowpath_unistore:data <- $x19
	//DEBUG_VALUE: ufs_tagset_bt_get_slowpath_unistore:bt <- $x22
	//DEBUG_VALUE: ufs_tagset_bt_get_unistore:highprio <- $x20
	//DEBUG_VALUE: ufs_tagset_bt_get_unistore:data <- $x19
	//DEBUG_VALUE: ufs_tagset_bt_get_slowpath_unistore:hctx <- $x21
	//DEBUG_VALUE: ufs_tagset_bt_get_unistore:hctx <- $x21
	.loc	90 115 62               // kernel/block/blk-mq.h:115:62
	ldr	x8, [x8, #80]
.Ltmp228:
	.loc	90 115 6                // kernel/block/blk-mq.h:115:6
	cbz	x8, .LBB2_16
.Ltmp229:
// %bb.15:                              //   in Loop: Header=BB2_9 Depth=1
	//DEBUG_VALUE: ufs_tagset_bt_get_slowpath_unistore:tag <- $w24
	//DEBUG_VALUE: ufs_tagset_bt_get_slowpath_unistore:wait <- [DW_OP_deref] $sp
	//DEBUG_VALUE: ufs_tagset_bt_get_slowpath_unistore:highprio <- $x20
	//DEBUG_VALUE: ufs_tagset_bt_get_slowpath_unistore:data <- $x19
	//DEBUG_VALUE: ufs_tagset_bt_get_slowpath_unistore:bt <- $x22
	//DEBUG_VALUE: ufs_tagset_bt_get_unistore:highprio <- $x20
	//DEBUG_VALUE: ufs_tagset_bt_get_unistore:data <- $x19
	//DEBUG_VALUE: ufs_tagset_bt_get_slowpath_unistore:hctx <- $x21
	//DEBUG_VALUE: ufs_tagset_bt_get_unistore:hctx <- $x21
	.loc	90 116 3 is_stmt 1      // kernel/block/blk-mq.h:116:3
	blr	x8
	b	.LBB2_18
.Ltmp230:
.LBB2_16:                               //   in Loop: Header=BB2_9 Depth=1
	//DEBUG_VALUE: ufs_tagset_bt_get_slowpath_unistore:tag <- $w24
	//DEBUG_VALUE: ufs_tagset_bt_get_slowpath_unistore:wait <- [DW_OP_deref] $sp
	//DEBUG_VALUE: ufs_tagset_bt_get_slowpath_unistore:highprio <- $x20
	//DEBUG_VALUE: ufs_tagset_bt_get_slowpath_unistore:data <- $x19
	//DEBUG_VALUE: ufs_tagset_bt_get_slowpath_unistore:bt <- $x22
	//DEBUG_VALUE: ufs_tagset_bt_get_unistore:highprio <- $x20
	//DEBUG_VALUE: ufs_tagset_bt_get_unistore:data <- $x19
	//DEBUG_VALUE: ufs_tagset_bt_get_slowpath_unistore:hctx <- $x21
	//DEBUG_VALUE: ufs_tagset_bt_get_unistore:hctx <- $x21
	.loc	90 119 3                // kernel/block/blk-mq.h:119:3
	//APP
	//NO_APP
.Ltmp231:
	.loc	132 69 10               // kernel/include/asm-generic/preempt.h:69:10
	ldr	w8, [x26, #16]
	subs	w8, w8, #1              // =1
	str	w8, [x26, #16]
	.loc	132 69 33 is_stmt 0     // kernel/include/asm-generic/preempt.h:69:33
	b.ne	.LBB2_18
.Ltmp232:
// %bb.17:                              //   in Loop: Header=BB2_9 Depth=1
	//DEBUG_VALUE: ufs_tagset_bt_get_slowpath_unistore:tag <- $w24
	//DEBUG_VALUE: ufs_tagset_bt_get_slowpath_unistore:wait <- [DW_OP_deref] $sp
	//DEBUG_VALUE: ufs_tagset_bt_get_slowpath_unistore:highprio <- $x20
	//DEBUG_VALUE: ufs_tagset_bt_get_slowpath_unistore:data <- $x19
	//DEBUG_VALUE: ufs_tagset_bt_get_slowpath_unistore:bt <- $x22
	//DEBUG_VALUE: ufs_tagset_bt_get_unistore:highprio <- $x20
	//DEBUG_VALUE: ufs_tagset_bt_get_unistore:data <- $x19
	//DEBUG_VALUE: ufs_tagset_bt_get_slowpath_unistore:hctx <- $x21
	//DEBUG_VALUE: ufs_tagset_bt_get_unistore:hctx <- $x21
	//DEBUG_VALUE: test_ti_thread_flag:flag <- 1
	//DEBUG_VALUE: test_bit:nr <- 1
	.loc	133 106 16 is_stmt 1    // kernel/include/asm-generic/bitops/non-atomic.h:106:16
	ldr	x8, [x26]
.Ltmp233:
	.loc	90 119 3                // kernel/block/blk-mq.h:119:3
	tbnz	w8, #1, .LBB2_25
.Ltmp234:
.LBB2_18:                               //   in Loop: Header=BB2_9 Depth=1
	//DEBUG_VALUE: ufs_tagset_bt_get_slowpath_unistore:tag <- $w24
	//DEBUG_VALUE: ufs_tagset_bt_get_slowpath_unistore:wait <- [DW_OP_deref] $sp
	//DEBUG_VALUE: ufs_tagset_bt_get_slowpath_unistore:highprio <- $x20
	//DEBUG_VALUE: ufs_tagset_bt_get_slowpath_unistore:data <- $x19
	//DEBUG_VALUE: ufs_tagset_bt_get_slowpath_unistore:bt <- $x22
	//DEBUG_VALUE: ufs_tagset_bt_get_unistore:highprio <- $x20
	//DEBUG_VALUE: ufs_tagset_bt_get_unistore:data <- $x19
	//DEBUG_VALUE: ufs_tagset_bt_get_slowpath_unistore:hctx <- $x21
	//DEBUG_VALUE: ufs_tagset_bt_get_unistore:hctx <- $x21
	.loc	130 279 3               // kernel/block/mas_blk_mq_tag.c:279:3
	mov	w0, #25
	bl	io_schedule_timeout
	.loc	130 281 36              // kernel/block/mas_blk_mq_tag.c:281:36
	ldr	x8, [x19]
.Ltmp235:
	//DEBUG_VALUE: __preempt_count_add:val <- 1
	//DEBUG_VALUE: blk_mq_get_ctx:q <- $x8
	.loc	132 54 23               // kernel/include/asm-generic/preempt.h:54:23
	ldr	w9, [x26, #16]
	add	w9, w9, #1              // =1
	str	w9, [x26, #16]
.Ltmp236:
	.loc	90 109 29               // kernel/block/blk-mq.h:109:29
	//APP
	//NO_APP
.Ltmp237:
	//DEBUG_VALUE: __ptr <- $x28
	.loc	134 38 2                // kernel/arch/arm64/include/asm/percpu.h:38:2
	//APP
	.if 1 == 1
661:
	mrs x9, tpidr_el1
662:
.pushsection .altinstructions,"a"
 .word 661b - .
 .if 0 == 0
 .word 663f - .
 .else
 .word 0- .
 .endif
 .hword 11
 .byte 662b-661b
 .byte 664f-663f
.popsection
 .if 0 == 0
.pushsection .altinstr_replacement, "a"
663:
	mrs x9, tpidr_el2
664:
	.popsection
	.org	. - (664b-663b) + (662b-661b)
	.org	. - (662b-661b) + (664b-663b)
.else
	663:
	664:
	.endif
.endif

	//NO_APP
.Ltmp238:
	//DEBUG_VALUE: __my_cpu_offset:off <- $x9
	.loc	90 109 29               // kernel/block/blk-mq.h:109:29
	ldr	w9, [x9, x28]
.Ltmp239:
	//DEBUG_VALUE: __blk_mq_get_ctx:cpu <- undef
	//DEBUG_VALUE: __blk_mq_get_ctx:q <- $x8
	.loc	90 98 9                 // kernel/block/blk-mq.h:98:9
	ldr	x8, [x8, #328]
.Ltmp240:
	.loc	130 282 39              // kernel/block/mas_blk_mq_tag.c:282:39
	ldr	x10, [x19]
.Ltmp241:
	.loc	90 98 9                 // kernel/block/blk-mq.h:98:9
	//APP
	//NO_APP
.Ltmp242:
	//DEBUG_VALUE: __ptr <- $x8
	ldr	x9, [x27, x9, lsl #3]
	add	x8, x9, x8
.Ltmp243:
	.loc	130 281 13              // kernel/block/mas_blk_mq_tag.c:281:13
	str	x8, [x19, #48]
	.loc	130 282 53              // kernel/block/mas_blk_mq_tag.c:282:53
	ldrsw	x8, [x8, #64]
.Ltmp244:
	//DEBUG_VALUE: blk_mq_map_queue:cpu <- undef
	//DEBUG_VALUE: blk_mq_map_queue:q <- $x10
	.loc	90 78 28                // kernel/block/blk-mq.h:78:28
	ldr	x9, [x10, #320]
	.loc	90 78 12 is_stmt 0      // kernel/block/blk-mq.h:78:12
	ldr	x10, [x10, #344]
.Ltmp245:
	.loc	90 78 25                // kernel/block/blk-mq.h:78:25
	ldr	w8, [x9, x8, lsl #2]
	.loc	90 78 9                 // kernel/block/blk-mq.h:78:9
	ldr	x8, [x10, x8, lsl #3]
.Ltmp246:
	.loc	130 282 14 is_stmt 1    // kernel/block/mas_blk_mq_tag.c:282:14
	str	x8, [x19, #56]
	.loc	130 283 7               // kernel/block/mas_blk_mq_tag.c:283:7
	cbz	x8, .LBB2_29
.Ltmp247:
// %bb.19:                              //   in Loop: Header=BB2_9 Depth=1
	//DEBUG_VALUE: ufs_tagset_bt_get_slowpath_unistore:tag <- $w24
	//DEBUG_VALUE: ufs_tagset_bt_get_slowpath_unistore:wait <- [DW_OP_deref] $sp
	//DEBUG_VALUE: ufs_tagset_bt_get_slowpath_unistore:highprio <- $x20
	//DEBUG_VALUE: ufs_tagset_bt_get_slowpath_unistore:data <- $x19
	//DEBUG_VALUE: ufs_tagset_bt_get_slowpath_unistore:bt <- $x22
	//DEBUG_VALUE: ufs_tagset_bt_get_unistore:highprio <- $x20
	//DEBUG_VALUE: ufs_tagset_bt_get_unistore:data <- $x19
	//DEBUG_VALUE: ufs_tagset_bt_get_slowpath_unistore:hctx <- $x21
	//DEBUG_VALUE: ufs_tagset_bt_get_unistore:hctx <- $x21
	.loc	130 286 7               // kernel/block/mas_blk_mq_tag.c:286:7
	cmp	x21, x8
	b.eq	.LBB2_8
.Ltmp248:
// %bb.20:                              //   in Loop: Header=BB2_9 Depth=1
	//DEBUG_VALUE: ufs_tagset_bt_get_slowpath_unistore:tag <- $w24
	//DEBUG_VALUE: ufs_tagset_bt_get_slowpath_unistore:wait <- [DW_OP_deref] $sp
	//DEBUG_VALUE: ufs_tagset_bt_get_slowpath_unistore:highprio <- $x20
	//DEBUG_VALUE: ufs_tagset_bt_get_slowpath_unistore:data <- $x19
	//DEBUG_VALUE: ufs_tagset_bt_get_slowpath_unistore:bt <- $x22
	//DEBUG_VALUE: ufs_tagset_bt_get_unistore:highprio <- $x20
	//DEBUG_VALUE: ufs_tagset_bt_get_unistore:data <- $x19
	//DEBUG_VALUE: ufs_tagset_bt_get_slowpath_unistore:hctx <- $x21
	//DEBUG_VALUE: ufs_tagset_bt_get_unistore:hctx <- $x21
	.loc	130 289 15              // kernel/block/mas_blk_mq_tag.c:289:15
	ldr	x9, [x19, #8]
	.loc	130 289 23 is_stmt 0    // kernel/block/mas_blk_mq_tag.c:289:23
	tst	x9, x25
	.loc	130 289 38              // kernel/block/mas_blk_mq_tag.c:289:38
	b.ne	.LBB2_23
.Ltmp249:
// %bb.21:                              //   in Loop: Header=BB2_9 Depth=1
	//DEBUG_VALUE: ufs_tagset_bt_get_slowpath_unistore:tag <- $w24
	//DEBUG_VALUE: ufs_tagset_bt_get_slowpath_unistore:wait <- [DW_OP_deref] $sp
	//DEBUG_VALUE: ufs_tagset_bt_get_slowpath_unistore:highprio <- $x20
	//DEBUG_VALUE: ufs_tagset_bt_get_slowpath_unistore:data <- $x19
	//DEBUG_VALUE: ufs_tagset_bt_get_slowpath_unistore:bt <- $x22
	//DEBUG_VALUE: ufs_tagset_bt_get_unistore:highprio <- $x20
	//DEBUG_VALUE: ufs_tagset_bt_get_unistore:data <- $x19
	//DEBUG_VALUE: ufs_tagset_bt_get_slowpath_unistore:hctx <- $x21
	//DEBUG_VALUE: ufs_tagset_bt_get_unistore:hctx <- $x21
	.loc	130 289 7               // kernel/block/mas_blk_mq_tag.c:289:7
	ldrb	w9, [x19, #16]
	tbnz	w9, #1, .LBB2_23
.Ltmp250:
// %bb.22:                              //   in Loop: Header=BB2_9 Depth=1
	//DEBUG_VALUE: ufs_tagset_bt_get_slowpath_unistore:tag <- $w24
	//DEBUG_VALUE: ufs_tagset_bt_get_slowpath_unistore:wait <- [DW_OP_deref] $sp
	//DEBUG_VALUE: ufs_tagset_bt_get_slowpath_unistore:highprio <- $x20
	//DEBUG_VALUE: ufs_tagset_bt_get_slowpath_unistore:data <- $x19
	//DEBUG_VALUE: ufs_tagset_bt_get_slowpath_unistore:bt <- $x22
	//DEBUG_VALUE: ufs_tagset_bt_get_unistore:highprio <- $x20
	//DEBUG_VALUE: ufs_tagset_bt_get_unistore:data <- $x19
	//DEBUG_VALUE: ufs_tagset_bt_get_slowpath_unistore:hctx <- $x21
	//DEBUG_VALUE: ufs_tagset_bt_get_unistore:hctx <- $x21
	.loc	130 291 22 is_stmt 1    // kernel/block/mas_blk_mq_tag.c:291:22
	ldr	x9, [x8, #304]
	.loc	130 291 28 is_stmt 0    // kernel/block/mas_blk_mq_tag.c:291:28
	add	x22, x9, #40            // =40
.Ltmp251:
	.loc	130 0 28                // kernel/block/mas_blk_mq_tag.c:0:28
	b	.LBB2_24
.Ltmp252:
.LBB2_23:                               //   in Loop: Header=BB2_9 Depth=1
	//DEBUG_VALUE: ufs_tagset_bt_get_slowpath_unistore:tag <- $w24
	//DEBUG_VALUE: ufs_tagset_bt_get_slowpath_unistore:wait <- [DW_OP_deref] $sp
	//DEBUG_VALUE: ufs_tagset_bt_get_slowpath_unistore:highprio <- $x20
	//DEBUG_VALUE: ufs_tagset_bt_get_slowpath_unistore:data <- $x19
	//DEBUG_VALUE: ufs_tagset_bt_get_slowpath_unistore:bt <- $x22
	//DEBUG_VALUE: ufs_tagset_bt_get_unistore:highprio <- $x20
	//DEBUG_VALUE: ufs_tagset_bt_get_unistore:data <- $x19
	//DEBUG_VALUE: ufs_tagset_bt_get_slowpath_unistore:hctx <- $x21
	//DEBUG_VALUE: ufs_tagset_bt_get_unistore:hctx <- $x21
	.loc	130 293 22 is_stmt 1    // kernel/block/mas_blk_mq_tag.c:293:22
	ldr	x9, [x8, #304]
	.loc	130 293 28 is_stmt 0    // kernel/block/mas_blk_mq_tag.c:293:28
	add	x22, x9, #152           // =152
.Ltmp253:
.LBB2_24:                               //   in Loop: Header=BB2_9 Depth=1
	//DEBUG_VALUE: ufs_tagset_bt_get_slowpath_unistore:tag <- $w24
	//DEBUG_VALUE: ufs_tagset_bt_get_slowpath_unistore:wait <- [DW_OP_deref] $sp
	//DEBUG_VALUE: ufs_tagset_bt_get_slowpath_unistore:highprio <- $x20
	//DEBUG_VALUE: ufs_tagset_bt_get_slowpath_unistore:data <- $x19
	//DEBUG_VALUE: ufs_tagset_bt_get_unistore:highprio <- $x20
	//DEBUG_VALUE: ufs_tagset_bt_get_unistore:data <- $x19
	//DEBUG_VALUE: ufs_tagset_bt_get_slowpath_unistore:hctx <- $x21
	//DEBUG_VALUE: ufs_tagset_bt_get_unistore:hctx <- $x21
	//DEBUG_VALUE: ufs_tagset_bt_get_slowpath_unistore:bt <- $x22
	.loc	130 0 28                // kernel/block/mas_blk_mq_tag.c:0:28
	mov	x21, x8
.Ltmp254:
	b	.LBB2_8
.Ltmp255:
.LBB2_25:                               //   in Loop: Header=BB2_9 Depth=1
	//DEBUG_VALUE: ufs_tagset_bt_get_slowpath_unistore:tag <- $w24
	//DEBUG_VALUE: ufs_tagset_bt_get_slowpath_unistore:wait <- [DW_OP_deref] $sp
	//DEBUG_VALUE: ufs_tagset_bt_get_slowpath_unistore:highprio <- $x20
	//DEBUG_VALUE: ufs_tagset_bt_get_slowpath_unistore:data <- $x19
	//DEBUG_VALUE: ufs_tagset_bt_get_slowpath_unistore:bt <- $x22
	//DEBUG_VALUE: ufs_tagset_bt_get_unistore:highprio <- $x20
	//DEBUG_VALUE: ufs_tagset_bt_get_unistore:data <- $x19
	//DEBUG_VALUE: ufs_tagset_bt_get_slowpath_unistore:hctx <- $x21
	//DEBUG_VALUE: ufs_tagset_bt_get_unistore:hctx <- $x21
	.loc	90 119 3 is_stmt 1      // kernel/block/blk-mq.h:119:3
	bl	preempt_schedule
	b	.LBB2_18
.Ltmp256:
.LBB2_26:
	//DEBUG_VALUE: ufs_tagset_bt_get_slowpath_unistore:hctx <- $x21
	//DEBUG_VALUE: ufs_tagset_bt_get_unistore:hctx <- $x21
	//DEBUG_VALUE: ufs_tagset_bt_get_unistore:highprio <- $x1
	//DEBUG_VALUE: ufs_tagset_bt_get_unistore:data <- $x0
	.loc	90 0 3 is_stmt 0        // kernel/block/blk-mq.h:0:3
	mov	w24, #-1
.Ltmp257:
.LBB2_27:
	//DEBUG_VALUE: ufs_tagset_bt_get_unistore:hctx <- $x21
	adrp	x9, __stack_chk_guard
	ldr	x8, [sp, #40]
	ldr	x9, [x9, :lo12:__stack_chk_guard]
	cmp	x9, x8
	b.ne	.LBB2_30
.Ltmp258:
// %bb.28:
	//DEBUG_VALUE: ufs_tagset_bt_get_unistore:hctx <- $x21
	.loc	130 320 1 is_stmt 1     // kernel/block/mas_blk_mq_tag.c:320:1
	mov	w0, w24
	ldp	x29, x30, [sp, #128]    // 16-byte Folded Reload
	ldp	x20, x19, [sp, #112]    // 16-byte Folded Reload
	ldp	x22, x21, [sp, #96]     // 16-byte Folded Reload
.Ltmp259:
	ldp	x24, x23, [sp, #80]     // 16-byte Folded Reload
	ldp	x26, x25, [sp, #64]     // 16-byte Folded Reload
	ldp	x28, x27, [sp, #48]     // 16-byte Folded Reload
	add	sp, sp, #144            // =144
	ret
.LBB2_29:
.Ltmp260:
	//DEBUG_VALUE: ufs_tagset_bt_get_slowpath_unistore:tag <- $w24
	//DEBUG_VALUE: ufs_tagset_bt_get_slowpath_unistore:wait <- [DW_OP_deref] $sp
	//DEBUG_VALUE: ufs_tagset_bt_get_slowpath_unistore:highprio <- $x20
	//DEBUG_VALUE: ufs_tagset_bt_get_slowpath_unistore:data <- $x19
	//DEBUG_VALUE: ufs_tagset_bt_get_slowpath_unistore:bt <- $x22
	//DEBUG_VALUE: ufs_tagset_bt_get_unistore:highprio <- $x20
	//DEBUG_VALUE: ufs_tagset_bt_get_unistore:data <- $x19
	//DEBUG_VALUE: ufs_tagset_bt_get_slowpath_unistore:hctx <- $x21
	//DEBUG_VALUE: ufs_tagset_bt_get_unistore:hctx <- $x21
	//DEBUG_VALUE: ufs_tagset_bt_get_slowpath_unistore:wait <- [DW_OP_deref] $sp
	.loc	130 300 2               // kernel/block/mas_blk_mq_tag.c:300:2
	mov	x1, sp
	mov	x0, x23
	bl	finish_wait
	b	.LBB2_27
.Ltmp261:
.LBB2_30:
	//DEBUG_VALUE: ufs_tagset_bt_get_unistore:hctx <- $x21
	.loc	130 0 2 is_stmt 0       // kernel/block/mas_blk_mq_tag.c:0:2
	bl	__stack_chk_fail
.Lfunc_end2:
	.size	ufs_tagset_bt_get_unistore, .Lfunc_end2-ufs_tagset_bt_get_unistore
	.cfi_endproc
                                        // -- End function
	.section	.text.ufs_tagset_all_tag_busy_iter,"ax",@progbits
	.hidden	ufs_tagset_all_tag_busy_iter // -- Begin function ufs_tagset_all_tag_busy_iter
	.globl	ufs_tagset_all_tag_busy_iter
	.p2align	2
	.type	ufs_tagset_all_tag_busy_iter,@function
ufs_tagset_all_tag_busy_iter:           // @ufs_tagset_all_tag_busy_iter
.Lfunc_begin3:
	.loc	130 362 0 is_stmt 1     // kernel/block/mas_blk_mq_tag.c:362:0
	.cfi_startproc
// %bb.0:
	//DEBUG_VALUE: ufs_tagset_all_tag_busy_iter:tags <- $x0
	//DEBUG_VALUE: ufs_tagset_all_tag_busy_iter:fn <- $x1
	//DEBUG_VALUE: ufs_tagset_all_tag_busy_iter:priv <- $x2
	//DEBUG_VALUE: ufs_tagset_bt_tags_for_each:bt <- [DW_OP_plus_uconst 40, DW_OP_stack_value] $x0
	stp	x26, x25, [sp, #-80]!   // 16-byte Folded Spill
	stp	x24, x23, [sp, #16]     // 16-byte Folded Spill
	stp	x22, x21, [sp, #32]     // 16-byte Folded Spill
	stp	x20, x19, [sp, #48]     // 16-byte Folded Spill
	stp	x29, x30, [sp, #64]     // 16-byte Folded Spill
	add	x29, sp, #64            // =64
	.cfi_def_cfa w29, 16
	.cfi_offset w30, -8
	.cfi_offset w29, -16
	.cfi_offset w19, -24
	.cfi_offset w20, -32
	.cfi_offset w21, -40
	.cfi_offset w22, -48
	.cfi_offset w23, -56
	.cfi_offset w24, -64
	.cfi_offset w25, -72
	.cfi_offset w26, -80
.Ltmp262:
	.loc	130 120 23 prologue_end // kernel/block/mas_blk_mq_tag.c:120:23
	ldr	x8, [x0, #208]
	mov	x19, x2
	mov	x20, x0
.Ltmp263:
	//DEBUG_VALUE: ufs_tagset_bt_tags_for_each:iter_data <- undef
	//DEBUG_VALUE: ufs_tagset_all_tag_busy_iter:iter_data <- [DW_OP_deref] undef
	//DEBUG_VALUE: ufs_tagset_bt_tags_for_each:bt <- [DW_OP_plus_uconst 40, DW_OP_stack_value] $x20
	//DEBUG_VALUE: ufs_tagset_all_tag_busy_iter:priv <- $x19
	//DEBUG_VALUE: ufs_tagset_all_tag_busy_iter:tags <- $x20
	.loc	130 0 23 is_stmt 0      // kernel/block/mas_blk_mq_tag.c:0:23
	mov	x21, x1
.Ltmp264:
	//DEBUG_VALUE: ufs_tagset_all_tag_busy_iter:fn <- $x21
	.loc	130 120 6               // kernel/block/mas_blk_mq_tag.c:120:6
	cbz	x8, .LBB3_10
.Ltmp265:
// %bb.1:
	//DEBUG_VALUE: ufs_tagset_all_tag_busy_iter:fn <- $x21
	//DEBUG_VALUE: ufs_tagset_all_tag_busy_iter:tags <- $x20
	//DEBUG_VALUE: ufs_tagset_all_tag_busy_iter:priv <- $x19
	//DEBUG_VALUE: ufs_tagset_bt_tags_for_each:bt <- [DW_OP_plus_uconst 40, DW_OP_stack_value] $x20
	//DEBUG_VALUE: sbitmap_for_each_set:sb <- [DW_OP_plus_uconst 40, DW_OP_stack_value] $x20
	//DEBUG_VALUE: sbitmap_for_each_set:data <- undef
	//DEBUG_VALUE: sbitmap_for_each_set:i <- 0
	.loc	97 230 22 is_stmt 1     // kernel/include/linux/sbitmap.h:230:22
	ldr	w8, [x20, #48]
.Ltmp266:
	.loc	97 230 2 is_stmt 0      // kernel/include/linux/sbitmap.h:230:2
	cbz	w8, .LBB3_10
.Ltmp267:
// %bb.2:
	//DEBUG_VALUE: sbitmap_for_each_set:sb <- [DW_OP_plus_uconst 40, DW_OP_stack_value] $x20
	//DEBUG_VALUE: ufs_tagset_all_tag_busy_iter:fn <- $x21
	//DEBUG_VALUE: ufs_tagset_all_tag_busy_iter:tags <- $x20
	//DEBUG_VALUE: ufs_tagset_all_tag_busy_iter:priv <- $x19
	//DEBUG_VALUE: ufs_tagset_bt_tags_for_each:bt <- [DW_OP_plus_uconst 40, DW_OP_stack_value] $x20
	//DEBUG_VALUE: sbitmap_for_each_set:sb <- [DW_OP_plus_uconst 40, DW_OP_stack_value] $x20
	.loc	97 0 2                  // kernel/include/linux/sbitmap.h:0:2
	mov	x24, xzr
.Ltmp268:
.LBB3_3:                                // =>This Loop Header: Depth=1
                                        //     Child Loop BB3_6 Depth 2
	//DEBUG_VALUE: sbitmap_for_each_set:sb <- [DW_OP_plus_uconst 40, DW_OP_stack_value] $x20
	//DEBUG_VALUE: ufs_tagset_all_tag_busy_iter:fn <- $x21
	//DEBUG_VALUE: ufs_tagset_all_tag_busy_iter:tags <- $x20
	//DEBUG_VALUE: ufs_tagset_all_tag_busy_iter:priv <- $x19
	//DEBUG_VALUE: ufs_tagset_bt_tags_for_each:bt <- [DW_OP_plus_uconst 40, DW_OP_stack_value] $x20
	//DEBUG_VALUE: sbitmap_for_each_set:i <- $x24
	.loc	97 231 36 is_stmt 1     // kernel/include/linux/sbitmap.h:231:36
	ldr	x8, [x20, #56]
.Ltmp269:
	.loc	97 234 14               // kernel/include/linux/sbitmap.h:234:14
	add	x22, x8, x24, lsl #6
	ldr	x8, [x22]
.Ltmp270:
	.loc	97 234 7 is_stmt 0      // kernel/include/linux/sbitmap.h:234:7
	cbz	x8, .LBB3_9
.Ltmp271:
// %bb.4:                               //   in Loop: Header=BB3_3 Depth=1
	//DEBUG_VALUE: sbitmap_for_each_set:i <- $x24
	//DEBUG_VALUE: sbitmap_for_each_set:sb <- [DW_OP_plus_uconst 40, DW_OP_stack_value] $x20
	//DEBUG_VALUE: ufs_tagset_all_tag_busy_iter:fn <- $x21
	//DEBUG_VALUE: ufs_tagset_all_tag_busy_iter:tags <- $x20
	//DEBUG_VALUE: ufs_tagset_all_tag_busy_iter:priv <- $x19
	//DEBUG_VALUE: ufs_tagset_bt_tags_for_each:bt <- [DW_OP_plus_uconst 40, DW_OP_stack_value] $x20
	//DEBUG_VALUE: nr <- 0
	.loc	97 240 42 is_stmt 1     // kernel/include/linux/sbitmap.h:240:42
	mov	x25, x22
.Ltmp272:
	.loc	97 238 18               // kernel/include/linux/sbitmap.h:238:18
	ldr	w26, [x20, #44]
.Ltmp273:
	.loc	97 240 42               // kernel/include/linux/sbitmap.h:240:42
	ldr	x1, [x25, #8]!
	.loc	97 240 9 is_stmt 0      // kernel/include/linux/sbitmap.h:240:9
	mov	x0, x22
	mov	x2, xzr
	bl	find_next_bit
.Ltmp274:
	.loc	97 241 20 is_stmt 1     // kernel/include/linux/sbitmap.h:241:20
	ldr	x1, [x25]
.Ltmp275:
	.loc	97 240 9                // kernel/include/linux/sbitmap.h:240:9
	mov	x23, x0
.Ltmp276:
	//DEBUG_VALUE: nr <- undef
	.loc	97 241 8                // kernel/include/linux/sbitmap.h:241:8
	cmp	x1, w23, uxtw
	b.ls	.LBB3_9
.Ltmp277:
// %bb.5:                               //   in Loop: Header=BB3_3 Depth=1
	//DEBUG_VALUE: sbitmap_for_each_set:i <- $x24
	//DEBUG_VALUE: sbitmap_for_each_set:sb <- [DW_OP_plus_uconst 40, DW_OP_stack_value] $x20
	//DEBUG_VALUE: ufs_tagset_all_tag_busy_iter:fn <- $x21
	//DEBUG_VALUE: ufs_tagset_all_tag_busy_iter:tags <- $x20
	//DEBUG_VALUE: ufs_tagset_all_tag_busy_iter:priv <- $x19
	//DEBUG_VALUE: ufs_tagset_bt_tags_for_each:bt <- [DW_OP_plus_uconst 40, DW_OP_stack_value] $x20
	.loc	97 0 8 is_stmt 0        // kernel/include/linux/sbitmap.h:0:8
	lsl	w26, w24, w26
.Ltmp278:
	//DEBUG_VALUE: off <- $w26
.LBB3_6:                                //   Parent Loop BB3_3 Depth=1
                                        // =>  This Inner Loop Header: Depth=2
	//DEBUG_VALUE: off <- $w26
	//DEBUG_VALUE: sbitmap_for_each_set:i <- $x24
	//DEBUG_VALUE: sbitmap_for_each_set:sb <- [DW_OP_plus_uconst 40, DW_OP_stack_value] $x20
	//DEBUG_VALUE: ufs_tagset_all_tag_busy_iter:fn <- $x21
	//DEBUG_VALUE: ufs_tagset_all_tag_busy_iter:tags <- $x20
	//DEBUG_VALUE: ufs_tagset_all_tag_busy_iter:priv <- $x19
	//DEBUG_VALUE: ufs_tagset_bt_tags_for_each:bt <- [DW_OP_plus_uconst 40, DW_OP_stack_value] $x20
	//DEBUG_VALUE: nr <- undef
	//DEBUG_VALUE: ufs_tagset_bt_tags_iter:bitmap <- [DW_OP_plus_uconst 40, DW_OP_stack_value] $x20
	//DEBUG_VALUE: ufs_tagset_bt_tags_iter:bitnr <- undef
	//DEBUG_VALUE: ufs_tagset_bt_tags_iter:data <- undef
	//DEBUG_VALUE: ufs_tagset_bt_tags_iter:iter_data <- undef
	//DEBUG_VALUE: ufs_tagset_bt_tags_iter:tags <- $x20
	//DEBUG_VALUE: ufs_tagset_bt_tags_iter:rq <- undef
	.loc	130 112 6 is_stmt 1     // kernel/block/mas_blk_mq_tag.c:112:6
	cbz	x21, .LBB3_8
.Ltmp279:
// %bb.7:                               //   in Loop: Header=BB3_6 Depth=2
	//DEBUG_VALUE: ufs_tagset_bt_tags_iter:tags <- $x20
	//DEBUG_VALUE: ufs_tagset_bt_tags_iter:bitmap <- [DW_OP_plus_uconst 40, DW_OP_stack_value] $x20
	//DEBUG_VALUE: off <- $w26
	//DEBUG_VALUE: sbitmap_for_each_set:i <- $x24
	//DEBUG_VALUE: sbitmap_for_each_set:sb <- [DW_OP_plus_uconst 40, DW_OP_stack_value] $x20
	//DEBUG_VALUE: ufs_tagset_all_tag_busy_iter:fn <- $x21
	//DEBUG_VALUE: ufs_tagset_all_tag_busy_iter:tags <- $x20
	//DEBUG_VALUE: ufs_tagset_all_tag_busy_iter:priv <- $x19
	//DEBUG_VALUE: ufs_tagset_bt_tags_for_each:bt <- [DW_OP_plus_uconst 40, DW_OP_stack_value] $x20
	//DEBUG_VALUE: nr <- $w23
	//DEBUG_VALUE: nr <- [DW_OP_plus_uconst 1, DW_OP_stack_value] $w23
	.loc	130 110 13              // kernel/block/mas_blk_mq_tag.c:110:13
	ldr	x8, [x20, #208]
.Ltmp280:
	.loc	97 244 20               // kernel/include/linux/sbitmap.h:244:20
	add	w9, w26, w23
.Ltmp281:
	//DEBUG_VALUE: ufs_tagset_bt_tags_iter:bitnr <- $w9
	.loc	130 113 3               // kernel/block/mas_blk_mq_tag.c:113:3
	mov	x1, x19
	mov	w2, wzr
.Ltmp282:
	.loc	130 110 7               // kernel/block/mas_blk_mq_tag.c:110:7
	ldr	x0, [x8, w9, uxtw #3]
.Ltmp283:
	//DEBUG_VALUE: ufs_tagset_bt_tags_iter:rq <- $x0
	.loc	130 113 3               // kernel/block/mas_blk_mq_tag.c:113:3
	blr	x21
.Ltmp284:
	.loc	97 240 42               // kernel/include/linux/sbitmap.h:240:42
	ldr	x1, [x25]
.Ltmp285:
.LBB3_8:                                //   in Loop: Header=BB3_6 Depth=2
	//DEBUG_VALUE: off <- $w26
	//DEBUG_VALUE: sbitmap_for_each_set:i <- $x24
	//DEBUG_VALUE: sbitmap_for_each_set:sb <- [DW_OP_plus_uconst 40, DW_OP_stack_value] $x20
	//DEBUG_VALUE: ufs_tagset_all_tag_busy_iter:fn <- $x21
	//DEBUG_VALUE: ufs_tagset_all_tag_busy_iter:tags <- $x20
	//DEBUG_VALUE: ufs_tagset_all_tag_busy_iter:priv <- $x19
	//DEBUG_VALUE: ufs_tagset_bt_tags_for_each:bt <- [DW_OP_plus_uconst 40, DW_OP_stack_value] $x20
	.loc	97 247 6                // kernel/include/linux/sbitmap.h:247:6
	add	w2, w23, #1             // =1
	.loc	97 240 9                // kernel/include/linux/sbitmap.h:240:9
	mov	x0, x22
	bl	find_next_bit
.Ltmp286:
	.loc	97 241 20               // kernel/include/linux/sbitmap.h:241:20
	ldr	x1, [x25]
.Ltmp287:
	.loc	97 240 9                // kernel/include/linux/sbitmap.h:240:9
	mov	x23, x0
.Ltmp288:
	//DEBUG_VALUE: nr <- undef
	.loc	97 241 8                // kernel/include/linux/sbitmap.h:241:8
	cmp	x1, w23, uxtw
	b.hi	.LBB3_6
.Ltmp289:
.LBB3_9:                                //   in Loop: Header=BB3_3 Depth=1
	//DEBUG_VALUE: sbitmap_for_each_set:i <- $x24
	//DEBUG_VALUE: sbitmap_for_each_set:sb <- [DW_OP_plus_uconst 40, DW_OP_stack_value] $x20
	//DEBUG_VALUE: ufs_tagset_all_tag_busy_iter:fn <- $x21
	//DEBUG_VALUE: ufs_tagset_all_tag_busy_iter:tags <- $x20
	//DEBUG_VALUE: ufs_tagset_all_tag_busy_iter:priv <- $x19
	//DEBUG_VALUE: ufs_tagset_bt_tags_for_each:bt <- [DW_OP_plus_uconst 40, DW_OP_stack_value] $x20
	.loc	97 230 22               // kernel/include/linux/sbitmap.h:230:22
	ldr	w8, [x20, #48]
	.loc	97 230 31 is_stmt 0     // kernel/include/linux/sbitmap.h:230:31
	add	x24, x24, #1            // =1
.Ltmp290:
	//DEBUG_VALUE: sbitmap_for_each_set:i <- [DW_OP_plus_uconst 1, DW_OP_stack_value] undef
	.loc	97 230 2                // kernel/include/linux/sbitmap.h:230:2
	cmp	x24, x8
	b.lo	.LBB3_3
.Ltmp291:
.LBB3_10:
	//DEBUG_VALUE: ufs_tagset_all_tag_busy_iter:fn <- $x21
	//DEBUG_VALUE: ufs_tagset_all_tag_busy_iter:tags <- $x20
	//DEBUG_VALUE: ufs_tagset_all_tag_busy_iter:priv <- $x19
	.loc	130 373 12 is_stmt 1    // kernel/block/mas_blk_mq_tag.c:373:12
	ldr	w8, [x20, #8]
.Ltmp292:
	.loc	130 373 6 is_stmt 0     // kernel/block/mas_blk_mq_tag.c:373:6
	cbz	w8, .LBB3_21
.Ltmp293:
// %bb.11:
	//DEBUG_VALUE: ufs_tagset_all_tag_busy_iter:fn <- $x21
	//DEBUG_VALUE: ufs_tagset_all_tag_busy_iter:tags <- $x20
	//DEBUG_VALUE: ufs_tagset_all_tag_busy_iter:priv <- $x19
	//DEBUG_VALUE: ufs_tagset_all_tag_busy_iter:iter_data <- [DW_OP_deref] undef
	//DEBUG_VALUE: ufs_tagset_bt_tags_for_each:bt <- [DW_OP_plus_uconst 152, DW_OP_stack_value] $x20
	//DEBUG_VALUE: ufs_tagset_bt_tags_for_each:iter_data <- undef
	.loc	130 120 23 is_stmt 1    // kernel/block/mas_blk_mq_tag.c:120:23
	ldr	x8, [x20, #208]
.Ltmp294:
	.loc	130 120 6 is_stmt 0     // kernel/block/mas_blk_mq_tag.c:120:6
	cbz	x8, .LBB3_21
.Ltmp295:
// %bb.12:
	//DEBUG_VALUE: ufs_tagset_bt_tags_for_each:bt <- [DW_OP_plus_uconst 152, DW_OP_stack_value] $x20
	//DEBUG_VALUE: ufs_tagset_all_tag_busy_iter:fn <- $x21
	//DEBUG_VALUE: ufs_tagset_all_tag_busy_iter:tags <- $x20
	//DEBUG_VALUE: ufs_tagset_all_tag_busy_iter:priv <- $x19
	//DEBUG_VALUE: sbitmap_for_each_set:sb <- [DW_OP_plus_uconst 152, DW_OP_stack_value] $x20
	//DEBUG_VALUE: sbitmap_for_each_set:data <- undef
	//DEBUG_VALUE: sbitmap_for_each_set:i <- 0
	.loc	97 230 22 is_stmt 1     // kernel/include/linux/sbitmap.h:230:22
	ldr	w8, [x20, #160]
.Ltmp296:
	.loc	97 230 2 is_stmt 0      // kernel/include/linux/sbitmap.h:230:2
	cbz	w8, .LBB3_21
.Ltmp297:
// %bb.13:
	//DEBUG_VALUE: sbitmap_for_each_set:sb <- [DW_OP_plus_uconst 152, DW_OP_stack_value] $x20
	//DEBUG_VALUE: ufs_tagset_bt_tags_for_each:bt <- [DW_OP_plus_uconst 152, DW_OP_stack_value] $x20
	//DEBUG_VALUE: ufs_tagset_all_tag_busy_iter:fn <- $x21
	//DEBUG_VALUE: ufs_tagset_all_tag_busy_iter:tags <- $x20
	//DEBUG_VALUE: ufs_tagset_all_tag_busy_iter:priv <- $x19
	//DEBUG_VALUE: sbitmap_for_each_set:sb <- [DW_OP_plus_uconst 152, DW_OP_stack_value] $x20
	.loc	97 0 2                  // kernel/include/linux/sbitmap.h:0:2
	mov	x24, xzr
.Ltmp298:
.LBB3_14:                               // =>This Loop Header: Depth=1
                                        //     Child Loop BB3_17 Depth 2
	//DEBUG_VALUE: sbitmap_for_each_set:sb <- [DW_OP_plus_uconst 152, DW_OP_stack_value] $x20
	//DEBUG_VALUE: ufs_tagset_bt_tags_for_each:bt <- [DW_OP_plus_uconst 152, DW_OP_stack_value] $x20
	//DEBUG_VALUE: ufs_tagset_all_tag_busy_iter:fn <- $x21
	//DEBUG_VALUE: ufs_tagset_all_tag_busy_iter:tags <- $x20
	//DEBUG_VALUE: ufs_tagset_all_tag_busy_iter:priv <- $x19
	//DEBUG_VALUE: sbitmap_for_each_set:i <- $x24
	.loc	97 231 36 is_stmt 1     // kernel/include/linux/sbitmap.h:231:36
	ldr	x8, [x20, #168]
.Ltmp299:
	.loc	97 234 14               // kernel/include/linux/sbitmap.h:234:14
	add	x22, x8, x24, lsl #6
	ldr	x8, [x22]
.Ltmp300:
	.loc	97 234 7 is_stmt 0      // kernel/include/linux/sbitmap.h:234:7
	cbz	x8, .LBB3_20
.Ltmp301:
// %bb.15:                              //   in Loop: Header=BB3_14 Depth=1
	//DEBUG_VALUE: sbitmap_for_each_set:i <- $x24
	//DEBUG_VALUE: sbitmap_for_each_set:sb <- [DW_OP_plus_uconst 152, DW_OP_stack_value] $x20
	//DEBUG_VALUE: ufs_tagset_bt_tags_for_each:bt <- [DW_OP_plus_uconst 152, DW_OP_stack_value] $x20
	//DEBUG_VALUE: ufs_tagset_all_tag_busy_iter:fn <- $x21
	//DEBUG_VALUE: ufs_tagset_all_tag_busy_iter:tags <- $x20
	//DEBUG_VALUE: ufs_tagset_all_tag_busy_iter:priv <- $x19
	//DEBUG_VALUE: nr <- 0
	.loc	97 240 42 is_stmt 1     // kernel/include/linux/sbitmap.h:240:42
	mov	x25, x22
.Ltmp302:
	.loc	97 238 18               // kernel/include/linux/sbitmap.h:238:18
	ldr	w26, [x20, #156]
.Ltmp303:
	.loc	97 240 42               // kernel/include/linux/sbitmap.h:240:42
	ldr	x1, [x25, #8]!
	.loc	97 240 9 is_stmt 0      // kernel/include/linux/sbitmap.h:240:9
	mov	x0, x22
	mov	x2, xzr
	bl	find_next_bit
.Ltmp304:
	.loc	97 241 20 is_stmt 1     // kernel/include/linux/sbitmap.h:241:20
	ldr	x1, [x25]
.Ltmp305:
	.loc	97 240 9                // kernel/include/linux/sbitmap.h:240:9
	mov	x23, x0
.Ltmp306:
	//DEBUG_VALUE: nr <- undef
	.loc	97 241 8                // kernel/include/linux/sbitmap.h:241:8
	cmp	x1, w23, uxtw
	b.ls	.LBB3_20
.Ltmp307:
// %bb.16:                              //   in Loop: Header=BB3_14 Depth=1
	//DEBUG_VALUE: sbitmap_for_each_set:i <- $x24
	//DEBUG_VALUE: sbitmap_for_each_set:sb <- [DW_OP_plus_uconst 152, DW_OP_stack_value] $x20
	//DEBUG_VALUE: ufs_tagset_bt_tags_for_each:bt <- [DW_OP_plus_uconst 152, DW_OP_stack_value] $x20
	//DEBUG_VALUE: ufs_tagset_all_tag_busy_iter:fn <- $x21
	//DEBUG_VALUE: ufs_tagset_all_tag_busy_iter:tags <- $x20
	//DEBUG_VALUE: ufs_tagset_all_tag_busy_iter:priv <- $x19
	.loc	97 0 8 is_stmt 0        // kernel/include/linux/sbitmap.h:0:8
	lsl	w26, w24, w26
.Ltmp308:
	//DEBUG_VALUE: off <- $w26
.LBB3_17:                               //   Parent Loop BB3_14 Depth=1
                                        // =>  This Inner Loop Header: Depth=2
	//DEBUG_VALUE: off <- $w26
	//DEBUG_VALUE: sbitmap_for_each_set:i <- $x24
	//DEBUG_VALUE: sbitmap_for_each_set:sb <- [DW_OP_plus_uconst 152, DW_OP_stack_value] $x20
	//DEBUG_VALUE: ufs_tagset_bt_tags_for_each:bt <- [DW_OP_plus_uconst 152, DW_OP_stack_value] $x20
	//DEBUG_VALUE: ufs_tagset_all_tag_busy_iter:fn <- $x21
	//DEBUG_VALUE: ufs_tagset_all_tag_busy_iter:tags <- $x20
	//DEBUG_VALUE: ufs_tagset_all_tag_busy_iter:priv <- $x19
	//DEBUG_VALUE: nr <- undef
	//DEBUG_VALUE: ufs_tagset_bt_tags_iter:bitmap <- [DW_OP_plus_uconst 152, DW_OP_stack_value] $x20
	//DEBUG_VALUE: ufs_tagset_bt_tags_iter:bitnr <- undef
	//DEBUG_VALUE: ufs_tagset_bt_tags_iter:data <- undef
	//DEBUG_VALUE: ufs_tagset_bt_tags_iter:iter_data <- undef
	//DEBUG_VALUE: ufs_tagset_bt_tags_iter:tags <- $x20
	//DEBUG_VALUE: ufs_tagset_bt_tags_iter:rq <- undef
	.loc	130 112 6 is_stmt 1     // kernel/block/mas_blk_mq_tag.c:112:6
	cbz	x21, .LBB3_19
.Ltmp309:
// %bb.18:                              //   in Loop: Header=BB3_17 Depth=2
	//DEBUG_VALUE: ufs_tagset_bt_tags_iter:tags <- $x20
	//DEBUG_VALUE: ufs_tagset_bt_tags_iter:bitmap <- [DW_OP_plus_uconst 152, DW_OP_stack_value] $x20
	//DEBUG_VALUE: off <- $w26
	//DEBUG_VALUE: sbitmap_for_each_set:i <- $x24
	//DEBUG_VALUE: sbitmap_for_each_set:sb <- [DW_OP_plus_uconst 152, DW_OP_stack_value] $x20
	//DEBUG_VALUE: ufs_tagset_bt_tags_for_each:bt <- [DW_OP_plus_uconst 152, DW_OP_stack_value] $x20
	//DEBUG_VALUE: ufs_tagset_all_tag_busy_iter:fn <- $x21
	//DEBUG_VALUE: ufs_tagset_all_tag_busy_iter:tags <- $x20
	//DEBUG_VALUE: ufs_tagset_all_tag_busy_iter:priv <- $x19
	.loc	130 108 18              // kernel/block/mas_blk_mq_tag.c:108:18
	ldr	w8, [x20, #20]
.Ltmp310:
	//DEBUG_VALUE: nr <- [DW_OP_plus_uconst 1, DW_OP_stack_value] $w23
	//DEBUG_VALUE: nr <- $w23
	.loc	130 110 13              // kernel/block/mas_blk_mq_tag.c:110:13
	ldr	x9, [x20, #208]
.Ltmp311:
	.loc	97 244 20               // kernel/include/linux/sbitmap.h:244:20
	add	w10, w26, w23
.Ltmp312:
	//DEBUG_VALUE: ufs_tagset_bt_tags_iter:bitnr <- $w10
	.loc	130 113 3               // kernel/block/mas_blk_mq_tag.c:113:3
	mov	x1, x19
.Ltmp313:
	.loc	130 108 9               // kernel/block/mas_blk_mq_tag.c:108:9
	add	w8, w10, w8
.Ltmp314:
	//DEBUG_VALUE: ufs_tagset_bt_tags_iter:bitnr <- $w8
	.loc	130 110 7               // kernel/block/mas_blk_mq_tag.c:110:7
	ldr	x0, [x9, w8, uxtw #3]
.Ltmp315:
	//DEBUG_VALUE: ufs_tagset_bt_tags_iter:rq <- $x0
	.loc	130 113 3               // kernel/block/mas_blk_mq_tag.c:113:3
	mov	w2, wzr
	blr	x21
.Ltmp316:
	.loc	97 240 42               // kernel/include/linux/sbitmap.h:240:42
	ldr	x1, [x25]
.Ltmp317:
.LBB3_19:                               //   in Loop: Header=BB3_17 Depth=2
	//DEBUG_VALUE: off <- $w26
	//DEBUG_VALUE: sbitmap_for_each_set:i <- $x24
	//DEBUG_VALUE: sbitmap_for_each_set:sb <- [DW_OP_plus_uconst 152, DW_OP_stack_value] $x20
	//DEBUG_VALUE: ufs_tagset_bt_tags_for_each:bt <- [DW_OP_plus_uconst 152, DW_OP_stack_value] $x20
	//DEBUG_VALUE: ufs_tagset_all_tag_busy_iter:fn <- $x21
	//DEBUG_VALUE: ufs_tagset_all_tag_busy_iter:tags <- $x20
	//DEBUG_VALUE: ufs_tagset_all_tag_busy_iter:priv <- $x19
	.loc	97 247 6                // kernel/include/linux/sbitmap.h:247:6
	add	w2, w23, #1             // =1
	.loc	97 240 9                // kernel/include/linux/sbitmap.h:240:9
	mov	x0, x22
	bl	find_next_bit
.Ltmp318:
	.loc	97 241 20               // kernel/include/linux/sbitmap.h:241:20
	ldr	x1, [x25]
.Ltmp319:
	.loc	97 240 9                // kernel/include/linux/sbitmap.h:240:9
	mov	x23, x0
.Ltmp320:
	//DEBUG_VALUE: nr <- undef
	.loc	97 241 8                // kernel/include/linux/sbitmap.h:241:8
	cmp	x1, w23, uxtw
	b.hi	.LBB3_17
.Ltmp321:
.LBB3_20:                               //   in Loop: Header=BB3_14 Depth=1
	//DEBUG_VALUE: sbitmap_for_each_set:i <- $x24
	//DEBUG_VALUE: sbitmap_for_each_set:sb <- [DW_OP_plus_uconst 152, DW_OP_stack_value] $x20
	//DEBUG_VALUE: ufs_tagset_bt_tags_for_each:bt <- [DW_OP_plus_uconst 152, DW_OP_stack_value] $x20
	//DEBUG_VALUE: ufs_tagset_all_tag_busy_iter:fn <- $x21
	//DEBUG_VALUE: ufs_tagset_all_tag_busy_iter:tags <- $x20
	//DEBUG_VALUE: ufs_tagset_all_tag_busy_iter:priv <- $x19
	.loc	97 230 22               // kernel/include/linux/sbitmap.h:230:22
	ldr	w8, [x20, #160]
	.loc	97 230 31 is_stmt 0     // kernel/include/linux/sbitmap.h:230:31
	add	x24, x24, #1            // =1
.Ltmp322:
	//DEBUG_VALUE: sbitmap_for_each_set:i <- [DW_OP_plus_uconst 1, DW_OP_stack_value] undef
	.loc	97 230 2                // kernel/include/linux/sbitmap.h:230:2
	cmp	x24, x8
	b.lo	.LBB3_14
.Ltmp323:
.LBB3_21:
	//DEBUG_VALUE: ufs_tagset_all_tag_busy_iter:fn <- $x21
	//DEBUG_VALUE: ufs_tagset_all_tag_busy_iter:tags <- $x20
	//DEBUG_VALUE: ufs_tagset_all_tag_busy_iter:priv <- $x19
	.loc	130 378 12 is_stmt 1    // kernel/block/mas_blk_mq_tag.c:378:12
	ldr	w8, [x20, #4]
.Ltmp324:
	.loc	130 378 6 is_stmt 0     // kernel/block/mas_blk_mq_tag.c:378:6
	cbz	w8, .LBB3_32
.Ltmp325:
// %bb.22:
	//DEBUG_VALUE: ufs_tagset_all_tag_busy_iter:fn <- $x21
	//DEBUG_VALUE: ufs_tagset_all_tag_busy_iter:tags <- $x20
	//DEBUG_VALUE: ufs_tagset_all_tag_busy_iter:priv <- $x19
	//DEBUG_VALUE: ufs_tagset_all_tag_busy_iter:iter_data <- [DW_OP_deref] undef
	//DEBUG_VALUE: ufs_tagset_bt_tags_for_each:bt <- [DW_OP_plus_uconst 96, DW_OP_stack_value] $x20
	//DEBUG_VALUE: ufs_tagset_bt_tags_for_each:iter_data <- undef
	.loc	130 120 23 is_stmt 1    // kernel/block/mas_blk_mq_tag.c:120:23
	ldr	x8, [x20, #208]
.Ltmp326:
	.loc	130 120 6 is_stmt 0     // kernel/block/mas_blk_mq_tag.c:120:6
	cbz	x8, .LBB3_32
.Ltmp327:
// %bb.23:
	//DEBUG_VALUE: ufs_tagset_bt_tags_for_each:bt <- [DW_OP_plus_uconst 96, DW_OP_stack_value] $x20
	//DEBUG_VALUE: ufs_tagset_all_tag_busy_iter:fn <- $x21
	//DEBUG_VALUE: ufs_tagset_all_tag_busy_iter:tags <- $x20
	//DEBUG_VALUE: ufs_tagset_all_tag_busy_iter:priv <- $x19
	//DEBUG_VALUE: sbitmap_for_each_set:sb <- [DW_OP_plus_uconst 96, DW_OP_stack_value] $x20
	//DEBUG_VALUE: sbitmap_for_each_set:data <- undef
	//DEBUG_VALUE: sbitmap_for_each_set:i <- 0
	.loc	97 230 22 is_stmt 1     // kernel/include/linux/sbitmap.h:230:22
	ldr	w8, [x20, #104]
.Ltmp328:
	.loc	97 230 2 is_stmt 0      // kernel/include/linux/sbitmap.h:230:2
	cbz	w8, .LBB3_32
.Ltmp329:
// %bb.24:
	//DEBUG_VALUE: sbitmap_for_each_set:sb <- [DW_OP_plus_uconst 96, DW_OP_stack_value] $x20
	//DEBUG_VALUE: ufs_tagset_bt_tags_for_each:bt <- [DW_OP_plus_uconst 96, DW_OP_stack_value] $x20
	//DEBUG_VALUE: ufs_tagset_all_tag_busy_iter:fn <- $x21
	//DEBUG_VALUE: ufs_tagset_all_tag_busy_iter:tags <- $x20
	//DEBUG_VALUE: ufs_tagset_all_tag_busy_iter:priv <- $x19
	//DEBUG_VALUE: sbitmap_for_each_set:sb <- [DW_OP_plus_uconst 96, DW_OP_stack_value] $x20
	.loc	97 0 2                  // kernel/include/linux/sbitmap.h:0:2
	mov	x24, xzr
.Ltmp330:
.LBB3_25:                               // =>This Loop Header: Depth=1
                                        //     Child Loop BB3_28 Depth 2
	//DEBUG_VALUE: sbitmap_for_each_set:sb <- [DW_OP_plus_uconst 96, DW_OP_stack_value] $x20
	//DEBUG_VALUE: ufs_tagset_bt_tags_for_each:bt <- [DW_OP_plus_uconst 96, DW_OP_stack_value] $x20
	//DEBUG_VALUE: ufs_tagset_all_tag_busy_iter:fn <- $x21
	//DEBUG_VALUE: ufs_tagset_all_tag_busy_iter:tags <- $x20
	//DEBUG_VALUE: ufs_tagset_all_tag_busy_iter:priv <- $x19
	//DEBUG_VALUE: sbitmap_for_each_set:i <- $x24
	.loc	97 231 36 is_stmt 1     // kernel/include/linux/sbitmap.h:231:36
	ldr	x8, [x20, #112]
.Ltmp331:
	.loc	97 234 14               // kernel/include/linux/sbitmap.h:234:14
	add	x22, x8, x24, lsl #6
	ldr	x8, [x22]
.Ltmp332:
	.loc	97 234 7 is_stmt 0      // kernel/include/linux/sbitmap.h:234:7
	cbz	x8, .LBB3_31
.Ltmp333:
// %bb.26:                              //   in Loop: Header=BB3_25 Depth=1
	//DEBUG_VALUE: sbitmap_for_each_set:i <- $x24
	//DEBUG_VALUE: sbitmap_for_each_set:sb <- [DW_OP_plus_uconst 96, DW_OP_stack_value] $x20
	//DEBUG_VALUE: ufs_tagset_bt_tags_for_each:bt <- [DW_OP_plus_uconst 96, DW_OP_stack_value] $x20
	//DEBUG_VALUE: ufs_tagset_all_tag_busy_iter:fn <- $x21
	//DEBUG_VALUE: ufs_tagset_all_tag_busy_iter:tags <- $x20
	//DEBUG_VALUE: ufs_tagset_all_tag_busy_iter:priv <- $x19
	//DEBUG_VALUE: nr <- 0
	.loc	97 240 42 is_stmt 1     // kernel/include/linux/sbitmap.h:240:42
	mov	x25, x22
.Ltmp334:
	.loc	97 238 18               // kernel/include/linux/sbitmap.h:238:18
	ldr	w26, [x20, #100]
.Ltmp335:
	.loc	97 240 42               // kernel/include/linux/sbitmap.h:240:42
	ldr	x1, [x25, #8]!
	.loc	97 240 9 is_stmt 0      // kernel/include/linux/sbitmap.h:240:9
	mov	x0, x22
	mov	x2, xzr
	bl	find_next_bit
.Ltmp336:
	.loc	97 241 20 is_stmt 1     // kernel/include/linux/sbitmap.h:241:20
	ldr	x1, [x25]
.Ltmp337:
	.loc	97 240 9                // kernel/include/linux/sbitmap.h:240:9
	mov	x23, x0
.Ltmp338:
	//DEBUG_VALUE: nr <- undef
	.loc	97 241 8                // kernel/include/linux/sbitmap.h:241:8
	cmp	x1, w23, uxtw
	b.ls	.LBB3_31
.Ltmp339:
// %bb.27:                              //   in Loop: Header=BB3_25 Depth=1
	//DEBUG_VALUE: sbitmap_for_each_set:i <- $x24
	//DEBUG_VALUE: sbitmap_for_each_set:sb <- [DW_OP_plus_uconst 96, DW_OP_stack_value] $x20
	//DEBUG_VALUE: ufs_tagset_bt_tags_for_each:bt <- [DW_OP_plus_uconst 96, DW_OP_stack_value] $x20
	//DEBUG_VALUE: ufs_tagset_all_tag_busy_iter:fn <- $x21
	//DEBUG_VALUE: ufs_tagset_all_tag_busy_iter:tags <- $x20
	//DEBUG_VALUE: ufs_tagset_all_tag_busy_iter:priv <- $x19
	.loc	97 0 8 is_stmt 0        // kernel/include/linux/sbitmap.h:0:8
	lsl	w26, w24, w26
.Ltmp340:
	//DEBUG_VALUE: off <- $w26
.LBB3_28:                               //   Parent Loop BB3_25 Depth=1
                                        // =>  This Inner Loop Header: Depth=2
	//DEBUG_VALUE: off <- $w26
	//DEBUG_VALUE: sbitmap_for_each_set:i <- $x24
	//DEBUG_VALUE: sbitmap_for_each_set:sb <- [DW_OP_plus_uconst 96, DW_OP_stack_value] $x20
	//DEBUG_VALUE: ufs_tagset_bt_tags_for_each:bt <- [DW_OP_plus_uconst 96, DW_OP_stack_value] $x20
	//DEBUG_VALUE: ufs_tagset_all_tag_busy_iter:fn <- $x21
	//DEBUG_VALUE: ufs_tagset_all_tag_busy_iter:tags <- $x20
	//DEBUG_VALUE: ufs_tagset_all_tag_busy_iter:priv <- $x19
	//DEBUG_VALUE: nr <- undef
	//DEBUG_VALUE: ufs_tagset_bt_tags_iter:bitmap <- [DW_OP_plus_uconst 96, DW_OP_stack_value] $x20
	//DEBUG_VALUE: ufs_tagset_bt_tags_iter:bitnr <- undef
	//DEBUG_VALUE: ufs_tagset_bt_tags_iter:data <- undef
	//DEBUG_VALUE: ufs_tagset_bt_tags_iter:iter_data <- undef
	//DEBUG_VALUE: ufs_tagset_bt_tags_iter:tags <- $x20
	//DEBUG_VALUE: ufs_tagset_bt_tags_iter:rq <- undef
	.loc	130 112 6 is_stmt 1     // kernel/block/mas_blk_mq_tag.c:112:6
	cbz	x21, .LBB3_30
.Ltmp341:
// %bb.29:                              //   in Loop: Header=BB3_28 Depth=2
	//DEBUG_VALUE: ufs_tagset_bt_tags_iter:tags <- $x20
	//DEBUG_VALUE: ufs_tagset_bt_tags_iter:bitmap <- [DW_OP_plus_uconst 96, DW_OP_stack_value] $x20
	//DEBUG_VALUE: off <- $w26
	//DEBUG_VALUE: sbitmap_for_each_set:i <- $x24
	//DEBUG_VALUE: sbitmap_for_each_set:sb <- [DW_OP_plus_uconst 96, DW_OP_stack_value] $x20
	//DEBUG_VALUE: ufs_tagset_bt_tags_for_each:bt <- [DW_OP_plus_uconst 96, DW_OP_stack_value] $x20
	//DEBUG_VALUE: ufs_tagset_all_tag_busy_iter:fn <- $x21
	//DEBUG_VALUE: ufs_tagset_all_tag_busy_iter:tags <- $x20
	//DEBUG_VALUE: ufs_tagset_all_tag_busy_iter:priv <- $x19
	.loc	130 106 18              // kernel/block/mas_blk_mq_tag.c:106:18
	ldr	w8, [x20, #16]
.Ltmp342:
	//DEBUG_VALUE: nr <- [DW_OP_plus_uconst 1, DW_OP_stack_value] $w23
	//DEBUG_VALUE: nr <- $w23
	.loc	130 110 13              // kernel/block/mas_blk_mq_tag.c:110:13
	ldr	x9, [x20, #208]
.Ltmp343:
	.loc	97 244 20               // kernel/include/linux/sbitmap.h:244:20
	add	w10, w26, w23
.Ltmp344:
	//DEBUG_VALUE: ufs_tagset_bt_tags_iter:bitnr <- $w10
	.loc	130 113 3               // kernel/block/mas_blk_mq_tag.c:113:3
	orr	w2, wzr, #0x1
.Ltmp345:
	.loc	130 106 9               // kernel/block/mas_blk_mq_tag.c:106:9
	add	w8, w10, w8
.Ltmp346:
	//DEBUG_VALUE: ufs_tagset_bt_tags_iter:bitnr <- $w8
	.loc	130 110 7               // kernel/block/mas_blk_mq_tag.c:110:7
	ldr	x0, [x9, w8, uxtw #3]
.Ltmp347:
	//DEBUG_VALUE: ufs_tagset_bt_tags_iter:rq <- $x0
	.loc	130 113 3               // kernel/block/mas_blk_mq_tag.c:113:3
	mov	x1, x19
	blr	x21
.Ltmp348:
	.loc	97 240 42               // kernel/include/linux/sbitmap.h:240:42
	ldr	x1, [x25]
.Ltmp349:
.LBB3_30:                               //   in Loop: Header=BB3_28 Depth=2
	//DEBUG_VALUE: off <- $w26
	//DEBUG_VALUE: sbitmap_for_each_set:i <- $x24
	//DEBUG_VALUE: sbitmap_for_each_set:sb <- [DW_OP_plus_uconst 96, DW_OP_stack_value] $x20
	//DEBUG_VALUE: ufs_tagset_bt_tags_for_each:bt <- [DW_OP_plus_uconst 96, DW_OP_stack_value] $x20
	//DEBUG_VALUE: ufs_tagset_all_tag_busy_iter:fn <- $x21
	//DEBUG_VALUE: ufs_tagset_all_tag_busy_iter:tags <- $x20
	//DEBUG_VALUE: ufs_tagset_all_tag_busy_iter:priv <- $x19
	.loc	97 247 6                // kernel/include/linux/sbitmap.h:247:6
	add	w2, w23, #1             // =1
	.loc	97 240 9                // kernel/include/linux/sbitmap.h:240:9
	mov	x0, x22
	bl	find_next_bit
.Ltmp350:
	.loc	97 241 20               // kernel/include/linux/sbitmap.h:241:20
	ldr	x1, [x25]
.Ltmp351:
	.loc	97 240 9                // kernel/include/linux/sbitmap.h:240:9
	mov	x23, x0
.Ltmp352:
	//DEBUG_VALUE: nr <- undef
	.loc	97 241 8                // kernel/include/linux/sbitmap.h:241:8
	cmp	x1, w23, uxtw
	b.hi	.LBB3_28
.Ltmp353:
.LBB3_31:                               //   in Loop: Header=BB3_25 Depth=1
	//DEBUG_VALUE: sbitmap_for_each_set:i <- $x24
	//DEBUG_VALUE: sbitmap_for_each_set:sb <- [DW_OP_plus_uconst 96, DW_OP_stack_value] $x20
	//DEBUG_VALUE: ufs_tagset_bt_tags_for_each:bt <- [DW_OP_plus_uconst 96, DW_OP_stack_value] $x20
	//DEBUG_VALUE: ufs_tagset_all_tag_busy_iter:fn <- $x21
	//DEBUG_VALUE: ufs_tagset_all_tag_busy_iter:tags <- $x20
	//DEBUG_VALUE: ufs_tagset_all_tag_busy_iter:priv <- $x19
	.loc	97 230 22               // kernel/include/linux/sbitmap.h:230:22
	ldr	w8, [x20, #104]
	.loc	97 230 31 is_stmt 0     // kernel/include/linux/sbitmap.h:230:31
	add	x24, x24, #1            // =1
.Ltmp354:
	//DEBUG_VALUE: sbitmap_for_each_set:i <- [DW_OP_plus_uconst 1, DW_OP_stack_value] undef
	.loc	97 230 2                // kernel/include/linux/sbitmap.h:230:2
	cmp	x24, x8
	b.lo	.LBB3_25
.Ltmp355:
.LBB3_32:
	//DEBUG_VALUE: ufs_tagset_all_tag_busy_iter:fn <- $x21
	//DEBUG_VALUE: ufs_tagset_all_tag_busy_iter:tags <- $x20
	//DEBUG_VALUE: ufs_tagset_all_tag_busy_iter:priv <- $x19
	.loc	130 383 1 is_stmt 1     // kernel/block/mas_blk_mq_tag.c:383:1
	ldp	x29, x30, [sp, #64]     // 16-byte Folded Reload
	ldp	x20, x19, [sp, #48]     // 16-byte Folded Reload
.Ltmp356:
	ldp	x22, x21, [sp, #32]     // 16-byte Folded Reload
.Ltmp357:
	ldp	x24, x23, [sp, #16]     // 16-byte Folded Reload
	ldp	x26, x25, [sp], #80     // 16-byte Folded Reload
	ret
.Ltmp358:
.Lfunc_end3:
	.size	ufs_tagset_all_tag_busy_iter, .Lfunc_end3-ufs_tagset_all_tag_busy_iter
	.cfi_endproc
                                        // -- End function
	.section	.text.ufs_tagset_free_tags,"ax",@progbits
	.hidden	ufs_tagset_free_tags    // -- Begin function ufs_tagset_free_tags
	.globl	ufs_tagset_free_tags
	.p2align	2
	.type	ufs_tagset_free_tags,@function
ufs_tagset_free_tags:                   // @ufs_tagset_free_tags
.Lfunc_begin4:
	.loc	130 386 0               // kernel/block/mas_blk_mq_tag.c:386:0
	.cfi_startproc
// %bb.0:
	//DEBUG_VALUE: ufs_tagset_free_tags:tags <- $x0
	//DEBUG_VALUE: sbitmap_queue_free:sbq <- [DW_OP_plus_uconst 40, DW_OP_stack_value] $x0
	str	x19, [sp, #-32]!        // 8-byte Folded Spill
	stp	x29, x30, [sp, #16]     // 16-byte Folded Spill
	add	x29, sp, #16            // =16
	.cfi_def_cfa w29, 16
	.cfi_offset w30, -8
	.cfi_offset w29, -16
	.cfi_offset w19, -32
	mov	x19, x0
.Ltmp359:
	//DEBUG_VALUE: sbitmap_queue_free:sbq <- [DW_OP_plus_uconst 40, DW_OP_stack_value] $x19
	//DEBUG_VALUE: ufs_tagset_free_tags:tags <- $x19
	.loc	97 322 13 prologue_end  // kernel/include/linux/sbitmap.h:322:13
	ldr	x0, [x0, #80]
	.loc	97 322 2 is_stmt 0      // kernel/include/linux/sbitmap.h:322:2
	bl	kfree
	.loc	97 323 19 is_stmt 1     // kernel/include/linux/sbitmap.h:323:19
	ldr	x0, [x19, #64]
	.loc	97 323 2 is_stmt 0      // kernel/include/linux/sbitmap.h:323:2
	bl	free_percpu
.Ltmp360:
	//DEBUG_VALUE: sbitmap_free:sb <- [DW_OP_plus_uconst 40, DW_OP_stack_value] $x19
	.loc	97 152 12 is_stmt 1     // kernel/include/linux/sbitmap.h:152:12
	ldr	x0, [x19, #56]
	.loc	97 152 2 is_stmt 0      // kernel/include/linux/sbitmap.h:152:2
	bl	kfree
.Ltmp361:
	.loc	97 322 13 is_stmt 1     // kernel/include/linux/sbitmap.h:322:13
	ldr	x0, [x19, #136]
.Ltmp362:
	.loc	97 153 10               // kernel/include/linux/sbitmap.h:153:10
	str	xzr, [x19, #56]
.Ltmp363:
	//DEBUG_VALUE: sbitmap_queue_free:sbq <- [DW_OP_plus_uconst 96, DW_OP_stack_value] $x19
	//DEBUG_VALUE: sbitmap_free:sb <- [DW_OP_plus_uconst 40, DW_OP_stack_value] $x19
	//DEBUG_VALUE: sbitmap_queue_free:sbq <- [DW_OP_plus_uconst 40, DW_OP_stack_value] $x19
	.loc	97 322 2                // kernel/include/linux/sbitmap.h:322:2
	bl	kfree
	.loc	97 323 19               // kernel/include/linux/sbitmap.h:323:19
	ldr	x0, [x19, #120]
	.loc	97 323 2 is_stmt 0      // kernel/include/linux/sbitmap.h:323:2
	bl	free_percpu
.Ltmp364:
	//DEBUG_VALUE: sbitmap_free:sb <- [DW_OP_plus_uconst 96, DW_OP_stack_value] $x19
	.loc	97 152 12 is_stmt 1     // kernel/include/linux/sbitmap.h:152:12
	ldr	x0, [x19, #112]
	.loc	97 152 2 is_stmt 0      // kernel/include/linux/sbitmap.h:152:2
	bl	kfree
.Ltmp365:
	.loc	97 322 13 is_stmt 1     // kernel/include/linux/sbitmap.h:322:13
	ldr	x0, [x19, #192]
.Ltmp366:
	.loc	97 153 10               // kernel/include/linux/sbitmap.h:153:10
	str	xzr, [x19, #112]
.Ltmp367:
	//DEBUG_VALUE: sbitmap_queue_free:sbq <- [DW_OP_plus_uconst 152, DW_OP_stack_value] $x19
	//DEBUG_VALUE: sbitmap_free:sb <- [DW_OP_plus_uconst 96, DW_OP_stack_value] $x19
	//DEBUG_VALUE: sbitmap_queue_free:sbq <- [DW_OP_plus_uconst 96, DW_OP_stack_value] $x19
	.loc	97 322 2                // kernel/include/linux/sbitmap.h:322:2
	bl	kfree
	.loc	97 323 19               // kernel/include/linux/sbitmap.h:323:19
	ldr	x0, [x19, #176]
	.loc	97 323 2 is_stmt 0      // kernel/include/linux/sbitmap.h:323:2
	bl	free_percpu
.Ltmp368:
	//DEBUG_VALUE: sbitmap_free:sb <- [DW_OP_plus_uconst 152, DW_OP_stack_value] $x19
	.loc	97 152 12 is_stmt 1     // kernel/include/linux/sbitmap.h:152:12
	ldr	x0, [x19, #168]
	.loc	97 152 2 is_stmt 0      // kernel/include/linux/sbitmap.h:152:2
	bl	kfree
.Ltmp369:
	.loc	130 390 2 is_stmt 1     // kernel/block/mas_blk_mq_tag.c:390:2
	mov	x0, x19
.Ltmp370:
	.loc	97 153 10               // kernel/include/linux/sbitmap.h:153:10
	str	xzr, [x19, #168]
.Ltmp371:
	.loc	130 390 2               // kernel/block/mas_blk_mq_tag.c:390:2
	bl	kfree
	.loc	130 391 1               // kernel/block/mas_blk_mq_tag.c:391:1
	ldp	x29, x30, [sp, #16]     // 16-byte Folded Reload
	ldr	x19, [sp], #32          // 8-byte Folded Reload
.Ltmp372:
	ret
.Ltmp373:
.Lfunc_end4:
	.size	ufs_tagset_free_tags, .Lfunc_end4-ufs_tagset_free_tags
	.cfi_endproc
                                        // -- End function
	.section	.text.ufs_mq_tag_wakeup_all,"ax",@progbits
	.hidden	ufs_mq_tag_wakeup_all   // -- Begin function ufs_mq_tag_wakeup_all
	.globl	ufs_mq_tag_wakeup_all
	.p2align	2
	.type	ufs_mq_tag_wakeup_all,@function
ufs_mq_tag_wakeup_all:                  // @ufs_mq_tag_wakeup_all
.Lfunc_begin5:
	.loc	130 394 0               // kernel/block/mas_blk_mq_tag.c:394:0
	.cfi_startproc
// %bb.0:
	//DEBUG_VALUE: ufs_mq_tag_wakeup_all:tags <- $x0
	str	x19, [sp, #-32]!        // 8-byte Folded Spill
	stp	x29, x30, [sp, #16]     // 16-byte Folded Spill
	add	x29, sp, #16            // =16
	.cfi_def_cfa w29, 16
	.cfi_offset w30, -8
	.cfi_offset w29, -16
	.cfi_offset w19, -32
	mov	x19, x0
.Ltmp374:
	//DEBUG_VALUE: ufs_mq_tag_wakeup_all:tags <- $x19
	.loc	130 395 32 prologue_end // kernel/block/mas_blk_mq_tag.c:395:32
	add	x0, x0, #40             // =40
	.loc	130 395 2 is_stmt 0     // kernel/block/mas_blk_mq_tag.c:395:2
	bl	sbitmap_queue_wake_all
	.loc	130 396 32 is_stmt 1    // kernel/block/mas_blk_mq_tag.c:396:32
	add	x0, x19, #96            // =96
	.loc	130 396 2 is_stmt 0     // kernel/block/mas_blk_mq_tag.c:396:2
	bl	sbitmap_queue_wake_all
	.loc	130 397 32 is_stmt 1    // kernel/block/mas_blk_mq_tag.c:397:32
	add	x0, x19, #152           // =152
	.loc	130 397 2 is_stmt 0     // kernel/block/mas_blk_mq_tag.c:397:2
	bl	sbitmap_queue_wake_all
	.loc	130 398 2 is_stmt 1     // kernel/block/mas_blk_mq_tag.c:398:2
	ldp	x29, x30, [sp, #16]     // 16-byte Folded Reload
	mov	w0, wzr
	ldr	x19, [sp], #32          // 8-byte Folded Reload
.Ltmp375:
	ret
.Ltmp376:
.Lfunc_end5:
	.size	ufs_mq_tag_wakeup_all, .Lfunc_end5-ufs_mq_tag_wakeup_all
	.cfi_endproc
                                        // -- End function
	.section	.text.ufs_tagset_init_tags,"ax",@progbits
	.hidden	ufs_tagset_init_tags    // -- Begin function ufs_tagset_init_tags
	.globl	ufs_tagset_init_tags
	.p2align	2
	.type	ufs_tagset_init_tags,@function
ufs_tagset_init_tags:                   // @ufs_tagset_init_tags
.Lfunc_begin6:
	.loc	130 404 0               // kernel/block/mas_blk_mq_tag.c:404:0
	.cfi_startproc
// %bb.0:
	//DEBUG_VALUE: ufs_tagset_init_tags:total_tags <- $w0
	//DEBUG_VALUE: ufs_tagset_init_tags:reserved_tags <- $w1
	//DEBUG_VALUE: ufs_tagset_init_tags:high_prio_tags <- $w2
	//DEBUG_VALUE: ufs_tagset_init_tags:node <- $w3
	//DEBUG_VALUE: ufs_tagset_init_tags:alloc_policy <- $w4
	str	x25, [sp, #-80]!        // 8-byte Folded Spill
	stp	x24, x23, [sp, #16]     // 16-byte Folded Spill
	stp	x22, x21, [sp, #32]     // 16-byte Folded Spill
	stp	x20, x19, [sp, #48]     // 16-byte Folded Spill
	stp	x29, x30, [sp, #64]     // 16-byte Folded Spill
	add	x29, sp, #64            // =64
	.cfi_def_cfa w29, 16
	.cfi_offset w30, -8
	.cfi_offset w29, -16
	.cfi_offset w19, -24
	.cfi_offset w20, -32
	.cfi_offset w21, -40
	.cfi_offset w22, -48
	.cfi_offset w23, -56
	.cfi_offset w24, -64
	.cfi_offset w25, -80
.Ltmp377:
	.loc	20 577 5 prologue_end   // kernel/include/linux/slab.h:577:5
	adrp	x8, kmalloc_caches+64
	mov	w22, w0
.Ltmp378:
	//DEBUG_VALUE: ufs_tagset_init_tags:alloc_policy <- $w21
	//DEBUG_VALUE: ufs_tagset_init_tags:node <- $w20
	//DEBUG_VALUE: ufs_tagset_init_tags:high_prio_tags <- $w23
	//DEBUG_VALUE: ufs_tagset_init_tags:reserved_tags <- $w24
	//DEBUG_VALUE: ufs_tagset_init_tags:total_tags <- $w22
	ldr	x0, [x8, :lo12:kmalloc_caches+64]
.Ltmp379:
	//DEBUG_VALUE: kmem_cache_alloc_node_trace:node <- undef
	.loc	20 0 5 is_stmt 0        // kernel/include/linux/slab.h:0:5
	mov	w8, #192
	movk	w8, #320, lsl #16
.Ltmp380:
	//DEBUG_VALUE: i <- 8
	//DEBUG_VALUE: kmalloc_node:node <- undef
	//DEBUG_VALUE: kmalloc_node:flags <- 21004480
	//DEBUG_VALUE: kmalloc_node:size <- 240
	//DEBUG_VALUE: kzalloc_node:node <- undef
	//DEBUG_VALUE: kzalloc_node:flags <- 20971712
	//DEBUG_VALUE: kzalloc_node:size <- 240
	//DEBUG_VALUE: ufs_tagset_init_tags:tags <- 0
	//DEBUG_VALUE: kmem_cache_alloc_node_trace:size <- 240
	//DEBUG_VALUE: kmem_cache_alloc_node_trace:gfpflags <- 21004480
	//DEBUG_VALUE: kmem_cache_alloc_node_trace:s <- $x0
	mov	w23, w2
.Ltmp381:
	mov	w24, w1
.Ltmp382:
	.loc	20 425 9 is_stmt 1      // kernel/include/linux/slab.h:425:9
	add	w1, w8, #8, lsl #12     // =32768
	orr	w2, wzr, #0xf0
	mov	w21, w4
.Ltmp383:
	.loc	20 0 9 is_stmt 0        // kernel/include/linux/slab.h:0:9
	mov	w20, w3
.Ltmp384:
	.loc	20 425 9                // kernel/include/linux/slab.h:425:9
	bl	kmem_cache_alloc_trace
.Ltmp385:
	mov	x19, x0
.Ltmp386:
	//DEBUG_VALUE: ufs_tagset_init_bitmap_tags:tags <- $x19
	//DEBUG_VALUE: ufs_tagset_init_tags:tags <- $x19
	.loc	130 409 6 is_stmt 1     // kernel/block/mas_blk_mq_tag.c:409:6
	cbz	x0, .LBB6_7
.Ltmp387:
// %bb.1:
	//DEBUG_VALUE: ufs_tagset_init_tags:tags <- $x19
	//DEBUG_VALUE: ufs_tagset_init_bitmap_tags:tags <- $x19
	//DEBUG_VALUE: ufs_tagset_init_tags:total_tags <- $w22
	.loc	130 326 37              // kernel/block/mas_blk_mq_tag.c:326:37
	sub	w8, w22, w24
.Ltmp388:
	.loc	130 412 16              // kernel/block/mas_blk_mq_tag.c:412:16
	stp	w22, w24, [x19]
.Ltmp389:
	.loc	130 326 62              // kernel/block/mas_blk_mq_tag.c:326:62
	sub	w22, w8, w23
.Ltmp390:
	//DEBUG_VALUE: ufs_tagset_init_bitmap_tags:depth <- $w22
	.loc	130 330 2               // kernel/block/mas_blk_mq_tag.c:330:2
	adrp	x0, .L.str.1
	.loc	130 328 34              // kernel/block/mas_blk_mq_tag.c:328:34
	cmp	w21, #1                 // =1
	.loc	130 330 2               // kernel/block/mas_blk_mq_tag.c:330:2
	add	x0, x0, :lo12:.L.str.1
	mov	w1, w22
	mov	w2, w24
	mov	w3, w23
.Ltmp391:
	.loc	130 414 26              // kernel/block/mas_blk_mq_tag.c:414:26
	str	w23, [x19, #8]
.Ltmp392:
	//DEBUG_VALUE: ufs_tagset_init_bitmap_tags:alloc_policy <- $w21
	//DEBUG_VALUE: ufs_tagset_init_bitmap_tags:node <- $w20
	.loc	130 328 34              // kernel/block/mas_blk_mq_tag.c:328:34
	cset	w25, eq
	.loc	130 330 2               // kernel/block/mas_blk_mq_tag.c:330:2
	bl	printk
.Ltmp393:
	.loc	130 333 6               // kernel/block/mas_blk_mq_tag.c:333:6
	mov	w4, #192
	.loc	130 333 37 is_stmt 0    // kernel/block/mas_blk_mq_tag.c:333:37
	add	x0, x19, #40            // =40
.Ltmp394:
	//DEBUG_VALUE: sbitmap_queue_free:sbq <- $x0
	//DEBUG_VALUE: sbitmap_free:sb <- $x0
	.loc	130 333 6               // kernel/block/mas_blk_mq_tag.c:333:6
	mov	w2, #-1
	movk	w4, #320, lsl #16
	mov	w1, w22
	mov	w3, w25
	mov	w5, w20
	bl	sbitmap_queue_init_node
.Ltmp395:
	.loc	130 333 6               // kernel/block/mas_blk_mq_tag.c:333:6
	cbnz	w0, .LBB6_6
.Ltmp396:
// %bb.2:
	//DEBUG_VALUE: ufs_tagset_init_bitmap_tags:node <- $w20
	//DEBUG_VALUE: ufs_tagset_init_bitmap_tags:alloc_policy <- $w21
	//DEBUG_VALUE: ufs_tagset_init_bitmap_tags:depth <- $w22
	//DEBUG_VALUE: ufs_tagset_init_tags:tags <- $x19
	//DEBUG_VALUE: ufs_tagset_init_bitmap_tags:tags <- $x19
	.loc	130 338 13 is_stmt 1    // kernel/block/mas_blk_mq_tag.c:338:13
	ldr	w1, [x19, #4]
.Ltmp397:
	.loc	130 328 34              // kernel/block/mas_blk_mq_tag.c:328:34
	cmp	w21, #1                 // =1
.Ltmp398:
	.loc	130 337 6               // kernel/block/mas_blk_mq_tag.c:337:6
	mov	w4, #192
.Ltmp399:
	.loc	130 328 34              // kernel/block/mas_blk_mq_tag.c:328:34
	cset	w3, eq
.Ltmp400:
	.loc	130 337 37              // kernel/block/mas_blk_mq_tag.c:337:37
	add	x0, x19, #96            // =96
.Ltmp401:
	//DEBUG_VALUE: sbitmap_queue_free:sbq <- $x0
	//DEBUG_VALUE: sbitmap_free:sb <- $x0
	.loc	130 337 6 is_stmt 0     // kernel/block/mas_blk_mq_tag.c:337:6
	mov	w2, #-1
	movk	w4, #320, lsl #16
	mov	w5, w20
	bl	sbitmap_queue_init_node
.Ltmp402:
	.loc	130 337 6               // kernel/block/mas_blk_mq_tag.c:337:6
	cbnz	w0, .LBB6_5
.Ltmp403:
// %bb.3:
	//DEBUG_VALUE: ufs_tagset_init_bitmap_tags:node <- $w20
	//DEBUG_VALUE: ufs_tagset_init_bitmap_tags:alloc_policy <- $w21
	//DEBUG_VALUE: ufs_tagset_init_bitmap_tags:depth <- $w22
	//DEBUG_VALUE: ufs_tagset_init_tags:tags <- $x19
	//DEBUG_VALUE: ufs_tagset_init_bitmap_tags:tags <- $x19
	.loc	130 342 13 is_stmt 1    // kernel/block/mas_blk_mq_tag.c:342:13
	ldr	w1, [x19, #8]
.Ltmp404:
	.loc	130 328 34              // kernel/block/mas_blk_mq_tag.c:328:34
	cmp	w21, #1                 // =1
.Ltmp405:
	.loc	130 341 6               // kernel/block/mas_blk_mq_tag.c:341:6
	mov	w4, #192
.Ltmp406:
	.loc	130 328 34              // kernel/block/mas_blk_mq_tag.c:328:34
	cset	w3, eq
.Ltmp407:
	.loc	130 341 37              // kernel/block/mas_blk_mq_tag.c:341:37
	add	x0, x19, #152           // =152
	.loc	130 341 6 is_stmt 0     // kernel/block/mas_blk_mq_tag.c:341:6
	mov	w2, #-1
	movk	w4, #320, lsl #16
	mov	w5, w20
	bl	sbitmap_queue_init_node
.Ltmp408:
	.loc	130 341 6               // kernel/block/mas_blk_mq_tag.c:341:6
	cbz	w0, .LBB6_8
.Ltmp409:
// %bb.4:
	//DEBUG_VALUE: ufs_tagset_init_bitmap_tags:node <- $w20
	//DEBUG_VALUE: ufs_tagset_init_bitmap_tags:alloc_policy <- $w21
	//DEBUG_VALUE: ufs_tagset_init_bitmap_tags:depth <- $w22
	//DEBUG_VALUE: ufs_tagset_init_tags:tags <- $x19
	//DEBUG_VALUE: ufs_tagset_init_bitmap_tags:tags <- $x19
	//DEBUG_LABEL: ufs_tagset_init_bitmap_tags:enomem2
	.loc	97 322 13 is_stmt 1     // kernel/include/linux/sbitmap.h:322:13
	ldr	x0, [x19, #136]
	.loc	97 322 2 is_stmt 0      // kernel/include/linux/sbitmap.h:322:2
	bl	kfree
	.loc	97 323 19 is_stmt 1     // kernel/include/linux/sbitmap.h:323:19
	ldr	x0, [x19, #120]
	.loc	97 323 2 is_stmt 0      // kernel/include/linux/sbitmap.h:323:2
	bl	free_percpu
.Ltmp410:
	.loc	97 152 12 is_stmt 1     // kernel/include/linux/sbitmap.h:152:12
	ldr	x0, [x19, #112]
	.loc	97 152 2 is_stmt 0      // kernel/include/linux/sbitmap.h:152:2
	bl	kfree
	.loc	97 153 10 is_stmt 1     // kernel/include/linux/sbitmap.h:153:10
	str	xzr, [x19, #112]
.Ltmp411:
.LBB6_5:
	//DEBUG_VALUE: ufs_tagset_init_bitmap_tags:node <- $w20
	//DEBUG_VALUE: ufs_tagset_init_bitmap_tags:alloc_policy <- $w21
	//DEBUG_VALUE: ufs_tagset_init_bitmap_tags:depth <- $w22
	//DEBUG_VALUE: ufs_tagset_init_tags:tags <- $x19
	//DEBUG_VALUE: ufs_tagset_init_bitmap_tags:tags <- $x19
	//DEBUG_LABEL: ufs_tagset_init_bitmap_tags:enomem1
	.loc	97 322 13               // kernel/include/linux/sbitmap.h:322:13
	ldr	x0, [x19, #80]
	.loc	97 322 2 is_stmt 0      // kernel/include/linux/sbitmap.h:322:2
	bl	kfree
	.loc	97 323 19 is_stmt 1     // kernel/include/linux/sbitmap.h:323:19
	ldr	x0, [x19, #64]
	.loc	97 323 2 is_stmt 0      // kernel/include/linux/sbitmap.h:323:2
	bl	free_percpu
.Ltmp412:
	.loc	97 152 12 is_stmt 1     // kernel/include/linux/sbitmap.h:152:12
	ldr	x0, [x19, #56]
	.loc	97 152 2 is_stmt 0      // kernel/include/linux/sbitmap.h:152:2
	bl	kfree
	.loc	97 153 10 is_stmt 1     // kernel/include/linux/sbitmap.h:153:10
	str	xzr, [x19, #56]
.Ltmp413:
.LBB6_6:
	//DEBUG_VALUE: ufs_tagset_init_bitmap_tags:node <- $w20
	//DEBUG_VALUE: ufs_tagset_init_bitmap_tags:alloc_policy <- $w21
	//DEBUG_VALUE: ufs_tagset_init_bitmap_tags:depth <- $w22
	//DEBUG_VALUE: ufs_tagset_init_tags:tags <- $x19
	//DEBUG_VALUE: ufs_tagset_init_bitmap_tags:tags <- $x19
	//DEBUG_LABEL: ufs_tagset_init_bitmap_tags:enomem
	.loc	130 355 2               // kernel/block/mas_blk_mq_tag.c:355:2
	adrp	x0, .L.str.2
	adrp	x1, .L__func__.ufs_tagset_init_bitmap_tags
	add	x0, x0, :lo12:.L.str.2
	add	x1, x1, :lo12:.L__func__.ufs_tagset_init_bitmap_tags
	bl	printk
.Ltmp414:
	//DEBUG_VALUE: ufs_tagset_init_tags:ret <- -12
	.loc	130 418 3               // kernel/block/mas_blk_mq_tag.c:418:3
	adrp	x0, .L.str
	add	x0, x0, :lo12:.L.str
	bl	printk
	.loc	130 419 3               // kernel/block/mas_blk_mq_tag.c:419:3
	mov	x0, x19
	bl	kfree
.Ltmp415:
	.loc	130 0 0 is_stmt 0       // kernel/block/mas_blk_mq_tag.c:0:0
	mov	x19, xzr
.Ltmp416:
.LBB6_7:
	.loc	130 424 1 is_stmt 1     // kernel/block/mas_blk_mq_tag.c:424:1
	mov	x0, x19
	ldp	x29, x30, [sp, #64]     // 16-byte Folded Reload
	ldp	x20, x19, [sp, #48]     // 16-byte Folded Reload
	ldp	x22, x21, [sp, #32]     // 16-byte Folded Reload
	ldp	x24, x23, [sp, #16]     // 16-byte Folded Reload
	ldr	x25, [sp], #80          // 8-byte Folded Reload
	ret
.LBB6_8:
.Ltmp417:
	//DEBUG_VALUE: ufs_tagset_init_bitmap_tags:node <- $w20
	//DEBUG_VALUE: ufs_tagset_init_bitmap_tags:alloc_policy <- $w21
	//DEBUG_VALUE: ufs_tagset_init_bitmap_tags:depth <- $w22
	//DEBUG_VALUE: ufs_tagset_init_tags:tags <- $x19
	//DEBUG_VALUE: ufs_tagset_init_bitmap_tags:tags <- $x19
	.loc	130 347 41              // kernel/block/mas_blk_mq_tag.c:347:41
	ldr	w8, [x19, #4]
	.loc	130 345 23              // kernel/block/mas_blk_mq_tag.c:345:23
	stp	wzr, w22, [x19, #12]
	.loc	130 347 58              // kernel/block/mas_blk_mq_tag.c:347:58
	add	w8, w8, w22
	.loc	130 347 33 is_stmt 0    // kernel/block/mas_blk_mq_tag.c:347:33
	str	w8, [x19, #20]
	//DEBUG_VALUE: ufs_tagset_init_tags:ret <- -12
	b	.LBB6_7
.Ltmp418:
.Lfunc_end6:
	.size	ufs_tagset_init_tags, .Lfunc_end6-ufs_tagset_init_tags
	.cfi_endproc
                                        // -- End function
	.section	.text.ufs_try_get_tag,"ax",@progbits
	.p2align	2               // -- Begin function ufs_try_get_tag
	.type	ufs_try_get_tag,@function
ufs_try_get_tag:                        // @ufs_try_get_tag
.Lfunc_begin7:
	.loc	130 152 0 is_stmt 1     // kernel/block/mas_blk_mq_tag.c:152:0
	.cfi_startproc
// %bb.0:
	//DEBUG_VALUE: ufs_try_get_tag:data <- $x0
	//DEBUG_VALUE: ufs_try_get_tag:bt <- $x1
	//DEBUG_VALUE: ufs_try_get_tag:hctx <- $x2
	stp	x22, x21, [sp, #-48]!   // 16-byte Folded Spill
	stp	x20, x19, [sp, #16]     // 16-byte Folded Spill
	stp	x29, x30, [sp, #32]     // 16-byte Folded Spill
	add	x29, sp, #32            // =32
	.cfi_def_cfa w29, 16
	.cfi_offset w30, -8
	.cfi_offset w29, -16
	.cfi_offset w19, -24
	.cfi_offset w20, -32
	.cfi_offset w21, -40
	.cfi_offset w22, -48
.Ltmp419:
	.loc	130 127 16 prologue_end // kernel/block/mas_blk_mq_tag.c:127:16
	ldr	x8, [x0, #8]
	mov	w22, #4096
	mov	x21, x2
	mov	x19, x1
	mov	x20, x0
.Ltmp420:
	//DEBUG_VALUE: ufs_sbitmap_is_fg:data <- $x20
	//DEBUG_VALUE: ufs_sbitmap_queue_get:bt <- undef
	//DEBUG_VALUE: ufs_sbitmap_queue_get:data <- $x20
	//DEBUG_VALUE: ufs_try_get_tag:hctx <- $x21
	//DEBUG_VALUE: ufs_try_get_tag:bt <- $x19
	//DEBUG_VALUE: ufs_try_get_tag:data <- $x20
	.loc	130 0 16 is_stmt 0      // kernel/block/mas_blk_mq_tag.c:0:16
	movk	w22, #64, lsl #16
.Ltmp421:
	.loc	130 143 6 is_stmt 1     // kernel/block/mas_blk_mq_tag.c:143:6
	tbnz	w8, #23, .LBB7_5
.Ltmp422:
// %bb.1:
	//DEBUG_VALUE: ufs_try_get_tag:data <- $x20
	//DEBUG_VALUE: ufs_try_get_tag:bt <- $x19
	//DEBUG_VALUE: ufs_try_get_tag:hctx <- $x21
	//DEBUG_VALUE: ufs_sbitmap_queue_get:data <- $x20
	.loc	130 0 0 is_stmt 0       // kernel/block/mas_blk_mq_tag.c:0:0
	and	x8, x8, x22
	.loc	130 143 6               // kernel/block/mas_blk_mq_tag.c:143:6
	cbz	x8, .LBB7_5
.Ltmp423:
// %bb.2:
	//DEBUG_VALUE: ufs_try_get_tag:data <- $x20
	//DEBUG_VALUE: ufs_try_get_tag:bt <- $x19
	//DEBUG_VALUE: ufs_try_get_tag:hctx <- $x21
	//DEBUG_VALUE: ufs_sbitmap_queue_get:data <- $x20
	mov	x0, x20
	bl	ufs_mq_vip_tag_wait_cnt
	cbz	w0, .LBB7_5
.Ltmp424:
// %bb.3:
	//DEBUG_VALUE: ufs_try_get_tag:data <- $x20
	//DEBUG_VALUE: ufs_try_get_tag:bt <- $x19
	//DEBUG_VALUE: ufs_try_get_tag:hctx <- $x21
	//DEBUG_VALUE: ufs_sbitmap_queue_get:data <- $x20
	//DEBUG_VALUE: ufs_sbitmap_fg_starved:data <- $x20
	.loc	130 133 13 is_stmt 1    // kernel/block/mas_blk_mq_tag.c:133:13
	ldr	x8, [x20, #32]
.Ltmp425:
	.loc	130 133 6 is_stmt 0     // kernel/block/mas_blk_mq_tag.c:133:6
	cbz	x8, .LBB7_6
.Ltmp426:
// %bb.4:
	//DEBUG_VALUE: ufs_sbitmap_fg_starved:data <- $x20
	//DEBUG_VALUE: ufs_try_get_tag:data <- $x20
	//DEBUG_VALUE: ufs_try_get_tag:bt <- $x19
	//DEBUG_VALUE: ufs_try_get_tag:hctx <- $x21
	//DEBUG_VALUE: ufs_sbitmap_queue_get:data <- $x20
	.loc	130 136 21 is_stmt 1    // kernel/block/mas_blk_mq_tag.c:136:21
	bl	ktime_get
.Ltmp427:
	//DEBUG_VALUE: ktime_after:cmp1 <- $x0
	//DEBUG_VALUE: ktime_compare:cmp1 <- $x0
	.loc	130 137 22              // kernel/block/mas_blk_mq_tag.c:137:22
	ldr	x8, [x20, #32]
	mov	w9, #25856
	movk	w9, #7629, lsl #16
.Ltmp428:
	//DEBUG_VALUE: ktime_add_ms:msec <- 500
	//DEBUG_VALUE: ktime_add_ms:kt <- $x8
	.loc	32 200 9                // kernel/include/linux/ktime.h:200:9
	add	x8, x8, x9
.Ltmp429:
	//DEBUG_VALUE: ktime_compare:cmp2 <- $x8
	//DEBUG_VALUE: ktime_after:cmp2 <- $x8
	.loc	130 143 6               // kernel/block/mas_blk_mq_tag.c:143:6
	cmp	x0, x8
	b.le	.LBB7_6
.Ltmp430:
.LBB7_5:
	//DEBUG_VALUE: ufs_try_get_tag:data <- $x20
	//DEBUG_VALUE: ufs_try_get_tag:bt <- $x19
	//DEBUG_VALUE: ufs_try_get_tag:hctx <- $x21
	//DEBUG_VALUE: ufs_sbitmap_queue_get:data <- $x20
	.loc	130 147 9               // kernel/block/mas_blk_mq_tag.c:147:9
	mov	x0, x19
	bl	__sbitmap_queue_get
.Ltmp431:
	//DEBUG_VALUE: ufs_try_get_tag:tag <- $w0
	.loc	130 156 6               // kernel/block/mas_blk_mq_tag.c:156:6
	cmn	w0, #1                  // =1
	b.ne	.LBB7_12
.Ltmp432:
.LBB7_6:
	//DEBUG_VALUE: ufs_try_get_tag:data <- $x20
	//DEBUG_VALUE: ufs_try_get_tag:bt <- $x19
	//DEBUG_VALUE: ufs_try_get_tag:hctx <- $x21
	.loc	130 164 2               // kernel/block/mas_blk_mq_tag.c:164:2
	mov	x0, x21
	mov	w1, wzr
	bl	blk_mq_run_hw_queue
.Ltmp433:
	//DEBUG_VALUE: ufs_sbitmap_is_fg:data <- $x20
	//DEBUG_VALUE: ufs_sbitmap_queue_get:bt <- $x19
	//DEBUG_VALUE: ufs_sbitmap_queue_get:data <- $x20
	.loc	130 127 16              // kernel/block/mas_blk_mq_tag.c:127:16
	ldr	x8, [x20, #8]
.Ltmp434:
	.loc	130 143 6               // kernel/block/mas_blk_mq_tag.c:143:6
	tbnz	w8, #23, .LBB7_11
.Ltmp435:
// %bb.7:
	//DEBUG_VALUE: ufs_sbitmap_queue_get:data <- $x20
	//DEBUG_VALUE: ufs_sbitmap_queue_get:bt <- $x19
	//DEBUG_VALUE: ufs_try_get_tag:data <- $x20
	//DEBUG_VALUE: ufs_try_get_tag:bt <- $x19
	//DEBUG_VALUE: ufs_try_get_tag:hctx <- $x21
	.loc	130 0 0 is_stmt 0       // kernel/block/mas_blk_mq_tag.c:0:0
	and	x8, x8, x22
	.loc	130 143 6               // kernel/block/mas_blk_mq_tag.c:143:6
	cbz	x8, .LBB7_11
.Ltmp436:
// %bb.8:
	//DEBUG_VALUE: ufs_sbitmap_queue_get:data <- $x20
	//DEBUG_VALUE: ufs_sbitmap_queue_get:bt <- $x19
	//DEBUG_VALUE: ufs_try_get_tag:data <- $x20
	//DEBUG_VALUE: ufs_try_get_tag:bt <- $x19
	//DEBUG_VALUE: ufs_try_get_tag:hctx <- $x21
	mov	x0, x20
	bl	ufs_mq_vip_tag_wait_cnt
	cbz	w0, .LBB7_11
.Ltmp437:
// %bb.9:
	//DEBUG_VALUE: ufs_sbitmap_queue_get:data <- $x20
	//DEBUG_VALUE: ufs_sbitmap_queue_get:bt <- $x19
	//DEBUG_VALUE: ufs_try_get_tag:data <- $x20
	//DEBUG_VALUE: ufs_try_get_tag:bt <- $x19
	//DEBUG_VALUE: ufs_try_get_tag:hctx <- $x21
	//DEBUG_VALUE: ufs_sbitmap_fg_starved:data <- $x20
	.loc	130 133 13 is_stmt 1    // kernel/block/mas_blk_mq_tag.c:133:13
	ldr	x8, [x20, #32]
.Ltmp438:
	.loc	130 133 6 is_stmt 0     // kernel/block/mas_blk_mq_tag.c:133:6
	cbz	x8, .LBB7_13
.Ltmp439:
// %bb.10:
	//DEBUG_VALUE: ufs_sbitmap_fg_starved:data <- $x20
	//DEBUG_VALUE: ufs_sbitmap_queue_get:data <- $x20
	//DEBUG_VALUE: ufs_sbitmap_queue_get:bt <- $x19
	//DEBUG_VALUE: ufs_try_get_tag:data <- $x20
	//DEBUG_VALUE: ufs_try_get_tag:bt <- $x19
	//DEBUG_VALUE: ufs_try_get_tag:hctx <- $x21
	.loc	130 136 21 is_stmt 1    // kernel/block/mas_blk_mq_tag.c:136:21
	bl	ktime_get
.Ltmp440:
	//DEBUG_VALUE: ktime_after:cmp1 <- $x0
	//DEBUG_VALUE: ktime_compare:cmp1 <- $x0
	.loc	130 137 22              // kernel/block/mas_blk_mq_tag.c:137:22
	ldr	x8, [x20, #32]
	mov	w9, #25856
	movk	w9, #7629, lsl #16
.Ltmp441:
	//DEBUG_VALUE: ktime_add_ms:msec <- 500
	//DEBUG_VALUE: ktime_add_ms:kt <- $x8
	.loc	32 200 9                // kernel/include/linux/ktime.h:200:9
	add	x8, x8, x9
.Ltmp442:
	//DEBUG_VALUE: ktime_compare:cmp2 <- $x8
	//DEBUG_VALUE: ktime_after:cmp2 <- $x8
	.loc	130 143 6               // kernel/block/mas_blk_mq_tag.c:143:6
	cmp	x0, x8
	b.le	.LBB7_13
.Ltmp443:
.LBB7_11:
	//DEBUG_VALUE: ufs_sbitmap_queue_get:data <- $x20
	//DEBUG_VALUE: ufs_sbitmap_queue_get:bt <- $x19
	//DEBUG_VALUE: ufs_try_get_tag:data <- $x20
	//DEBUG_VALUE: ufs_try_get_tag:bt <- $x19
	//DEBUG_VALUE: ufs_try_get_tag:hctx <- $x21
	.loc	130 147 9               // kernel/block/mas_blk_mq_tag.c:147:9
	mov	x0, x19
	bl	__sbitmap_queue_get
.Ltmp444:
.LBB7_12:
	//DEBUG_VALUE: ufs_try_get_tag:data <- $x20
	//DEBUG_VALUE: ufs_try_get_tag:bt <- $x19
	//DEBUG_VALUE: ufs_try_get_tag:hctx <- $x21
	.loc	130 171 1               // kernel/block/mas_blk_mq_tag.c:171:1
	ldp	x29, x30, [sp, #32]     // 16-byte Folded Reload
	ldp	x20, x19, [sp, #16]     // 16-byte Folded Reload
.Ltmp445:
	ldp	x22, x21, [sp], #48     // 16-byte Folded Reload
.Ltmp446:
	ret
.Ltmp447:
.LBB7_13:
	//DEBUG_VALUE: ufs_sbitmap_fg_starved:data <- $x20
	//DEBUG_VALUE: ufs_sbitmap_queue_get:data <- $x20
	//DEBUG_VALUE: ufs_sbitmap_queue_get:bt <- $x19
	//DEBUG_VALUE: ufs_try_get_tag:data <- $x20
	//DEBUG_VALUE: ufs_try_get_tag:bt <- $x19
	//DEBUG_VALUE: ufs_try_get_tag:hctx <- $x21
	.loc	130 0 1 is_stmt 0       // kernel/block/mas_blk_mq_tag.c:0:1
	mov	w0, #-1
	b	.LBB7_12
.Lfunc_end7:
	.size	ufs_try_get_tag, .Lfunc_end7-ufs_try_get_tag
	.cfi_endproc
                                        // -- End function
	.type	.L.str,@object          // @.str
	.section	.rodata.str1.1,"aMS",@progbits,1
.L.str:
	.asciz	"\0013[BLK-IO]Failed to init tagset bitmaps!\n"
	.size	.L.str, 42

	.type	.L.str.1,@object        // @.str.1
.L.str.1:
	.asciz	"\0013[BLK-IO]depth = %d, reserved = %d, high prio = %d \r\n"
	.size	.L.str.1, 55

	.type	.L.str.2,@object        // @.str.2
.L.str.2:
	.asciz	"\0013[BLK-IO]%s: error nomem\n"
	.size	.L.str.2, 27

	.type	.L__func__.ufs_tagset_init_bitmap_tags,@object // @__func__.ufs_tagset_init_bitmap_tags
.L__func__.ufs_tagset_init_bitmap_tags:
	.asciz	"ufs_tagset_init_bitmap_tags"
	.size	.L__func__.ufs_tagset_init_bitmap_tags, 28
