	.text
	.file	"pagecache_manage.c"
	.file	1 "/mnt/disk/jenkins/ci/workspace/chipset_pipeline_release/opensource/component_code/vendor/huawei/extra/build/build_script/kirin_kernel_release/kernel/mm/pagecache_manage.c"
	.file	2 "/mnt/disk/jenkins/ci/workspace/chipset_pipeline_release/opensource/component_code/vendor/huawei/extra/build/build_script/kirin_kernel_release/kernel/include/linux/init.h"
	.file	3 "/mnt/disk/jenkins/ci/workspace/chipset_pipeline_release/opensource/component_code/vendor/huawei/extra/build/build_script/kirin_kernel_release/kernel/include/linux/blkdev.h"
	.file	4 "/mnt/disk/jenkins/ci/workspace/chipset_pipeline_release/opensource/component_code/vendor/huawei/extra/build/build_script/kirin_kernel_release/kernel/include/linux/types.h"
	.file	5 "/mnt/disk/jenkins/ci/workspace/chipset_pipeline_release/opensource/component_code/vendor/huawei/extra/build/build_script/kirin_kernel_release/kernel/include/linux/llist.h"
	.file	6 "/mnt/disk/jenkins/ci/workspace/chipset_pipeline_release/opensource/component_code/vendor/huawei/extra/build/build_script/kirin_kernel_release/kernel/include/linux/smp.h"
	.file	7 "/mnt/disk/jenkins/ci/workspace/chipset_pipeline_release/opensource/component_code/vendor/huawei/extra/build/build_script/kirin_kernel_release/kernel/include/asm-generic/int-ll64.h"
	.file	8 "/mnt/disk/jenkins/ci/workspace/chipset_pipeline_release/opensource/component_code/vendor/huawei/extra/build/build_script/kirin_kernel_release/kernel/include/uapi/asm-generic/int-ll64.h"
	.file	9 "/mnt/disk/jenkins/ci/workspace/chipset_pipeline_release/opensource/component_code/vendor/huawei/extra/build/build_script/kirin_kernel_release/kernel/include/linux/blk_types.h"
	.file	10 "/mnt/disk/jenkins/ci/workspace/chipset_pipeline_release/opensource/component_code/vendor/huawei/extra/build/build_script/kirin_kernel_release/kernel/include/linux/genhd.h"
	.file	11 "/mnt/disk/jenkins/ci/workspace/chipset_pipeline_release/opensource/component_code/vendor/huawei/extra/build/build_script/kirin_kernel_release/kernel/include/linux/seqlock.h"
	.file	12 "/mnt/disk/jenkins/ci/workspace/chipset_pipeline_release/opensource/component_code/vendor/huawei/extra/build/build_script/kirin_kernel_release/kernel/include/linux/device.h"
	.file	13 "/mnt/disk/jenkins/ci/workspace/chipset_pipeline_release/opensource/component_code/vendor/huawei/extra/build/build_script/kirin_kernel_release/kernel/include/linux/kobject.h"
	.file	14 "/mnt/disk/jenkins/ci/workspace/chipset_pipeline_release/opensource/component_code/vendor/huawei/extra/build/build_script/kirin_kernel_release/kernel/arch/arm64/include/asm/spinlock_types.h"
	.file	15 "/mnt/disk/jenkins/ci/workspace/chipset_pipeline_release/opensource/component_code/vendor/huawei/extra/build/build_script/kirin_kernel_release/kernel/include/linux/spinlock_types.h"
	.file	16 "/mnt/disk/jenkins/ci/workspace/chipset_pipeline_release/opensource/component_code/vendor/huawei/extra/build/build_script/kirin_kernel_release/kernel/include/uapi/asm-generic/posix_types.h"
	.file	17 "/mnt/disk/jenkins/ci/workspace/chipset_pipeline_release/opensource/component_code/vendor/huawei/extra/build/build_script/kirin_kernel_release/kernel/include/linux/sysfs.h"
	.file	18 "/mnt/disk/jenkins/ci/workspace/chipset_pipeline_release/opensource/component_code/vendor/huawei/extra/build/build_script/kirin_kernel_release/kernel/include/linux/kobject_ns.h"
	.file	19 "/mnt/disk/jenkins/ci/workspace/chipset_pipeline_release/opensource/component_code/vendor/huawei/extra/build/build_script/kirin_kernel_release/kernel/include/linux/kernfs.h"
	.file	20 "/mnt/disk/jenkins/ci/workspace/chipset_pipeline_release/opensource/component_code/vendor/huawei/extra/build/build_script/kirin_kernel_release/kernel/include/linux/rbtree.h"
	.file	21 "/mnt/disk/jenkins/ci/workspace/chipset_pipeline_release/opensource/component_code/vendor/huawei/extra/build/build_script/kirin_kernel_release/kernel/include/linux/radix-tree.h"
	.file	22 "/mnt/disk/jenkins/ci/workspace/chipset_pipeline_release/opensource/component_code/vendor/huawei/extra/build/build_script/kirin_kernel_release/kernel/include/linux/idr.h"
	.file	23 "/mnt/disk/jenkins/ci/workspace/chipset_pipeline_release/opensource/component_code/vendor/huawei/extra/build/build_script/kirin_kernel_release/kernel/include/linux/seq_file.h"
	.file	24 "/mnt/disk/jenkins/ci/workspace/chipset_pipeline_release/opensource/component_code/vendor/huawei/extra/build/build_script/kirin_kernel_release/kernel/include/asm-generic/atomic-long.h"
	.file	25 "/mnt/disk/jenkins/ci/workspace/chipset_pipeline_release/opensource/component_code/vendor/huawei/extra/build/build_script/kirin_kernel_release/kernel/include/linux/mutex.h"
	.file	26 "/mnt/disk/jenkins/ci/workspace/chipset_pipeline_release/opensource/component_code/vendor/huawei/extra/build/build_script/kirin_kernel_release/kernel/include/linux/osq_lock.h"
	.file	27 "/mnt/disk/jenkins/ci/workspace/chipset_pipeline_release/opensource/component_code/vendor/huawei/extra/build/build_script/kirin_kernel_release/kernel/arch/arm64/include/asm/thread_info.h"
	.file	28 "/mnt/disk/jenkins/ci/workspace/chipset_pipeline_release/opensource/component_code/vendor/huawei/extra/build/build_script/kirin_kernel_release/kernel/include/linux/sched.h"
	.file	29 "/mnt/disk/jenkins/ci/workspace/chipset_pipeline_release/opensource/component_code/vendor/huawei/extra/build/build_script/kirin_kernel_release/kernel/include/linux/cpumask.h"
	.file	30 "/mnt/disk/jenkins/ci/workspace/chipset_pipeline_release/opensource/component_code/vendor/huawei/extra/build/build_script/kirin_kernel_release/kernel/include/linux/timerqueue.h"
	.file	31 "/mnt/disk/jenkins/ci/workspace/chipset_pipeline_release/opensource/component_code/vendor/huawei/extra/build/build_script/kirin_kernel_release/kernel/include/linux/ktime.h"
	.file	32 "/mnt/disk/jenkins/ci/workspace/chipset_pipeline_release/opensource/component_code/vendor/huawei/extra/build/build_script/kirin_kernel_release/kernel/include/linux/hrtimer.h"
	.file	33 "/mnt/disk/jenkins/ci/workspace/chipset_pipeline_release/opensource/component_code/vendor/huawei/extra/build/build_script/kirin_kernel_release/kernel/include/linux/plist.h"
	.file	34 "/mnt/disk/jenkins/ci/workspace/chipset_pipeline_release/opensource/component_code/vendor/huawei/extra/build/build_script/kirin_kernel_release/kernel/include/linux/mm_types.h"
	.file	35 "/mnt/disk/jenkins/ci/workspace/chipset_pipeline_release/opensource/component_code/vendor/huawei/extra/build/build_script/kirin_kernel_release/kernel/arch/arm64/include/asm/pgtable-types.h"
	.file	36 "/mnt/disk/jenkins/ci/workspace/chipset_pipeline_release/opensource/component_code/vendor/huawei/extra/build/build_script/kirin_kernel_release/kernel/include/linux/rmap.h"
	.file	37 "/mnt/disk/jenkins/ci/workspace/chipset_pipeline_release/opensource/component_code/vendor/huawei/extra/build/build_script/kirin_kernel_release/kernel/include/linux/rwsem.h"
	.file	38 "/mnt/disk/jenkins/ci/workspace/chipset_pipeline_release/opensource/component_code/vendor/huawei/extra/build/build_script/kirin_kernel_release/kernel/include/linux/mm.h"
	.file	39 "/mnt/disk/jenkins/ci/workspace/chipset_pipeline_release/opensource/component_code/vendor/huawei/extra/build/build_script/kirin_kernel_release/kernel/include/asm-generic/pgtable-nop4d-hack.h"
	.file	40 "/mnt/disk/jenkins/ci/workspace/chipset_pipeline_release/opensource/component_code/vendor/huawei/extra/build/build_script/kirin_kernel_release/kernel/include/linux/fs.h"
	.file	41 "/mnt/disk/jenkins/ci/workspace/chipset_pipeline_release/opensource/component_code/vendor/huawei/extra/build/build_script/kirin_kernel_release/kernel/include/linux/uidgid.h"
	.file	42 "/mnt/disk/jenkins/ci/workspace/chipset_pipeline_release/opensource/component_code/vendor/huawei/extra/build/build_script/kirin_kernel_release/kernel/include/linux/dcache.h"
	.file	43 "/mnt/disk/jenkins/ci/workspace/chipset_pipeline_release/opensource/component_code/vendor/huawei/extra/build/build_script/kirin_kernel_release/kernel/include/linux/list_bl.h"
	.file	44 "/mnt/disk/jenkins/ci/workspace/chipset_pipeline_release/opensource/component_code/vendor/huawei/extra/build/build_script/kirin_kernel_release/kernel/include/linux/lockref.h"
	.file	45 "/mnt/disk/jenkins/ci/workspace/chipset_pipeline_release/opensource/component_code/vendor/huawei/extra/build/build_script/kirin_kernel_release/kernel/include/linux/mount.h"
	.file	46 "/mnt/disk/jenkins/ci/workspace/chipset_pipeline_release/opensource/component_code/vendor/huawei/extra/build/build_script/kirin_kernel_release/kernel/include/linux/module.h"
	.file	47 "/mnt/disk/jenkins/ci/workspace/chipset_pipeline_release/opensource/component_code/vendor/huawei/extra/build/build_script/kirin_kernel_release/kernel/include/linux/completion.h"
	.file	48 "/mnt/disk/jenkins/ci/workspace/chipset_pipeline_release/opensource/component_code/vendor/huawei/extra/build/build_script/kirin_kernel_release/kernel/include/linux/wait.h"
	.file	49 "/mnt/disk/jenkins/ci/workspace/chipset_pipeline_release/opensource/component_code/vendor/huawei/extra/build/build_script/kirin_kernel_release/kernel/include/linux/export.h"
	.file	50 "/mnt/disk/jenkins/ci/workspace/chipset_pipeline_release/opensource/component_code/vendor/huawei/extra/build/build_script/kirin_kernel_release/kernel/include/linux/cfi.h"
	.file	51 "/mnt/disk/jenkins/ci/workspace/chipset_pipeline_release/opensource/component_code/vendor/huawei/extra/build/build_script/kirin_kernel_release/kernel/include/linux/moduleparam.h"
	.file	52 "/mnt/disk/jenkins/ci/workspace/chipset_pipeline_release/opensource/component_code/vendor/huawei/extra/build/build_script/kirin_kernel_release/kernel/arch/arm64/include/asm/extable.h"
	.file	53 "/mnt/disk/jenkins/ci/workspace/chipset_pipeline_release/opensource/component_code/vendor/huawei/extra/build/build_script/kirin_kernel_release/kernel/include/linux/rbtree_latch.h"
	.file	54 "/mnt/disk/jenkins/ci/workspace/chipset_pipeline_release/opensource/component_code/vendor/huawei/extra/build/build_script/kirin_kernel_release/kernel/include/uapi/linux/elf.h"
	.file	55 "/mnt/disk/jenkins/ci/workspace/chipset_pipeline_release/opensource/component_code/vendor/huawei/extra/build/build_script/kirin_kernel_release/kernel/arch/arm64/include/asm/module.h"
	.file	56 "/mnt/disk/jenkins/ci/workspace/chipset_pipeline_release/opensource/component_code/vendor/huawei/extra/build/build_script/kirin_kernel_release/kernel/include/uapi/linux/types.h"
	.file	57 "/mnt/disk/jenkins/ci/workspace/chipset_pipeline_release/opensource/component_code/vendor/huawei/extra/build/build_script/kirin_kernel_release/kernel/include/asm-generic/bug.h"
	.file	58 "/mnt/disk/jenkins/ci/workspace/chipset_pipeline_release/opensource/component_code/vendor/huawei/extra/build/build_script/kirin_kernel_release/kernel/include/linux/tracepoint-defs.h"
	.file	59 "/mnt/disk/jenkins/ci/workspace/chipset_pipeline_release/opensource/component_code/vendor/huawei/extra/build/build_script/kirin_kernel_release/kernel/include/linux/jump_label.h"
	.file	60 "/mnt/disk/jenkins/ci/workspace/chipset_pipeline_release/opensource/component_code/vendor/huawei/extra/build/build_script/kirin_kernel_release/kernel/include/linux/lockdep.h"
	.file	61 "/mnt/disk/jenkins/ci/workspace/chipset_pipeline_release/opensource/component_code/vendor/huawei/extra/build/build_script/kirin_kernel_release/kernel/include/linux/writeback.h"
	.file	62 "/mnt/disk/jenkins/ci/workspace/chipset_pipeline_release/opensource/component_code/vendor/huawei/extra/build/build_script/kirin_kernel_release/kernel/include/linux/backing-dev-defs.h"
	.file	63 "/mnt/disk/jenkins/ci/workspace/chipset_pipeline_release/opensource/component_code/vendor/huawei/extra/build/build_script/kirin_kernel_release/kernel/include/linux/refcount.h"
	.file	64 "/mnt/disk/jenkins/ci/workspace/chipset_pipeline_release/opensource/component_code/vendor/huawei/extra/build/build_script/kirin_kernel_release/kernel/include/linux/kref.h"
	.file	65 "/mnt/disk/jenkins/ci/workspace/chipset_pipeline_release/opensource/component_code/vendor/huawei/extra/build/build_script/kirin_kernel_release/kernel/include/linux/timer.h"
	.file	66 "/mnt/disk/jenkins/ci/workspace/chipset_pipeline_release/opensource/component_code/vendor/huawei/extra/build/build_script/kirin_kernel_release/kernel/include/linux/percpu_counter.h"
	.file	67 "/mnt/disk/jenkins/ci/workspace/chipset_pipeline_release/opensource/component_code/vendor/huawei/extra/build/build_script/kirin_kernel_release/kernel/include/linux/flex_proportions.h"
	.file	68 "/mnt/disk/jenkins/ci/workspace/chipset_pipeline_release/opensource/component_code/vendor/huawei/extra/build/build_script/kirin_kernel_release/kernel/include/linux/workqueue.h"
	.file	69 "/mnt/disk/jenkins/ci/workspace/chipset_pipeline_release/opensource/component_code/vendor/huawei/extra/build/build_script/kirin_kernel_release/kernel/include/linux/percpu-refcount.h"
	.file	70 "/mnt/disk/jenkins/ci/workspace/chipset_pipeline_release/opensource/component_code/vendor/huawei/extra/build/build_script/kirin_kernel_release/kernel/include/linux/cgroup-defs.h"
	.file	71 "/mnt/disk/jenkins/ci/workspace/chipset_pipeline_release/opensource/component_code/vendor/huawei/extra/build/build_script/kirin_kernel_release/kernel/include/linux/psi_types.h"
	.file	72 "/mnt/disk/jenkins/ci/workspace/chipset_pipeline_release/opensource/component_code/vendor/huawei/extra/build/build_script/kirin_kernel_release/kernel/include/linux/kthread.h"
	.file	73 "/mnt/disk/jenkins/ci/workspace/chipset_pipeline_release/opensource/component_code/vendor/huawei/extra/build/build_script/kirin_kernel_release/kernel/include/linux/bpf-cgroup.h"
	.file	74 "/mnt/disk/jenkins/ci/workspace/chipset_pipeline_release/opensource/component_code/vendor/huawei/extra/build/build_script/kirin_kernel_release/kernel/include/linux/path.h"
	.file	75 "/mnt/disk/jenkins/ci/workspace/chipset_pipeline_release/opensource/component_code/vendor/huawei/extra/build/build_script/kirin_kernel_release/kernel/include/linux/nfs_fs_i.h"
	.file	76 "/mnt/disk/jenkins/ci/workspace/chipset_pipeline_release/opensource/component_code/vendor/huawei/extra/build/build_script/kirin_kernel_release/kernel/include/linux/rwlock_types.h"
	.file	77 "/mnt/disk/jenkins/ci/workspace/chipset_pipeline_release/opensource/component_code/vendor/huawei/extra/build/build_script/kirin_kernel_release/kernel/include/linux/pid.h"
	.file	78 "/mnt/disk/jenkins/ci/workspace/chipset_pipeline_release/opensource/component_code/vendor/huawei/extra/build/build_script/kirin_kernel_release/kernel/include/linux/cred.h"
	.file	79 "/mnt/disk/jenkins/ci/workspace/chipset_pipeline_release/opensource/component_code/vendor/huawei/extra/build/build_script/kirin_kernel_release/kernel/include/linux/capability.h"
	.file	80 "/mnt/disk/jenkins/ci/workspace/chipset_pipeline_release/opensource/component_code/vendor/huawei/extra/build/build_script/kirin_kernel_release/kernel/include/linux/key.h"
	.file	81 "/mnt/disk/jenkins/ci/workspace/chipset_pipeline_release/opensource/component_code/vendor/huawei/extra/build/build_script/kirin_kernel_release/kernel/include/linux/assoc_array.h"
	.file	82 "/mnt/disk/jenkins/ci/workspace/chipset_pipeline_release/opensource/component_code/vendor/huawei/extra/build/build_script/kirin_kernel_release/kernel/include/linux/sched/user.h"
	.file	83 "/mnt/disk/jenkins/ci/workspace/chipset_pipeline_release/opensource/component_code/vendor/huawei/extra/build/build_script/kirin_kernel_release/kernel/include/linux/user_namespace.h"
	.file	84 "/mnt/disk/jenkins/ci/workspace/chipset_pipeline_release/opensource/component_code/vendor/huawei/extra/build/build_script/kirin_kernel_release/kernel/include/linux/ns_common.h"
	.file	85 "/mnt/disk/jenkins/ci/workspace/chipset_pipeline_release/opensource/component_code/vendor/huawei/extra/build/build_script/kirin_kernel_release/kernel/include/linux/sysctl.h"
	.file	86 "/mnt/disk/jenkins/ci/workspace/chipset_pipeline_release/opensource/component_code/vendor/huawei/extra/build/build_script/kirin_kernel_release/kernel/include/linux/errseq.h"
	.file	87 "/mnt/disk/jenkins/ci/workspace/chipset_pipeline_release/opensource/component_code/vendor/huawei/extra/build/build_script/kirin_kernel_release/kernel/include/linux/statfs.h"
	.file	88 "/mnt/disk/jenkins/ci/workspace/chipset_pipeline_release/opensource/component_code/vendor/huawei/extra/build/build_script/kirin_kernel_release/kernel/include/linux/quota.h"
	.file	89 "/mnt/disk/jenkins/ci/workspace/chipset_pipeline_release/opensource/component_code/vendor/huawei/extra/build/build_script/kirin_kernel_release/kernel/include/linux/projid.h"
	.file	90 "/mnt/disk/jenkins/ci/workspace/chipset_pipeline_release/opensource/component_code/vendor/huawei/extra/build/build_script/kirin_kernel_release/kernel/include/linux/time64.h"
	.file	91 "/mnt/disk/jenkins/ci/workspace/chipset_pipeline_release/opensource/component_code/vendor/huawei/extra/build/build_script/kirin_kernel_release/kernel/include/linux/shrinker.h"
	.file	92 "/mnt/disk/jenkins/ci/workspace/chipset_pipeline_release/opensource/component_code/vendor/huawei/extra/build/build_script/kirin_kernel_release/kernel/include/linux/memcontrol.h"
	.file	93 "/mnt/disk/jenkins/ci/workspace/chipset_pipeline_release/opensource/component_code/vendor/huawei/extra/build/build_script/kirin_kernel_release/kernel/include/linux/page_counter.h"
	.file	94 "/mnt/disk/jenkins/ci/workspace/chipset_pipeline_release/opensource/component_code/vendor/huawei/extra/build/build_script/kirin_kernel_release/kernel/include/linux/vmpressure.h"
	.file	95 "/mnt/disk/jenkins/ci/workspace/chipset_pipeline_release/opensource/component_code/vendor/huawei/extra/build/build_script/kirin_kernel_release/kernel/include/linux/memcg_policy.h"
	.file	96 "/mnt/disk/jenkins/ci/workspace/chipset_pipeline_release/opensource/component_code/vendor/huawei/extra/build/build_script/kirin_kernel_release/kernel/include/linux/mmzone.h"
	.file	97 "/mnt/disk/jenkins/ci/workspace/chipset_pipeline_release/opensource/component_code/vendor/huawei/extra/build/build_script/kirin_kernel_release/kernel/include/linux/rcu_sync.h"
	.file	98 "/mnt/disk/jenkins/ci/workspace/chipset_pipeline_release/opensource/component_code/vendor/huawei/extra/build/build_script/kirin_kernel_release/kernel/include/linux/percpu-rwsem.h"
	.file	99 "/mnt/disk/jenkins/ci/workspace/chipset_pipeline_release/opensource/component_code/vendor/huawei/extra/build/build_script/kirin_kernel_release/kernel/include/linux/rcuwait.h"
	.file	100 "/mnt/disk/jenkins/ci/workspace/chipset_pipeline_release/opensource/component_code/vendor/huawei/extra/build/build_script/kirin_kernel_release/kernel/include/linux/uuid.h"
	.file	101 "/mnt/disk/jenkins/ci/workspace/chipset_pipeline_release/opensource/component_code/vendor/huawei/extra/build/build_script/kirin_kernel_release/kernel/include/linux/list_lru.h"
	.file	102 "/mnt/disk/jenkins/ci/workspace/chipset_pipeline_release/opensource/component_code/vendor/huawei/extra/build/build_script/kirin_kernel_release/kernel/include/linux/delayed_call.h"
	.file	103 "/mnt/disk/jenkins/ci/workspace/chipset_pipeline_release/opensource/component_code/vendor/huawei/extra/build/build_script/kirin_kernel_release/kernel/include/uapi/linux/time.h"
	.file	104 "/mnt/disk/jenkins/ci/workspace/chipset_pipeline_release/opensource/component_code/vendor/huawei/extra/build/build_script/kirin_kernel_release/kernel/include/linux/stat.h"
	.file	105 "/mnt/disk/jenkins/ci/workspace/chipset_pipeline_release/opensource/component_code/vendor/huawei/extra/build/build_script/kirin_kernel_release/kernel/include/uapi/linux/fiemap.h"
	.file	106 "/mnt/disk/jenkins/ci/workspace/chipset_pipeline_release/opensource/component_code/vendor/huawei/extra/build/build_script/kirin_kernel_release/kernel/include/linux/migrate_mode.h"
	.file	107 "/mnt/disk/jenkins/ci/workspace/chipset_pipeline_release/opensource/component_code/vendor/huawei/extra/build/build_script/kirin_kernel_release/kernel/include/linux/swap.h"
	.file	108 "/mnt/disk/jenkins/ci/workspace/chipset_pipeline_release/opensource/component_code/vendor/huawei/extra/build/build_script/kirin_kernel_release/kernel/include/linux/memremap.h"
	.file	109 "/mnt/disk/jenkins/ci/workspace/chipset_pipeline_release/opensource/component_code/vendor/huawei/extra/build/build_script/kirin_kernel_release/kernel/include/linux/ioport.h"
	.file	110 "/mnt/disk/jenkins/ci/workspace/chipset_pipeline_release/opensource/component_code/vendor/huawei/extra/build/build_script/kirin_kernel_release/kernel/arch/arm64/include/asm/page.h"
	.file	111 "/mnt/disk/jenkins/ci/workspace/chipset_pipeline_release/opensource/component_code/vendor/huawei/extra/build/build_script/kirin_kernel_release/kernel/include/linux/mm_types_task.h"
	.file	112 "/mnt/disk/jenkins/ci/workspace/chipset_pipeline_release/opensource/component_code/vendor/huawei/extra/build/build_script/kirin_kernel_release/kernel/arch/arm64/include/asm/mmu.h"
	.file	113 "/mnt/disk/jenkins/ci/workspace/chipset_pipeline_release/opensource/component_code/vendor/huawei/extra/build/build_script/kirin_kernel_release/kernel/include/linux/blk-cgroup.h"
	.file	114 "/mnt/disk/jenkins/ci/workspace/chipset_pipeline_release/opensource/component_code/vendor/huawei/extra/build/build_script/kirin_kernel_release/kernel/include/linux/uprobes.h"
	.file	115 "/mnt/disk/jenkins/ci/workspace/chipset_pipeline_release/opensource/component_code/vendor/huawei/extra/build/build_script/kirin_kernel_release/kernel/include/linux/xreclaimer_types.h"
	.file	116 "/mnt/disk/jenkins/ci/workspace/chipset_pipeline_release/opensource/component_code/vendor/huawei/extra/build/build_script/kirin_kernel_release/kernel/include/linux/restart_block.h"
	.file	117 "/mnt/disk/jenkins/ci/workspace/chipset_pipeline_release/opensource/component_code/vendor/huawei/extra/build/build_script/kirin_kernel_release/kernel/arch/arm64/include/asm/compat.h"
	.file	118 "/mnt/disk/jenkins/ci/workspace/chipset_pipeline_release/opensource/component_code/vendor/huawei/extra/build/build_script/kirin_kernel_release/kernel/include/linux/nsproxy.h"
	.file	119 "/mnt/disk/jenkins/ci/workspace/chipset_pipeline_release/opensource/component_code/vendor/huawei/extra/build/build_script/kirin_kernel_release/kernel/include/linux/cgroup.h"
	.file	120 "/mnt/disk/jenkins/ci/workspace/chipset_pipeline_release/opensource/component_code/vendor/huawei/extra/build/build_script/kirin_kernel_release/kernel/include/linux/sched/signal.h"
	.file	121 "/mnt/disk/jenkins/ci/workspace/chipset_pipeline_release/opensource/component_code/vendor/huawei/extra/build/build_script/kirin_kernel_release/kernel/include/linux/signal_types.h"
	.file	122 "/mnt/disk/jenkins/ci/workspace/chipset_pipeline_release/opensource/component_code/vendor/huawei/extra/build/build_script/kirin_kernel_release/kernel/include/uapi/asm-generic/signal.h"
	.file	123 "/mnt/disk/jenkins/ci/workspace/chipset_pipeline_release/opensource/component_code/vendor/huawei/extra/build/build_script/kirin_kernel_release/kernel/include/linux/task_io_accounting.h"
	.file	124 "/mnt/disk/jenkins/ci/workspace/chipset_pipeline_release/opensource/component_code/vendor/huawei/extra/build/build_script/kirin_kernel_release/kernel/include/uapi/linux/resource.h"
	.file	125 "/mnt/disk/jenkins/ci/workspace/chipset_pipeline_release/opensource/component_code/vendor/huawei/extra/build/build_script/kirin_kernel_release/kernel/include/uapi/linux/taskstats.h"
	.file	126 "/mnt/disk/jenkins/ci/workspace/chipset_pipeline_release/opensource/component_code/vendor/huawei/extra/build/build_script/kirin_kernel_release/kernel/include/uapi/asm-generic/signal-defs.h"
	.file	127 "/mnt/disk/jenkins/ci/workspace/chipset_pipeline_release/opensource/component_code/vendor/huawei/extra/build/build_script/kirin_kernel_release/kernel/include/linux/seccomp.h"
	.file	128 "/mnt/disk/jenkins/ci/workspace/chipset_pipeline_release/opensource/component_code/vendor/huawei/extra/build/build_script/kirin_kernel_release/kernel/include/linux/bio.h"
	.file	129 "/mnt/disk/jenkins/ci/workspace/chipset_pipeline_release/opensource/component_code/vendor/huawei/extra/build/build_script/kirin_kernel_release/kernel/include/linux/iocontext.h"
	.file	130 "/mnt/disk/jenkins/ci/workspace/chipset_pipeline_release/opensource/component_code/vendor/huawei/extra/build/build_script/kirin_kernel_release/kernel/include/uapi/asm-generic/siginfo.h"
	.file	131 "/mnt/disk/jenkins/ci/workspace/chipset_pipeline_release/opensource/component_code/vendor/huawei/extra/build/build_script/kirin_kernel_release/kernel/include/linux/nodemask.h"
	.file	132 "/mnt/disk/jenkins/ci/workspace/chipset_pipeline_release/opensource/component_code/vendor/huawei/extra/build/build_script/kirin_kernel_release/kernel/arch/arm64/include/asm/processor.h"
	.file	133 "/mnt/disk/jenkins/ci/workspace/chipset_pipeline_release/opensource/component_code/vendor/huawei/extra/build/build_script/kirin_kernel_release/kernel/mm/pagecache_manage.c"
	.file	134 "/mnt/disk/jenkins/ci/workspace/chipset_pipeline_release/opensource/component_code/vendor/huawei/extra/build/build_script/kirin_kernel_release/kernel/arch/arm64/include/uapi/asm/ptrace.h"
	.file	135 "/mnt/disk/jenkins/ci/workspace/chipset_pipeline_release/opensource/component_code/vendor/huawei/extra/build/build_script/kirin_kernel_release/kernel/arch/arm64/include/asm/fpsimd.h"
	.file	136 "/mnt/disk/jenkins/ci/workspace/chipset_pipeline_release/opensource/component_code/vendor/huawei/extra/build/build_script/kirin_kernel_release/kernel/include/linux/pm.h"
	.file	137 "/mnt/disk/jenkins/ci/workspace/chipset_pipeline_release/opensource/component_code/vendor/huawei/extra/build/build_script/kirin_kernel_release/kernel/include/linux/pm_wakeup.h"
	.file	138 "/mnt/disk/jenkins/ci/workspace/chipset_pipeline_release/opensource/component_code/vendor/huawei/extra/build/build_script/kirin_kernel_release/kernel/include/linux/pinctrl/devinfo.h"
	.file	139 "/mnt/disk/jenkins/ci/workspace/chipset_pipeline_release/opensource/component_code/vendor/huawei/extra/build/build_script/kirin_kernel_release/kernel/arch/arm64/include/asm/device.h"
	.file	140 "/mnt/disk/jenkins/ci/workspace/chipset_pipeline_release/opensource/component_code/vendor/huawei/extra/build/build_script/kirin_kernel_release/kernel/include/linux/klist.h"
	.file	141 "/mnt/disk/jenkins/ci/workspace/chipset_pipeline_release/opensource/component_code/vendor/huawei/extra/build/build_script/kirin_kernel_release/kernel/include/linux/bvec.h"
	.file	142 "/mnt/disk/jenkins/ci/workspace/chipset_pipeline_release/opensource/component_code/vendor/huawei/extra/build/build_script/kirin_kernel_release/kernel/include/linux/mempool.h"
	.file	143 "/mnt/disk/jenkins/ci/workspace/chipset_pipeline_release/opensource/component_code/vendor/huawei/extra/build/build_script/kirin_kernel_release/kernel/include/linux/elevator.h"
	.file	144 "/mnt/disk/jenkins/ci/workspace/chipset_pipeline_release/opensource/component_code/vendor/huawei/extra/build/build_script/kirin_kernel_release/kernel/include/linux/bsg.h"
	.file	145 "/mnt/disk/jenkins/ci/workspace/chipset_pipeline_release/opensource/component_code/vendor/huawei/extra/build/build_script/kirin_kernel_release/kernel/include/linux/notifier.h"
	.file	146 "/mnt/disk/jenkins/ci/workspace/chipset_pipeline_release/opensource/component_code/vendor/huawei/extra/build/build_script/kirin_kernel_release/kernel/include/linux/semaphore.h"
	.file	147 "/mnt/disk/jenkins/ci/workspace/chipset_pipeline_release/opensource/component_code/vendor/huawei/extra/build/build_script/kirin_kernel_release/kernel/include/linux/bootdevice.h"
	.file	148 "/mnt/disk/jenkins/ci/workspace/chipset_pipeline_release/opensource/component_code/vendor/huawei/extra/build/build_script/kirin_kernel_release/kernel/include/linux/stddef.h"
	.file	149 "/mnt/disk/jenkins/ci/workspace/chipset_pipeline_release/opensource/component_code/vendor/huawei/extra/build/build_script/kirin_kernel_release/kernel/include/linux/page-flags.h"
	.file	150 "/mnt/disk/jenkins/ci/workspace/chipset_pipeline_release/opensource/component_code/vendor/huawei/extra/build/build_script/kirin_kernel_release/kernel/include/linux/slab.h"
	.section	.text.pch_lowmem_check,"ax",@progbits
	.hidden	pch_lowmem_check        // -- Begin function pch_lowmem_check
	.globl	pch_lowmem_check
	.p2align	2
	.type	pch_lowmem_check,@function
pch_lowmem_check:                       // @pch_lowmem_check
.Lfunc_begin0:
	.loc	1 260 0                 // kernel/mm/pagecache_manage.c:260:0
	.cfi_sections .debug_frame
	.cfi_startproc
// %bb.0:
	stp	x20, x19, [sp, #-32]!   // 16-byte Folded Spill
	stp	x29, x30, [sp, #16]     // 16-byte Folded Spill
	add	x29, sp, #16            // =16
	.cfi_def_cfa w29, 16
	.cfi_offset w30, -8
	.cfi_offset w29, -16
	.cfi_offset w19, -24
	.cfi_offset w20, -32
.Ltmp0:
	//DEBUG_VALUE: pch_lowmem_check:zone <- 0
	//DEBUG_VALUE: pch_lowmem_check:ret <- 0
	.loc	1 265 10 prologue_end   // kernel/mm/pagecache_manage.c:265:10
	bl	first_online_pgdat
	.loc	1 266 6                 // kernel/mm/pagecache_manage.c:266:6
	cbz	x0, .LBB0_2
// %bb.1:
	.loc	1 269 14                // kernel/mm/pagecache_manage.c:269:14
	ldr	x8, [x0, #16]
.Ltmp1:
	.loc	1 270 7                 // kernel/mm/pagecache_manage.c:270:7
	mov	w1, wzr
	mov	w3, wzr
	mov	w4, wzr
.Ltmp2:
	.loc	1 269 37                // kernel/mm/pagecache_manage.c:269:37
	add	x2, x8, #2              // =2
.Ltmp3:
	//DEBUG_VALUE: pch_lowmem_check:watermark <- $x2
	.loc	1 0 0 is_stmt 0         // kernel/mm/pagecache_manage.c:0:0
	mov	x19, x0
.Ltmp4:
	//DEBUG_VALUE: pch_lowmem_check:zone <- $x19
	.loc	1 270 7 is_stmt 1       // kernel/mm/pagecache_manage.c:270:7
	bl	zone_watermark_ok
.Ltmp5:
	.loc	1 273 14                // kernel/mm/pagecache_manage.c:273:14
	ldr	x2, [x19, #8]
.Ltmp6:
	//DEBUG_VALUE: pch_lowmem_check:watermark <- $x2
	.loc	1 270 6                 // kernel/mm/pagecache_manage.c:270:6
	mvn	w8, w0
.Ltmp7:
	.loc	1 274 7                 // kernel/mm/pagecache_manage.c:274:7
	mov	x0, x19
	mov	w1, wzr
	mov	w3, wzr
	mov	w4, wzr
.Ltmp8:
	.loc	1 270 6                 // kernel/mm/pagecache_manage.c:270:6
	and	w20, w8, #0x1
.Ltmp9:
	//DEBUG_VALUE: pch_lowmem_check:ret <- $w20
	.loc	1 274 7                 // kernel/mm/pagecache_manage.c:274:7
	bl	zone_watermark_ok
.Ltmp10:
	.loc	1 274 6 is_stmt 0       // kernel/mm/pagecache_manage.c:274:6
	tst	w0, #0x1
	orr	w8, wzr, #0x2
	csel	w0, w20, w8, ne
.Ltmp11:
.LBB0_2:
	.loc	1 278 1 is_stmt 1       // kernel/mm/pagecache_manage.c:278:1
	ldp	x29, x30, [sp, #16]     // 16-byte Folded Reload
	ldp	x20, x19, [sp], #32     // 16-byte Folded Reload
	ret
.Ltmp12:
.Lfunc_end0:
	.size	pch_lowmem_check, .Lfunc_end0-pch_lowmem_check
	.cfi_endproc
                                        // -- End function
	.section	.text.pch_lowmem_check2,"ax",@progbits
	.hidden	pch_lowmem_check2       // -- Begin function pch_lowmem_check2
	.globl	pch_lowmem_check2
	.p2align	2
	.type	pch_lowmem_check2,@function
pch_lowmem_check2:                      // @pch_lowmem_check2
.Lfunc_begin1:
	.loc	1 291 0                 // kernel/mm/pagecache_manage.c:291:0
	.cfi_startproc
// %bb.0:
	//DEBUG_VALUE: global_node_page_state:item <- 20
	//DEBUG_VALUE: __read_once_size:res <- undef
	//DEBUG_VALUE: __read_once_size:size <- 8
	stp	x20, x19, [sp, #-32]!   // 16-byte Folded Spill
	stp	x29, x30, [sp, #16]     // 16-byte Folded Spill
	add	x29, sp, #16            // =16
	.cfi_def_cfa w29, 16
	.cfi_offset w30, -8
	.cfi_offset w29, -16
	.cfi_offset w19, -24
	.cfi_offset w20, -32
.Ltmp13:
	//DEBUG_VALUE: pch_lowmem_check2:array_size <- 4
	//DEBUG_VALUE: pch_lowmem_check2:minfree <- 0
	.file	151 "/mnt/disk/jenkins/ci/workspace/chipset_pipeline_release/opensource/component_code/vendor/huawei/extra/build/build_script/kirin_kernel_release/kernel/include/linux/compiler.h"
	.loc	151 183 2 prologue_end  // kernel/include/linux/compiler.h:183:2
	adrp	x8, vm_node_stat+160
	add	x8, x8, :lo12:vm_node_stat+160
.Ltmp14:
	//DEBUG_VALUE: __read_once_size:p <- $x8
	ldr	x9, [x8]
.Ltmp15:
	//DEBUG_VALUE: global_node_page_state:x <- $x9
	.loc	151 183 2 is_stmt 0     // kernel/include/linux/compiler.h:183:2
	ldr	x8, [x8, #32]
.Ltmp16:
	//DEBUG_VALUE: __read_once_size:p <- [DW_OP_plus_uconst 32, DW_OP_stack_value] undef
	//DEBUG_VALUE: global_node_page_state:x <- $x8
	.file	152 "/mnt/disk/jenkins/ci/workspace/chipset_pipeline_release/opensource/component_code/vendor/huawei/extra/build/build_script/kirin_kernel_release/kernel/include/linux/vmstat.h"
	.loc	152 170 6 is_stmt 1     // kernel/include/linux/vmstat.h:170:6
	bic	x19, x9, x9, asr #63
.Ltmp17:
	//DEBUG_VALUE: __read_once_size:size <- 8
	//DEBUG_VALUE: __read_once_size:res <- undef
	//DEBUG_VALUE: global_node_page_state:item <- 24
	//DEBUG_VALUE: global_node_page_state:x <- $x19
	//DEBUG_VALUE: global_node_page_state:x <- $x9
	//DEBUG_VALUE: global_node_page_state:item <- 20
	.loc	152 170 6 is_stmt 0     // kernel/include/linux/vmstat.h:170:6
	bic	x20, x8, x8, asr #63
.Ltmp18:
	//DEBUG_VALUE: global_node_page_state:x <- $x20
	//DEBUG_VALUE: global_node_page_state:x <- $x8
	.loc	1 298 5 is_stmt 1       // kernel/mm/pagecache_manage.c:298:5
	bl	total_swapcache_pages
.Ltmp19:
	.loc	151 183 2               // kernel/include/linux/compiler.h:183:2
	adrp	x9, vm_zone_stat
	add	x9, x9, :lo12:vm_zone_stat
.Ltmp20:
	//DEBUG_VALUE: __read_once_size:p <- $x9
	.loc	1 301 5                 // kernel/mm/pagecache_manage.c:301:5
	adrp	x10, totalreserve_pages
.Ltmp21:
	.loc	151 183 2               // kernel/include/linux/compiler.h:183:2
	ldr	x11, [x9]
.Ltmp22:
	//DEBUG_VALUE: global_zone_page_state:x <- $x11
	//DEBUG_VALUE: __read_once_size:p <- $x9
	.loc	151 183 2 is_stmt 0     // kernel/include/linux/compiler.h:183:2
	ldr	x9, [x9, #96]
.Ltmp23:
	//DEBUG_VALUE: __read_once_size:p <- [DW_OP_plus_uconst 96, DW_OP_stack_value] undef
	//DEBUG_VALUE: global_zone_page_state:x <- $x9
	.loc	1 301 5 is_stmt 1       // kernel/mm/pagecache_manage.c:301:5
	ldr	x10, [x10, :lo12:totalreserve_pages]
	.loc	1 296 67                // kernel/mm/pagecache_manage.c:296:67
	sub	x8, x19, x0
.Ltmp24:
	.loc	152 160 6               // kernel/include/linux/vmstat.h:160:6
	bic	x11, x11, x11, asr #63
.Ltmp25:
	//DEBUG_VALUE: __read_once_size:size <- 8
	//DEBUG_VALUE: __read_once_size:res <- undef
	//DEBUG_VALUE: global_zone_page_state:item <- 12
	//DEBUG_VALUE: global_zone_page_state:x <- $x11
	//DEBUG_VALUE: global_zone_page_state:x <- $x11
	.loc	152 160 6 is_stmt 0     // kernel/include/linux/vmstat.h:160:6
	bic	x9, x9, x9, asr #63
.Ltmp26:
	//DEBUG_VALUE: global_zone_page_state:x <- $x9
	//DEBUG_VALUE: global_zone_page_state:x <- $x9
	.loc	1 299 67 is_stmt 1      // kernel/mm/pagecache_manage.c:299:67
	sub	x10, x11, x10
	.loc	1 300 47                // kernel/mm/pagecache_manage.c:300:47
	sub	x9, x10, x9
.Ltmp27:
	//DEBUG_VALUE: pch_lowmem_check2:i <- 0
	//DEBUG_VALUE: pch_lowmem_check2:other_free <- $x9
	//DEBUG_VALUE: pch_lowmem_check2:minfree <- 1536
	.loc	1 297 38                // kernel/mm/pagecache_manage.c:297:38
	sub	x8, x8, x20
.Ltmp28:
	//DEBUG_VALUE: __read_once_size:size <- 8
	//DEBUG_VALUE: __read_once_size:res <- undef
	//DEBUG_VALUE: global_zone_page_state:item <- 0
	//DEBUG_VALUE: pch_lowmem_check2:other_file <- $x8
	.loc	1 309 18                // kernel/mm/pagecache_manage.c:309:18
	cmp	x9, #1536               // =1536
	.loc	1 309 28 is_stmt 0      // kernel/mm/pagecache_manage.c:309:28
	orr	x9, x9, x8
.Ltmp29:
	.loc	1 309 18                // kernel/mm/pagecache_manage.c:309:18
	cset	w10, lo
	.loc	1 309 42                // kernel/mm/pagecache_manage.c:309:42
	cmp	x8, #1536               // =1536
	cset	w8, lo
.Ltmp30:
	.loc	1 309 28                // kernel/mm/pagecache_manage.c:309:28
	cmp	x9, #2048               // =2048
	and	w8, w10, w8
.Ltmp31:
	//DEBUG_VALUE: pch_lowmem_check2:i <- 1
	cset	w10, lo
	cmp	x9, #1, lsl #12         // =4096
.Ltmp32:
	.loc	1 314 1 is_stmt 1       // kernel/mm/pagecache_manage.c:314:1
	ldp	x29, x30, [sp, #16]     // 16-byte Folded Reload
.Ltmp33:
	.loc	1 309 28                // kernel/mm/pagecache_manage.c:309:28
	orr	w8, w8, w10
.Ltmp34:
	//DEBUG_VALUE: pch_lowmem_check2:i <- 2
	//DEBUG_VALUE: pch_lowmem_check2:minfree <- 2048
	cset	w10, lo
	cmp	x9, #4, lsl #12         // =16384
	orr	w8, w8, w10
.Ltmp35:
	//DEBUG_VALUE: pch_lowmem_check2:i <- 3
	//DEBUG_VALUE: pch_lowmem_check2:minfree <- 4096
	cset	w9, lo
	orr	w0, w8, w9
.Ltmp36:
	//DEBUG_VALUE: pch_lowmem_check2:i <- 4
	//DEBUG_VALUE: pch_lowmem_check2:minfree <- 16384
	.loc	1 314 1                 // kernel/mm/pagecache_manage.c:314:1
	ldp	x20, x19, [sp], #32     // 16-byte Folded Reload
	ret
.Ltmp37:
.Lfunc_end1:
	.size	pch_lowmem_check2, .Lfunc_end1-pch_lowmem_check2
	.cfi_endproc
                                        // -- End function
	.section	.text.pch_get_page,"ax",@progbits
	.hidden	pch_get_page            // -- Begin function pch_get_page
	.globl	pch_get_page
	.p2align	2
	.type	pch_get_page,@function
pch_get_page:                           // @pch_get_page
.Lfunc_begin2:
	.loc	1 344 0                 // kernel/mm/pagecache_manage.c:344:0
	.cfi_startproc
// %bb.0:
	//DEBUG_VALUE: pch_get_page:mapping <- $x0
	//DEBUG_VALUE: pch_get_page:mapping <- $x0
	//DEBUG_VALUE: pch_get_page:offset <- $x1
	//DEBUG_VALUE: pch_get_page:offset <- $x1
	//DEBUG_VALUE: pch_get_page:fgp_flags <- $w2
	//DEBUG_VALUE: pch_get_page:fgp_flags <- $w2
	//DEBUG_VALUE: pch_get_page:gfp_mask <- $w3
	//DEBUG_VALUE: pch_get_page:gfp_mask <- $w3
	//DEBUG_VALUE: pch_get_page:gfp_mask <- $w3
	//DEBUG_VALUE: pch_get_page:fgp_flags <- $w2
	//DEBUG_VALUE: pch_get_page:offset <- $x1
	//DEBUG_VALUE: pch_get_page:mapping <- $x0
	stp	x29, x30, [sp, #-16]!   // 16-byte Folded Spill
	mov	x29, sp
	.cfi_def_cfa w29, 16
	.cfi_offset w30, -8
	.cfi_offset w29, -16
.Ltmp38:
	.loc	1 372 9 prologue_end    // kernel/mm/pagecache_manage.c:372:9
	bl	pagecache_get_page
.Ltmp39:
	.loc	1 372 2 is_stmt 0       // kernel/mm/pagecache_manage.c:372:2
	ldp	x29, x30, [sp], #16     // 16-byte Folded Reload
	ret
.Ltmp40:
.Lfunc_end2:
	.size	pch_get_page, .Lfunc_end2-pch_get_page
	.cfi_endproc
                                        // -- End function
	.section	.text.pch_shrink_read_pages,"ax",@progbits
	.hidden	pch_shrink_read_pages   // -- Begin function pch_shrink_read_pages
	.globl	pch_shrink_read_pages
	.p2align	2
	.type	pch_shrink_read_pages,@function
pch_shrink_read_pages:                  // @pch_shrink_read_pages
.Lfunc_begin3:
	.loc	1 385 0 is_stmt 1       // kernel/mm/pagecache_manage.c:385:0
	.cfi_startproc
// %bb.0:
	//DEBUG_VALUE: pch_shrink_read_pages:nr <- $x0
	stp	x22, x21, [sp, #-48]!   // 16-byte Folded Spill
	stp	x20, x19, [sp, #16]     // 16-byte Folded Spill
	stp	x29, x30, [sp, #32]     // 16-byte Folded Spill
	add	x29, sp, #32            // =32
	.cfi_def_cfa w29, 16
	.cfi_offset w30, -8
	.cfi_offset w29, -16
	.cfi_offset w19, -24
	.cfi_offset w20, -32
	.cfi_offset w21, -40
	.cfi_offset w22, -48
.Ltmp41:
	.loc	1 388 7 prologue_end    // kernel/mm/pagecache_manage.c:388:7
	adrp	x22, pch_info
	ldr	x8, [x22, :lo12:pch_info]
	mov	x19, x0
.Ltmp42:
	//DEBUG_VALUE: pch_shrink_read_pages:nr <- $x19
	.loc	1 388 16 is_stmt 0      // kernel/mm/pagecache_manage.c:388:16
	cbz	x8, .LBB3_8
.Ltmp43:
// %bb.1:
	//DEBUG_VALUE: pch_shrink_read_pages:nr <- $x19
	.loc	1 388 30                // kernel/mm/pagecache_manage.c:388:30
	ldr	w9, [x8, #200]
.Ltmp44:
	.loc	1 388 6                 // kernel/mm/pagecache_manage.c:388:6
	cbz	w9, .LBB3_8
.Ltmp45:
// %bb.2:
	//DEBUG_VALUE: pch_shrink_read_pages:nr <- $x19
	.loc	1 391 16 is_stmt 1      // kernel/mm/pagecache_manage.c:391:16
	ldr	w9, [x8, #212]
.Ltmp46:
	.loc	1 391 6 is_stmt 0       // kernel/mm/pagecache_manage.c:391:6
	cmp	x9, x19
	b.hs	.LBB3_4
.Ltmp47:
// %bb.3:
	//DEBUG_VALUE: pch_shrink_read_pages:nr <- $x19
	.loc	1 392 24 is_stmt 1      // kernel/mm/pagecache_manage.c:392:24
	ldr	w19, [x8, #208]
.Ltmp48:
	//DEBUG_VALUE: pch_shrink_read_pages:ra_pages <- $x19
.LBB3_4:
	//DEBUG_VALUE: pch_shrink_read_pages:ra_pages <- $x19
	//DEBUG_VALUE: pch_lowmem_check:zone <- 0
	//DEBUG_VALUE: pch_lowmem_check:ret <- 0
	.loc	1 265 10                // kernel/mm/pagecache_manage.c:265:10
	bl	first_online_pgdat
	.loc	1 266 6                 // kernel/mm/pagecache_manage.c:266:6
	cbz	x0, .LBB3_8
.Ltmp49:
// %bb.5:
	//DEBUG_VALUE: pch_shrink_read_pages:ra_pages <- $x19
	.loc	1 269 14                // kernel/mm/pagecache_manage.c:269:14
	ldr	x8, [x0, #16]
.Ltmp50:
	.loc	1 270 7                 // kernel/mm/pagecache_manage.c:270:7
	mov	w1, wzr
	mov	w3, wzr
	mov	w4, wzr
.Ltmp51:
	.loc	1 269 37                // kernel/mm/pagecache_manage.c:269:37
	add	x2, x8, #2              // =2
.Ltmp52:
	//DEBUG_VALUE: pch_lowmem_check:watermark <- $x2
	.loc	1 0 0 is_stmt 0         // kernel/mm/pagecache_manage.c:0:0
	mov	x20, x0
.Ltmp53:
	//DEBUG_VALUE: pch_lowmem_check:zone <- $x20
	.loc	1 270 7 is_stmt 1       // kernel/mm/pagecache_manage.c:270:7
	bl	zone_watermark_ok
.Ltmp54:
	.loc	1 273 14                // kernel/mm/pagecache_manage.c:273:14
	ldr	x2, [x20, #8]
.Ltmp55:
	//DEBUG_VALUE: pch_lowmem_check:watermark <- $x2
	.loc	1 270 7                 // kernel/mm/pagecache_manage.c:270:7
	mov	w21, w0
.Ltmp56:
	.loc	1 274 7                 // kernel/mm/pagecache_manage.c:274:7
	mov	x0, x20
	mov	w1, wzr
	mov	w3, wzr
	mov	w4, wzr
	bl	zone_watermark_ok
.Ltmp57:
	.loc	1 0 7 is_stmt 0         // kernel/mm/pagecache_manage.c:0:7
	tbz	w21, #0, .LBB3_7
.Ltmp58:
// %bb.6:
	//DEBUG_VALUE: pch_lowmem_check:zone <- $x20
	//DEBUG_VALUE: pch_shrink_read_pages:ra_pages <- $x19
	tbnz	w0, #0, .LBB3_8
.Ltmp59:
.LBB3_7:
	//DEBUG_VALUE: pch_shrink_read_pages:ra_pages <- $x19
	.loc	1 397 5 is_stmt 1       // kernel/mm/pagecache_manage.c:397:5
	ldr	x8, [x22, :lo12:pch_info]
	.loc	1 397 15 is_stmt 0      // kernel/mm/pagecache_manage.c:397:15
	ldr	w8, [x8, #220]
.Ltmp60:
	.loc	1 396 6 is_stmt 1       // kernel/mm/pagecache_manage.c:396:6
	cmp	x19, x8
	csel	x19, x8, x19, hi
.Ltmp61:
.LBB3_8:
	.loc	1 0 0 is_stmt 0         // kernel/mm/pagecache_manage.c:0:0
	cmp	x19, #512               // =512
	orr	w8, wzr, #0x200
	csel	x0, x19, x8, lo
	.loc	1 401 1 is_stmt 1       // kernel/mm/pagecache_manage.c:401:1
	ldp	x29, x30, [sp, #32]     // 16-byte Folded Reload
	ldp	x20, x19, [sp, #16]     // 16-byte Folded Reload
	ldp	x22, x21, [sp], #48     // 16-byte Folded Reload
	ret
.Ltmp62:
.Lfunc_end3:
	.size	pch_shrink_read_pages, .Lfunc_end3-pch_shrink_read_pages
	.cfi_endproc
                                        // -- End function
	.section	.text.pch_shrink_mmap_pages,"ax",@progbits
	.hidden	pch_shrink_mmap_pages   // -- Begin function pch_shrink_mmap_pages
	.globl	pch_shrink_mmap_pages
	.p2align	2
	.type	pch_shrink_mmap_pages,@function
pch_shrink_mmap_pages:                  // @pch_shrink_mmap_pages
.Lfunc_begin4:
	.loc	1 412 0                 // kernel/mm/pagecache_manage.c:412:0
	.cfi_startproc
// %bb.0:
	//DEBUG_VALUE: pch_shrink_mmap_pages:nr <- $x0
	stp	x22, x21, [sp, #-48]!   // 16-byte Folded Spill
	stp	x20, x19, [sp, #16]     // 16-byte Folded Spill
	stp	x29, x30, [sp, #32]     // 16-byte Folded Spill
	add	x29, sp, #32            // =32
	.cfi_def_cfa w29, 16
	.cfi_offset w30, -8
	.cfi_offset w29, -16
	.cfi_offset w19, -24
	.cfi_offset w20, -32
	.cfi_offset w21, -40
	.cfi_offset w22, -48
.Ltmp63:
	.loc	1 415 7 prologue_end    // kernel/mm/pagecache_manage.c:415:7
	adrp	x22, pch_info
	ldr	x8, [x22, :lo12:pch_info]
	mov	x19, x0
.Ltmp64:
	//DEBUG_VALUE: pch_shrink_mmap_pages:nr <- $x19
	.loc	1 415 16 is_stmt 0      // kernel/mm/pagecache_manage.c:415:16
	cbz	x8, .LBB4_6
.Ltmp65:
// %bb.1:
	//DEBUG_VALUE: pch_shrink_mmap_pages:nr <- $x19
	.loc	1 415 30                // kernel/mm/pagecache_manage.c:415:30
	ldr	w9, [x8, #200]
.Ltmp66:
	.loc	1 415 6                 // kernel/mm/pagecache_manage.c:415:6
	cbz	w9, .LBB4_6
.Ltmp67:
// %bb.2:
	//DEBUG_VALUE: pch_shrink_mmap_pages:nr <- $x19
	.loc	1 418 16 is_stmt 1      // kernel/mm/pagecache_manage.c:418:16
	ldr	w8, [x8, #208]
	cmp	x8, x19
	csel	x19, x8, x19, lo
.Ltmp68:
	//DEBUG_VALUE: pch_lowmem_check:ret <- 0
	//DEBUG_VALUE: pch_lowmem_check:zone <- 0
	//DEBUG_VALUE: pch_shrink_mmap_pages:ra_pages <- $x19
	.loc	1 265 10                // kernel/mm/pagecache_manage.c:265:10
	bl	first_online_pgdat
	.loc	1 266 6                 // kernel/mm/pagecache_manage.c:266:6
	cbz	x0, .LBB4_6
.Ltmp69:
// %bb.3:
	//DEBUG_VALUE: pch_shrink_mmap_pages:ra_pages <- $x19
	.loc	1 269 14                // kernel/mm/pagecache_manage.c:269:14
	ldr	x8, [x0, #16]
.Ltmp70:
	.loc	1 270 7                 // kernel/mm/pagecache_manage.c:270:7
	mov	w1, wzr
	mov	w3, wzr
	mov	w4, wzr
.Ltmp71:
	.loc	1 269 37                // kernel/mm/pagecache_manage.c:269:37
	add	x2, x8, #2              // =2
.Ltmp72:
	//DEBUG_VALUE: pch_lowmem_check:watermark <- $x2
	.loc	1 0 0 is_stmt 0         // kernel/mm/pagecache_manage.c:0:0
	mov	x20, x0
.Ltmp73:
	//DEBUG_VALUE: pch_lowmem_check:zone <- $x20
	.loc	1 270 7 is_stmt 1       // kernel/mm/pagecache_manage.c:270:7
	bl	zone_watermark_ok
.Ltmp74:
	.loc	1 273 14                // kernel/mm/pagecache_manage.c:273:14
	ldr	x2, [x20, #8]
.Ltmp75:
	//DEBUG_VALUE: pch_lowmem_check:watermark <- $x2
	.loc	1 270 7                 // kernel/mm/pagecache_manage.c:270:7
	mov	w21, w0
.Ltmp76:
	.loc	1 274 7                 // kernel/mm/pagecache_manage.c:274:7
	mov	x0, x20
	mov	w1, wzr
	mov	w3, wzr
	mov	w4, wzr
	bl	zone_watermark_ok
.Ltmp77:
	.loc	1 0 7 is_stmt 0         // kernel/mm/pagecache_manage.c:0:7
	tbz	w21, #0, .LBB4_5
.Ltmp78:
// %bb.4:
	//DEBUG_VALUE: pch_lowmem_check:zone <- $x20
	//DEBUG_VALUE: pch_shrink_mmap_pages:ra_pages <- $x19
	tbnz	w0, #0, .LBB4_6
.Ltmp79:
.LBB4_5:
	//DEBUG_VALUE: pch_shrink_mmap_pages:ra_pages <- $x19
	.loc	1 424 5 is_stmt 1       // kernel/mm/pagecache_manage.c:424:5
	ldr	x8, [x22, :lo12:pch_info]
	.loc	1 424 15 is_stmt 0      // kernel/mm/pagecache_manage.c:424:15
	ldr	w8, [x8, #220]
.Ltmp80:
	.loc	1 423 6 is_stmt 1       // kernel/mm/pagecache_manage.c:423:6
	cmp	x19, x8
	csel	x19, x8, x19, hi
.Ltmp81:
.LBB4_6:
	.loc	1 0 0 is_stmt 0         // kernel/mm/pagecache_manage.c:0:0
	cmp	x19, #512               // =512
	orr	w8, wzr, #0x200
	csel	x0, x19, x8, lo
	.loc	1 428 1 is_stmt 1       // kernel/mm/pagecache_manage.c:428:1
	ldp	x29, x30, [sp, #32]     // 16-byte Folded Reload
	ldp	x20, x19, [sp, #16]     // 16-byte Folded Reload
	ldp	x22, x21, [sp], #48     // 16-byte Folded Reload
	ret
.Ltmp82:
.Lfunc_end4:
	.size	pch_shrink_mmap_pages, .Lfunc_end4-pch_shrink_mmap_pages
	.cfi_endproc
                                        // -- End function
	.section	.text.pch_shrink_mmap_async_pages,"ax",@progbits
	.hidden	pch_shrink_mmap_async_pages // -- Begin function pch_shrink_mmap_async_pages
	.globl	pch_shrink_mmap_async_pages
	.p2align	2
	.type	pch_shrink_mmap_async_pages,@function
pch_shrink_mmap_async_pages:            // @pch_shrink_mmap_async_pages
.Lfunc_begin5:
	.loc	1 439 0                 // kernel/mm/pagecache_manage.c:439:0
	.cfi_startproc
// %bb.0:
	//DEBUG_VALUE: pch_shrink_mmap_async_pages:nr <- $x0
	str	x21, [sp, #-48]!        // 8-byte Folded Spill
	stp	x20, x19, [sp, #16]     // 16-byte Folded Spill
	stp	x29, x30, [sp, #32]     // 16-byte Folded Spill
	add	x29, sp, #32            // =32
	.cfi_def_cfa w29, 16
	.cfi_offset w30, -8
	.cfi_offset w29, -16
	.cfi_offset w19, -24
	.cfi_offset w20, -32
	.cfi_offset w21, -48
.Ltmp83:
	.loc	1 442 7 prologue_end    // kernel/mm/pagecache_manage.c:442:7
	adrp	x8, pch_info
	ldr	x8, [x8, :lo12:pch_info]
	mov	x19, x0
.Ltmp84:
	//DEBUG_VALUE: pch_shrink_mmap_async_pages:nr <- $x19
	.loc	1 442 16 is_stmt 0      // kernel/mm/pagecache_manage.c:442:16
	cbz	x8, .LBB5_6
.Ltmp85:
// %bb.1:
	//DEBUG_VALUE: pch_shrink_mmap_async_pages:nr <- $x19
	.loc	1 442 30                // kernel/mm/pagecache_manage.c:442:30
	ldr	w8, [x8, #200]
.Ltmp86:
	.loc	1 442 6                 // kernel/mm/pagecache_manage.c:442:6
	cbz	w8, .LBB5_6
.Ltmp87:
// %bb.2:
	//DEBUG_VALUE: pch_shrink_mmap_async_pages:nr <- $x19
	//DEBUG_VALUE: pch_lowmem_check:zone <- 0
	//DEBUG_VALUE: pch_lowmem_check:ret <- 0
	.loc	1 265 10 is_stmt 1      // kernel/mm/pagecache_manage.c:265:10
	bl	first_online_pgdat
	.loc	1 266 6                 // kernel/mm/pagecache_manage.c:266:6
	cbz	x0, .LBB5_5
.Ltmp88:
// %bb.3:
	//DEBUG_VALUE: pch_shrink_mmap_async_pages:nr <- $x19
	.loc	1 269 14                // kernel/mm/pagecache_manage.c:269:14
	ldr	x8, [x0, #16]
.Ltmp89:
	.loc	1 270 7                 // kernel/mm/pagecache_manage.c:270:7
	mov	w1, wzr
	mov	w3, wzr
	mov	w4, wzr
.Ltmp90:
	.loc	1 269 37                // kernel/mm/pagecache_manage.c:269:37
	add	x2, x8, #2              // =2
.Ltmp91:
	//DEBUG_VALUE: pch_lowmem_check:watermark <- $x2
	.loc	1 0 0 is_stmt 0         // kernel/mm/pagecache_manage.c:0:0
	mov	x20, x0
.Ltmp92:
	//DEBUG_VALUE: pch_lowmem_check:zone <- $x20
	.loc	1 270 7 is_stmt 1       // kernel/mm/pagecache_manage.c:270:7
	bl	zone_watermark_ok
.Ltmp93:
	.loc	1 273 14                // kernel/mm/pagecache_manage.c:273:14
	ldr	x2, [x20, #8]
.Ltmp94:
	//DEBUG_VALUE: pch_lowmem_check:watermark <- $x2
	.loc	1 270 7                 // kernel/mm/pagecache_manage.c:270:7
	mov	w21, w0
.Ltmp95:
	.loc	1 274 7                 // kernel/mm/pagecache_manage.c:274:7
	mov	x0, x20
	mov	w1, wzr
	mov	w3, wzr
	mov	w4, wzr
	bl	zone_watermark_ok
.Ltmp96:
	mov	w8, w0
	mov	x0, xzr
	tbz	w21, #0, .LBB5_7
.Ltmp97:
// %bb.4:
	//DEBUG_VALUE: pch_lowmem_check:zone <- $x20
	//DEBUG_VALUE: pch_shrink_mmap_async_pages:nr <- $x19
	.loc	1 0 7 is_stmt 0         // kernel/mm/pagecache_manage.c:0:7
	tbz	w8, #0, .LBB5_7
.Ltmp98:
.LBB5_5:
	//DEBUG_VALUE: pch_shrink_mmap_async_pages:nr <- $x19
	mov	x0, x19
	b	.LBB5_7
.Ltmp99:
.LBB5_6:
	//DEBUG_VALUE: pch_shrink_mmap_async_pages:nr <- $x19
	//DEBUG_VALUE: __UNIQUE_ID_min1_54 <- $x19
	//DEBUG_VALUE: __UNIQUE_ID_min2_55 <- 512
	.loc	1 443 10 is_stmt 1      // kernel/mm/pagecache_manage.c:443:10
	cmp	x19, #512               // =512
	orr	w8, wzr, #0x200
	csel	x0, x19, x8, lo
.Ltmp100:
.LBB5_7:
	//DEBUG_VALUE: pch_shrink_mmap_async_pages:nr <- $x19
	.loc	1 451 1                 // kernel/mm/pagecache_manage.c:451:1
	ldp	x29, x30, [sp, #32]     // 16-byte Folded Reload
	ldp	x20, x19, [sp, #16]     // 16-byte Folded Reload
.Ltmp101:
	ldr	x21, [sp], #48          // 8-byte Folded Reload
	ret
.Ltmp102:
.Lfunc_end5:
	.size	pch_shrink_mmap_async_pages, .Lfunc_end5-pch_shrink_mmap_async_pages
	.cfi_endproc
                                        // -- End function
	.section	.text.pch_read_around,"ax",@progbits
	.hidden	pch_read_around         // -- Begin function pch_read_around
	.globl	pch_read_around
	.p2align	2
	.type	pch_read_around,@function
pch_read_around:                        // @pch_read_around
.Lfunc_begin6:
	.loc	1 630 0                 // kernel/mm/pagecache_manage.c:630:0
	.cfi_startproc
// %bb.0:
	//DEBUG_VALUE: pch_read_around:ra <- $x0
	//DEBUG_VALUE: pch_read_around:mapping <- $x1
	//DEBUG_VALUE: pch_read_around:file <- $x2
	//DEBUG_VALUE: pch_read_around:offset <- $x3
	sub	sp, sp, #240            // =240
	stp	x28, x27, [sp, #144]    // 16-byte Folded Spill
	stp	x26, x25, [sp, #160]    // 16-byte Folded Spill
	stp	x24, x23, [sp, #176]    // 16-byte Folded Spill
	stp	x22, x21, [sp, #192]    // 16-byte Folded Spill
	stp	x20, x19, [sp, #208]    // 16-byte Folded Spill
	stp	x29, x30, [sp, #224]    // 16-byte Folded Spill
	add	x29, sp, #224           // =224
	.cfi_def_cfa w29, 16
	.cfi_offset w30, -8
	.cfi_offset w29, -16
	.cfi_offset w19, -24
	.cfi_offset w20, -32
	.cfi_offset w21, -40
	.cfi_offset w22, -48
	.cfi_offset w23, -56
	.cfi_offset w24, -64
	.cfi_offset w25, -72
	.cfi_offset w26, -80
	.cfi_offset w27, -88
	.cfi_offset w28, -96
	adrp	x8, __stack_chk_guard
	ldr	x8, [x8, :lo12:__stack_chk_guard]
	mov	x20, x0
	mov	x19, x3
	mov	x21, x2
	stur	x8, [x29, #-88]
.Ltmp103:
	//DEBUG_VALUE: pch_read_around:offset <- $x19
	//DEBUG_VALUE: pch_read_around:file <- $x21
	//DEBUG_VALUE: pch_read_around:ra <- $x20
	.loc	1 636 35 prologue_end   // kernel/mm/pagecache_manage.c:636:35
	ldr	w0, [x0, #16]
	mov	x24, x1
.Ltmp104:
	//DEBUG_VALUE: pch_read_around:mapping <- $x24
	.loc	1 636 9 is_stmt 0       // kernel/mm/pagecache_manage.c:636:9
	bl	pch_shrink_mmap_pages
.Ltmp105:
	.loc	1 517 33 is_stmt 1      // kernel/mm/pagecache_manage.c:517:33
	ldr	x11, [x24]
.Ltmp106:
	//DEBUG_VALUE: pch_do_page_cache_readaround:page <- 0
	//DEBUG_VALUE: pch_do_page_cache_readaround:inode <- $x11
	.loc	1 0 33 is_stmt 0        // kernel/mm/pagecache_manage.c:0:33
	add	x9, sp, #104            // =104
	add	x10, sp, #88            // =88
.Ltmp107:
	.loc	1 639 19 is_stmt 1      // kernel/mm/pagecache_manage.c:639:19
	sub	x8, x19, x0, lsr #1
.Ltmp108:
	//DEBUG_VALUE: __UNIQUE_ID_min2_59 <- $x8
	//DEBUG_VALUE: pch_do_page_cache_readaround:nr_to_read <- $x22
	//DEBUG_VALUE: pch_do_page_cache_readaround:old_nr_to_read <- $x22
	.loc	1 520 2                 // kernel/mm/pagecache_manage.c:520:2
	stp	x9, x9, [sp, #104]
	//DEBUG_VALUE: pch_do_page_cache_readaround:page <- 0
	//DEBUG_VALUE: pch_do_page_cache_readaround:inode <- $x11
	//DEBUG_VALUE: pch_do_page_cache_readaround:nr_to_read <- $x22
	//DEBUG_VALUE: pch_do_page_cache_readaround:old_nr_to_read <- $x22
	.loc	1 521 2                 // kernel/mm/pagecache_manage.c:521:2
	stp	x10, x10, [sp, #88]
.Ltmp109:
	//DEBUG_VALUE: pch_do_page_cache_readaround:ret <- 0
	.loc	1 639 19                // kernel/mm/pagecache_manage.c:639:19
	bic	x23, x8, x8, asr #63
.Ltmp110:
	//DEBUG_VALUE: pch_read_around:start <- $x23
	//DEBUG_VALUE: pch_do_page_cache_readaround:offset <- $x23
	//DEBUG_VALUE: pch_reorder_io_list:offset <- $x23
	//DEBUG_VALUE: __UNIQUE_ID_min2_59 <- $x8
	//DEBUG_VALUE: __UNIQUE_ID_min1_58 <- 0
	.loc	40 805 16               // kernel/include/linux/fs.h:805:16
	ldr	x8, [x11, #80]
.Ltmp111:
	//DEBUG_VALUE: mapping_gfp_mask:mapping <- $x24
	//DEBUG_VALUE: readahead_gfp_mask:x <- $x24
	//DEBUG_VALUE: pch_do_page_cache_readaround:isize <- $x8
	//DEBUG_VALUE: pch_do_page_cache_readaround:ret <- 0
	//DEBUG_VALUE: pch_do_page_cache_readaround:offset <- $x23
	//DEBUG_VALUE: pch_do_page_cache_readaround:page <- 0
	//DEBUG_VALUE: pch_do_page_cache_readaround:inode <- [DW_OP_plus_uconst 48] [$sp+0]
	//DEBUG_VALUE: pch_do_page_cache_readaround:nr_to_read <- $x22
	//DEBUG_VALUE: pch_do_page_cache_readaround:old_nr_to_read <- $x22
	.file	153 "/mnt/disk/jenkins/ci/workspace/chipset_pipeline_release/opensource/component_code/vendor/huawei/extra/build/build_script/kirin_kernel_release/kernel/include/linux/pagemap.h"
	.loc	153 100 18              // kernel/include/linux/pagemap.h:100:18
	ldr	w9, [x24, #208]
.Ltmp112:
	.loc	1 643 14                // kernel/mm/pagecache_manage.c:643:14
	sub	x10, x19, x23
.Ltmp113:
	//DEBUG_VALUE: pch_do_page_cache_readaround:filp <- undef
	.loc	1 537 6                 // kernel/mm/pagecache_manage.c:537:6
	cmp	x0, #127                // =127
.Ltmp114:
	.loc	1 636 9                 // kernel/mm/pagecache_manage.c:636:9
	mov	x22, x0
.Ltmp115:
	//DEBUG_VALUE: __UNIQUE_ID_min1_58 <- 0
	//DEBUG_VALUE: pch_read_around:size <- $x22
	.loc	1 537 6                 // kernel/mm/pagecache_manage.c:537:6
	csel	x27, xzr, x10, hi
.Ltmp116:
	//DEBUG_VALUE: pch_do_page_cache_readaround:vip_n <- $x27
	.loc	1 0 6 is_stmt 0         // kernel/mm/pagecache_manage.c:0:6
	str	x11, [sp, #48]          // 8-byte Folded Spill
.Ltmp117:
	//DEBUG_VALUE: pch_do_page_cache_readaround:lookahead_size <- 0
	//DEBUG_VALUE: pch_do_page_cache_readaround:mapping <- $x24
	//DEBUG_VALUE: pch_do_page_cache_readaround:vip_n <- $x10
	//DEBUG_VALUE: i_size_read:inode <- [DW_OP_plus_uconst 48] [$sp+0]
	.loc	1 528 21 is_stmt 1      // kernel/mm/pagecache_manage.c:528:21
	stp	xzr, xzr, [x29, #-104]
.Ltmp118:
	//DEBUG_VALUE: pch_do_page_cache_readaround:badpted <- 0
	.loc	1 540 6                 // kernel/mm/pagecache_manage.c:540:6
	cbz	x8, .LBB6_28
.Ltmp119:
// %bb.1:
	//DEBUG_VALUE: pch_do_page_cache_readaround:vip_n <- $x10
	//DEBUG_VALUE: pch_do_page_cache_readaround:mapping <- $x24
	//DEBUG_VALUE: pch_read_around:size <- $x22
	//DEBUG_VALUE: pch_do_page_cache_readaround:inode <- [DW_OP_plus_uconst 48] [$sp+0]
	//DEBUG_VALUE: pch_do_page_cache_readaround:isize <- $x8
	//DEBUG_VALUE: pch_do_page_cache_readaround:offset <- $x23
	//DEBUG_VALUE: pch_read_around:start <- $x23
	//DEBUG_VALUE: pch_read_around:mapping <- $x24
	//DEBUG_VALUE: pch_read_around:ra <- $x20
	//DEBUG_VALUE: pch_read_around:file <- $x21
	//DEBUG_VALUE: pch_read_around:offset <- $x19
	.loc	1 0 6 is_stmt 0         // kernel/mm/pagecache_manage.c:0:6
	mov	w10, #4864
.Ltmp120:
	.loc	1 547 22 is_stmt 1      // kernel/mm/pagecache_manage.c:547:22
	sub	x8, x8, #1              // =1
.Ltmp121:
	.loc	1 0 0 is_stmt 0         // kernel/mm/pagecache_manage.c:0:0
	orr	w9, w9, w10
.Ltmp122:
	//DEBUG_VALUE: pch_do_page_cache_readaround:gfp_mask <- [DW_OP_plus_uconst 60] [$sp+0]
	//DEBUG_VALUE: __page_cache_alloc:gfp <- [DW_OP_plus_uconst 60] [$sp+0]
	//DEBUG_VALUE: alloc_pages_node:gfp_mask <- [DW_OP_plus_uconst 60] [$sp+0]
	//DEBUG_VALUE: __alloc_pages_node:gfp_mask <- [DW_OP_plus_uconst 60] [$sp+0]
	//DEBUG_VALUE: __alloc_pages:gfp_mask <- [DW_OP_plus_uconst 60] [$sp+0]
	stp	x21, x20, [sp, #16]     // 16-byte Folded Spill
	str	w9, [sp, #60]           // 4-byte Folded Spill
	.loc	1 547 27                // kernel/mm/pagecache_manage.c:547:27
	asr	x19, x8, #12
.Ltmp123:
	//DEBUG_VALUE: pch_do_page_cache_readaround:end_index <- $x19
	.loc	1 550 12 is_stmt 1      // kernel/mm/pagecache_manage.c:550:12
	bl	file_map_ra_adapt
	mov	x8, x22
	str	w0, [sp, #36]           // 4-byte Folded Spill
	.loc	1 551 6                 // kernel/mm/pagecache_manage.c:551:6
	tbz	w0, #0, .LBB6_3
.Ltmp124:
// %bb.2:
	//DEBUG_VALUE: pch_do_page_cache_readaround:end_index <- $x19
	//DEBUG_VALUE: pch_do_page_cache_readaround:gfp_mask <- [DW_OP_plus_uconst 60] [$sp+0]
	//DEBUG_VALUE: pch_do_page_cache_readaround:mapping <- $x24
	//DEBUG_VALUE: pch_read_around:size <- $x22
	//DEBUG_VALUE: pch_do_page_cache_readaround:inode <- [DW_OP_plus_uconst 48] [$sp+0]
	//DEBUG_VALUE: pch_do_page_cache_readaround:offset <- $x23
	//DEBUG_VALUE: pch_read_around:start <- $x23
	//DEBUG_VALUE: pch_read_around:mapping <- $x24
	//DEBUG_VALUE: pch_read_around:ra <- $x20
	//DEBUG_VALUE: pch_read_around:file <- $x21
	.loc	1 0 6 is_stmt 0         // kernel/mm/pagecache_manage.c:0:6
	ldr	x0, [sp, #48]           // 8-byte Folded Reload
.Ltmp125:
	.loc	1 552 16 is_stmt 1      // kernel/mm/pagecache_manage.c:552:16
	orr	w4, wzr, #0x1
	mov	x1, x23
	mov	x2, x22
	mov	x3, x19
	bl	file_map_data_analysis
	mov	x8, x0
.Ltmp126:
	//DEBUG_VALUE: pch_do_page_cache_readaround:nr_to_read <- $x8
.LBB6_3:
	//DEBUG_VALUE: pch_do_page_cache_readaround:end_index <- $x19
	//DEBUG_VALUE: pch_do_page_cache_readaround:gfp_mask <- [DW_OP_plus_uconst 60] [$sp+0]
	//DEBUG_VALUE: pch_do_page_cache_readaround:mapping <- $x24
	//DEBUG_VALUE: pch_read_around:size <- $x22
	//DEBUG_VALUE: pch_do_page_cache_readaround:inode <- [DW_OP_plus_uconst 48] [$sp+0]
	//DEBUG_VALUE: pch_do_page_cache_readaround:offset <- $x23
	//DEBUG_VALUE: pch_read_around:start <- $x23
	//DEBUG_VALUE: pch_read_around:mapping <- $x24
	//DEBUG_VALUE: pch_read_around:ra <- $x20
	//DEBUG_VALUE: pch_read_around:file <- $x21
	//DEBUG_VALUE: pch_do_page_cache_readaround:nr_to_read <- $x8
	//DEBUG_VALUE: pch_do_page_cache_readaround:ret <- 0
	//DEBUG_VALUE: pch_do_page_cache_readaround:i <- 0
	.loc	1 561 30                // kernel/mm/pagecache_manage.c:561:30
	lsl	x21, x8, #1
.Ltmp127:
	.loc	1 0 30 is_stmt 0        // kernel/mm/pagecache_manage.c:0:30
	str	x22, [sp, #40]          // 8-byte Folded Spill
.Ltmp128:
	//DEBUG_VALUE: pch_read_around:size <- [DW_OP_plus_uconst 40] [$sp+0]
	str	x24, [sp, #8]           // 8-byte Folded Spill
.Ltmp129:
	.loc	1 561 2                 // kernel/mm/pagecache_manage.c:561:2
	cbz	x21, .LBB6_5
.Ltmp130:
// %bb.4:
	//DEBUG_VALUE: pch_read_around:size <- [DW_OP_plus_uconst 40] [$sp+0]
	//DEBUG_VALUE: pch_do_page_cache_readaround:nr_to_read <- $x8
	//DEBUG_VALUE: pch_do_page_cache_readaround:end_index <- $x19
	//DEBUG_VALUE: pch_do_page_cache_readaround:gfp_mask <- [DW_OP_plus_uconst 60] [$sp+0]
	//DEBUG_VALUE: pch_do_page_cache_readaround:mapping <- $x24
	//DEBUG_VALUE: pch_do_page_cache_readaround:inode <- [DW_OP_plus_uconst 48] [$sp+0]
	//DEBUG_VALUE: pch_do_page_cache_readaround:offset <- $x23
	//DEBUG_VALUE: pch_read_around:start <- $x23
	//DEBUG_VALUE: pch_read_around:mapping <- $x24
	//DEBUG_VALUE: pch_read_around:ra <- $x20
	.loc	1 0 2                   // kernel/mm/pagecache_manage.c:0:2
	mov	x10, x8
	sub	w8, w10, #1             // =1
.Ltmp131:
	sub	w9, w19, w23
	cmp	w8, w9
	csel	w26, w8, w9, lt
.Ltmp132:
	//DEBUG_VALUE: pch_get_index_vip_first:vip <- $w27
	//DEBUG_VALUE: pch_get_index_vip_first:max <- $w26
	ldr	x8, [sp, #40]           // 8-byte Folded Reload
	ldr	w9, [sp, #36]           // 4-byte Folded Reload
	mov	x28, xzr
	add	x11, x24, #8            // =8
	cmp	x10, x8
	cset	w8, eq
	mov	w24, #-1
.Ltmp133:
	and	w8, w9, w8
	str	xzr, [sp, #80]          // 8-byte Folded Spill
	str	x11, [sp, #64]          // 8-byte Folded Spill
	str	x10, [sp]               // 8-byte Folded Spill
	str	w8, [sp, #76]           // 4-byte Folded Spill
	b	.LBB6_8
.Ltmp134:
.LBB6_5:
	//DEBUG_VALUE: pch_read_around:size <- [DW_OP_plus_uconst 40] [$sp+0]
	//DEBUG_VALUE: pch_do_page_cache_readaround:nr_to_read <- $x8
	//DEBUG_VALUE: pch_do_page_cache_readaround:end_index <- $x19
	//DEBUG_VALUE: pch_do_page_cache_readaround:gfp_mask <- [DW_OP_plus_uconst 60] [$sp+0]
	//DEBUG_VALUE: pch_do_page_cache_readaround:mapping <- $x24
	//DEBUG_VALUE: pch_do_page_cache_readaround:inode <- [DW_OP_plus_uconst 48] [$sp+0]
	//DEBUG_VALUE: pch_do_page_cache_readaround:offset <- $x23
	//DEBUG_VALUE: pch_read_around:start <- $x23
	//DEBUG_VALUE: pch_read_around:mapping <- $x24
	//DEBUG_VALUE: pch_read_around:ra <- $x20
	str	xzr, [sp, #80]          // 8-byte Folded Spill
	b	.LBB6_19
.Ltmp135:
.LBB6_6:                                //   in Loop: Header=BB6_8 Depth=1
	//DEBUG_VALUE: pch_read_around:size <- [DW_OP_plus_uconst 40] [$sp+0]
	//DEBUG_VALUE: pch_do_page_cache_readaround:page <- $x1
	//DEBUG_VALUE: pch_do_page_cache_readaround:pgofs <- $x19
	//DEBUG_VALUE: pch_do_page_cache_readaround:page_idx <- $w25
	//DEBUG_VALUE: pch_do_page_cache_readaround:i <- $x28
	//DEBUG_VALUE: pch_do_page_cache_readaround:ret <- [DW_OP_plus_uconst 80] [$sp+0]
	//DEBUG_VALUE: pch_do_page_cache_readaround:gfp_mask <- [DW_OP_plus_uconst 60] [$sp+0]
	//DEBUG_VALUE: pch_do_page_cache_readaround:inode <- [DW_OP_plus_uconst 48] [$sp+0]
	//DEBUG_VALUE: pch_do_page_cache_readaround:offset <- $x23
	//DEBUG_VALUE: pch_read_around:start <- $x23
	.loc	1 591 16 is_stmt 1      // kernel/mm/pagecache_manage.c:591:16
	str	x19, [x1, #16]
.Ltmp136:
	.file	154 "/mnt/disk/jenkins/ci/workspace/chipset_pipeline_release/opensource/component_code/vendor/huawei/extra/build/build_script/kirin_kernel_release/kernel/include/linux/list.h"
	.loc	154 79 30               // kernel/include/linux/list.h:79:30
	ldr	x8, [sp, #88]
	ldr	x10, [sp]               // 8-byte Folded Reload
.Ltmp137:
	.loc	1 592 20                // kernel/mm/pagecache_manage.c:592:20
	add	x9, x1, #32             // =32
.Ltmp138:
	//DEBUG_VALUE: pch_do_page_cache_readaround:page_pool <- [DW_OP_plus_uconst 88, DW_OP_deref] $sp
	.loc	154 63 13               // kernel/include/linux/list.h:63:13
	str	x9, [x8, #8]
.Ltmp139:
	.loc	1 593 8                 // kernel/mm/pagecache_manage.c:593:8
	cmp	x10, x20
.Ltmp140:
	//DEBUG_VALUE: list_add:head <- [DW_OP_plus_uconst 88] $sp
	//DEBUG_VALUE: list_add:new <- $x9
	//DEBUG_VALUE: __list_add:new <- $x9
	//DEBUG_VALUE: __list_add:prev <- [DW_OP_plus_uconst 88] $sp
	//DEBUG_VALUE: __list_add:next <- $x8
	.loc	154 64 12               // kernel/include/linux/list.h:64:12
	str	x8, [x1, #32]
	.loc	154 65 12               // kernel/include/linux/list.h:65:12
	add	x8, sp, #88             // =88
.Ltmp141:
	str	x8, [x1, #40]
.Ltmp142:
	//DEBUG_VALUE: __write_once_size:p <- [DW_OP_plus_uconst 88] $sp
	//DEBUG_VALUE: __write_once_size:size <- 8
	//DEBUG_VALUE: __write_once_size:res <- undef
	.loc	151 210 31              // kernel/include/linux/compiler.h:210:31
	str	x9, [sp, #88]
.Ltmp143:
	.loc	1 593 8                 // kernel/mm/pagecache_manage.c:593:8
	b.ne	.LBB6_16
.Ltmp144:
// %bb.7:                               //   in Loop: Header=BB6_8 Depth=1
	//DEBUG_VALUE: pch_read_around:size <- [DW_OP_plus_uconst 40] [$sp+0]
	//DEBUG_VALUE: pch_do_page_cache_readaround:page <- $x1
	//DEBUG_VALUE: pch_do_page_cache_readaround:pgofs <- $x19
	//DEBUG_VALUE: pch_do_page_cache_readaround:page_idx <- $w25
	//DEBUG_VALUE: pch_do_page_cache_readaround:i <- $x28
	//DEBUG_VALUE: pch_do_page_cache_readaround:ret <- [DW_OP_plus_uconst 80] [$sp+0]
	//DEBUG_VALUE: pch_do_page_cache_readaround:page_pool <- [DW_OP_plus_uconst 88, DW_OP_deref] $sp
	//DEBUG_VALUE: pch_do_page_cache_readaround:gfp_mask <- [DW_OP_plus_uconst 60] [$sp+0]
	//DEBUG_VALUE: pch_do_page_cache_readaround:inode <- [DW_OP_plus_uconst 48] [$sp+0]
	//DEBUG_VALUE: pch_do_page_cache_readaround:offset <- $x23
	//DEBUG_VALUE: pch_read_around:start <- $x23
	.loc	149 361 1               // kernel/include/linux/page-flags.h:361:1
	mov	w0, #19
	bl	set_bit
.Ltmp145:
	.loc	149 0 1 is_stmt 0       // kernel/include/linux/page-flags.h:0:1
	b	.LBB6_16
.Ltmp146:
.LBB6_8:                                // =>This Inner Loop Header: Depth=1
	//DEBUG_VALUE: pch_read_around:size <- [DW_OP_plus_uconst 40] [$sp+0]
	//DEBUG_VALUE: pch_get_index_vip_first:max <- $w26
	//DEBUG_VALUE: pch_get_index_vip_first:vip <- $w27
	//DEBUG_VALUE: pch_do_page_cache_readaround:end_index <- $x19
	//DEBUG_VALUE: pch_do_page_cache_readaround:gfp_mask <- [DW_OP_plus_uconst 60] [$sp+0]
	//DEBUG_VALUE: pch_do_page_cache_readaround:inode <- [DW_OP_plus_uconst 48] [$sp+0]
	//DEBUG_VALUE: pch_do_page_cache_readaround:offset <- $x23
	//DEBUG_VALUE: pch_read_around:start <- $x23
	//DEBUG_VALUE: pch_read_around:ra <- $x20
	//DEBUG_VALUE: pch_do_page_cache_readaround:ret <- [DW_OP_plus_uconst 80] [$sp+0]
	//DEBUG_VALUE: pch_do_page_cache_readaround:i <- $x28
	//DEBUG_VALUE: pch_get_index_vip_first:min <- 0
	.loc	1 468 15 is_stmt 1      // kernel/mm/pagecache_manage.c:468:15
	tst	w28, #0x1
	csinc	w8, w24, w28, ne
	cmp	w8, #0                  // =0
	cinc	w8, w8, lt
	.loc	1 468 12 is_stmt 0      // kernel/mm/pagecache_manage.c:468:12
	add	w8, w27, w8, asr #1
.Ltmp147:
	//DEBUG_VALUE: pch_get_index_vip_first:ret <- $w8
	.loc	1 470 6 is_stmt 1       // kernel/mm/pagecache_manage.c:470:6
	cmp	w8, w26
.Ltmp148:
	.loc	1 470 10 is_stmt 0      // kernel/mm/pagecache_manage.c:470:10
	ccmp	w8, #0, #8, le
.Ltmp149:
	.loc	1 470 6                 // kernel/mm/pagecache_manage.c:470:6
	csinv	w25, w8, wzr, ge
.Ltmp150:
	//DEBUG_VALUE: pch_do_page_cache_readaround:page_idx <- $w25
	.loc	1 564 7 is_stmt 1       // kernel/mm/pagecache_manage.c:564:7
	tbnz	w25, #31, .LBB6_18
.Ltmp151:
// %bb.9:                               //   in Loop: Header=BB6_8 Depth=1
	//DEBUG_VALUE: pch_read_around:size <- [DW_OP_plus_uconst 40] [$sp+0]
	//DEBUG_VALUE: pch_do_page_cache_readaround:page_idx <- $w25
	//DEBUG_VALUE: pch_do_page_cache_readaround:i <- $x28
	//DEBUG_VALUE: pch_do_page_cache_readaround:ret <- [DW_OP_plus_uconst 80] [$sp+0]
	//DEBUG_VALUE: pch_do_page_cache_readaround:end_index <- $x19
	//DEBUG_VALUE: pch_do_page_cache_readaround:gfp_mask <- [DW_OP_plus_uconst 60] [$sp+0]
	//DEBUG_VALUE: pch_do_page_cache_readaround:inode <- [DW_OP_plus_uconst 48] [$sp+0]
	//DEBUG_VALUE: pch_do_page_cache_readaround:offset <- $x23
	//DEBUG_VALUE: pch_read_around:start <- $x23
	//DEBUG_VALUE: pch_read_around:ra <- $x20
	.loc	1 0 7 is_stmt 0         // kernel/mm/pagecache_manage.c:0:7
	ldr	w8, [sp, #76]           // 4-byte Folded Reload
	.loc	1 567 20 is_stmt 1      // kernel/mm/pagecache_manage.c:567:20
	sxtw	x20, w25
.Ltmp152:
	.loc	1 567 18 is_stmt 0      // kernel/mm/pagecache_manage.c:567:18
	add	x19, x23, x20
.Ltmp153:
	//DEBUG_VALUE: pch_do_page_cache_readaround:pgofs <- $x19
	.loc	1 570 15 is_stmt 1      // kernel/mm/pagecache_manage.c:570:15
	cbz	w8, .LBB6_11
.Ltmp154:
// %bb.10:                              //   in Loop: Header=BB6_8 Depth=1
	//DEBUG_VALUE: pch_read_around:size <- [DW_OP_plus_uconst 40] [$sp+0]
	//DEBUG_VALUE: pch_do_page_cache_readaround:pgofs <- $x19
	//DEBUG_VALUE: pch_do_page_cache_readaround:page_idx <- $w25
	//DEBUG_VALUE: pch_do_page_cache_readaround:i <- $x28
	//DEBUG_VALUE: pch_do_page_cache_readaround:ret <- [DW_OP_plus_uconst 80] [$sp+0]
	//DEBUG_VALUE: pch_do_page_cache_readaround:gfp_mask <- [DW_OP_plus_uconst 60] [$sp+0]
	//DEBUG_VALUE: pch_do_page_cache_readaround:inode <- [DW_OP_plus_uconst 48] [$sp+0]
	//DEBUG_VALUE: pch_do_page_cache_readaround:offset <- $x23
	//DEBUG_VALUE: pch_read_around:start <- $x23
	.loc	1 0 15 is_stmt 0        // kernel/mm/pagecache_manage.c:0:15
	ldr	x0, [sp, #48]           // 8-byte Folded Reload
	.loc	1 571 5 is_stmt 1       // kernel/mm/pagecache_manage.c:571:5
	mov	x1, x19
	bl	file_map_is_set
.Ltmp155:
	.loc	1 570 7                 // kernel/mm/pagecache_manage.c:570:7
	tbz	w0, #0, .LBB6_17
.Ltmp156:
.LBB6_11:                               //   in Loop: Header=BB6_8 Depth=1
	//DEBUG_VALUE: pch_read_around:size <- [DW_OP_plus_uconst 40] [$sp+0]
	//DEBUG_VALUE: pch_do_page_cache_readaround:pgofs <- $x19
	//DEBUG_VALUE: pch_do_page_cache_readaround:page_idx <- $w25
	//DEBUG_VALUE: pch_do_page_cache_readaround:i <- $x28
	//DEBUG_VALUE: pch_do_page_cache_readaround:ret <- [DW_OP_plus_uconst 80] [$sp+0]
	//DEBUG_VALUE: pch_do_page_cache_readaround:gfp_mask <- [DW_OP_plus_uconst 60] [$sp+0]
	//DEBUG_VALUE: pch_do_page_cache_readaround:inode <- [DW_OP_plus_uconst 48] [$sp+0]
	//DEBUG_VALUE: pch_do_page_cache_readaround:offset <- $x23
	//DEBUG_VALUE: pch_read_around:start <- $x23
	.file	155 "/mnt/disk/jenkins/ci/workspace/chipset_pipeline_release/opensource/component_code/vendor/huawei/extra/build/build_script/kirin_kernel_release/kernel/include/linux/rcupdate.h"
	.loc	155 627 2               // kernel/include/linux/rcupdate.h:627:2
	bl	__rcu_read_lock
	ldr	x0, [sp, #64]           // 8-byte Folded Reload
.Ltmp157:
	.loc	1 577 10                // kernel/mm/pagecache_manage.c:577:10
	mov	x1, x19
	bl	radix_tree_lookup
	mov	x22, x0
.Ltmp158:
	//DEBUG_VALUE: radix_tree_exceptional_entry:arg <- $x22
	//DEBUG_VALUE: pch_do_page_cache_readaround:page <- $x22
	.loc	155 684 2               // kernel/include/linux/rcupdate.h:684:2
	bl	__rcu_read_unlock
.Ltmp159:
	.loc	1 579 12                // kernel/mm/pagecache_manage.c:579:12
	cbz	x22, .LBB6_13
.Ltmp160:
// %bb.12:                              //   in Loop: Header=BB6_8 Depth=1
	//DEBUG_VALUE: pch_read_around:size <- [DW_OP_plus_uconst 40] [$sp+0]
	//DEBUG_VALUE: pch_do_page_cache_readaround:page <- $x22
	//DEBUG_VALUE: pch_do_page_cache_readaround:pgofs <- $x19
	//DEBUG_VALUE: pch_do_page_cache_readaround:page_idx <- $w25
	//DEBUG_VALUE: pch_do_page_cache_readaround:i <- $x28
	//DEBUG_VALUE: pch_do_page_cache_readaround:ret <- [DW_OP_plus_uconst 80] [$sp+0]
	//DEBUG_VALUE: pch_do_page_cache_readaround:gfp_mask <- [DW_OP_plus_uconst 60] [$sp+0]
	//DEBUG_VALUE: pch_do_page_cache_readaround:inode <- [DW_OP_plus_uconst 48] [$sp+0]
	//DEBUG_VALUE: pch_do_page_cache_readaround:offset <- $x23
	//DEBUG_VALUE: pch_read_around:start <- $x23
	.loc	1 579 7 is_stmt 0       // kernel/mm/pagecache_manage.c:579:7
	tbz	w22, #1, .LBB6_18
.Ltmp161:
.LBB6_13:                               //   in Loop: Header=BB6_8 Depth=1
	//DEBUG_VALUE: pch_read_around:size <- [DW_OP_plus_uconst 40] [$sp+0]
	//DEBUG_VALUE: pch_do_page_cache_readaround:page <- $x22
	//DEBUG_VALUE: pch_do_page_cache_readaround:pgofs <- $x19
	//DEBUG_VALUE: pch_do_page_cache_readaround:page_idx <- $w25
	//DEBUG_VALUE: pch_do_page_cache_readaround:i <- $x28
	//DEBUG_VALUE: pch_do_page_cache_readaround:ret <- [DW_OP_plus_uconst 80] [$sp+0]
	//DEBUG_VALUE: pch_do_page_cache_readaround:gfp_mask <- [DW_OP_plus_uconst 60] [$sp+0]
	//DEBUG_VALUE: pch_do_page_cache_readaround:inode <- [DW_OP_plus_uconst 48] [$sp+0]
	//DEBUG_VALUE: pch_do_page_cache_readaround:offset <- $x23
	//DEBUG_VALUE: pch_read_around:start <- $x23
	//DEBUG_VALUE: alloc_pages_node:nid <- 0
	//DEBUG_VALUE: alloc_pages_node:order <- 0
	//DEBUG_VALUE: __alloc_pages_node:nid <- 0
	//DEBUG_VALUE: __alloc_pages_node:order <- 0
	//DEBUG_VALUE: __alloc_pages:order <- 0
	//DEBUG_VALUE: __alloc_pages:preferred_nid <- 0
	.loc	1 0 7                   // kernel/mm/pagecache_manage.c:0:7
	ldr	w0, [sp, #60]           // 4-byte Folded Reload
.Ltmp162:
	.file	156 "/mnt/disk/jenkins/ci/workspace/chipset_pipeline_release/opensource/component_code/vendor/huawei/extra/build/build_script/kirin_kernel_release/kernel/include/linux/gfp.h"
	.loc	156 507 9 is_stmt 1     // kernel/include/linux/gfp.h:507:9
	mov	w1, wzr
	mov	w2, wzr
	mov	x3, xzr
	bl	__alloc_pages_nodemask
.Ltmp163:
	.loc	1 583 7                 // kernel/mm/pagecache_manage.c:583:7
	cbz	x0, .LBB6_19
.Ltmp164:
// %bb.14:                              //   in Loop: Header=BB6_8 Depth=1
	//DEBUG_VALUE: pch_read_around:size <- [DW_OP_plus_uconst 40] [$sp+0]
	//DEBUG_VALUE: pch_do_page_cache_readaround:page <- $x22
	//DEBUG_VALUE: pch_do_page_cache_readaround:pgofs <- $x19
	//DEBUG_VALUE: pch_do_page_cache_readaround:page_idx <- $w25
	//DEBUG_VALUE: pch_do_page_cache_readaround:i <- $x28
	//DEBUG_VALUE: pch_do_page_cache_readaround:ret <- [DW_OP_plus_uconst 80] [$sp+0]
	//DEBUG_VALUE: pch_do_page_cache_readaround:gfp_mask <- [DW_OP_plus_uconst 60] [$sp+0]
	//DEBUG_VALUE: pch_do_page_cache_readaround:inode <- [DW_OP_plus_uconst 48] [$sp+0]
	//DEBUG_VALUE: pch_do_page_cache_readaround:offset <- $x23
	//DEBUG_VALUE: pch_read_around:start <- $x23
	.loc	1 0 0 is_stmt 0         // kernel/mm/pagecache_manage.c:0:0
	mov	x1, x0
.Ltmp165:
	//DEBUG_VALUE: pch_do_page_cache_readaround:page <- $x1
	//DEBUG_VALUE: SetPageReadahead:page <- $x1
	.loc	1 586 7 is_stmt 1       // kernel/mm/pagecache_manage.c:586:7
	cbz	x27, .LBB6_6
.Ltmp166:
// %bb.15:                              //   in Loop: Header=BB6_8 Depth=1
	//DEBUG_VALUE: pch_read_around:size <- [DW_OP_plus_uconst 40] [$sp+0]
	//DEBUG_VALUE: pch_do_page_cache_readaround:page <- $x1
	//DEBUG_VALUE: pch_do_page_cache_readaround:pgofs <- $x19
	//DEBUG_VALUE: pch_do_page_cache_readaround:page_idx <- $w25
	//DEBUG_VALUE: pch_do_page_cache_readaround:i <- $x28
	//DEBUG_VALUE: pch_do_page_cache_readaround:ret <- [DW_OP_plus_uconst 80] [$sp+0]
	//DEBUG_VALUE: pch_do_page_cache_readaround:gfp_mask <- [DW_OP_plus_uconst 60] [$sp+0]
	//DEBUG_VALUE: pch_do_page_cache_readaround:inode <- [DW_OP_plus_uconst 48] [$sp+0]
	//DEBUG_VALUE: pch_do_page_cache_readaround:offset <- $x23
	//DEBUG_VALUE: pch_read_around:start <- $x23
	.loc	1 587 23                // kernel/mm/pagecache_manage.c:587:23
	lsr	w8, w25, #6
	.loc	1 587 4 is_stmt 0       // kernel/mm/pagecache_manage.c:587:4
	lsl	x8, x8, #3
	sub	x13, x29, #104          // =104
	.loc	1 587 29                // kernel/mm/pagecache_manage.c:587:29
	ldr	x9, [x13, x8]
	.loc	1 588 10 is_stmt 1      // kernel/mm/pagecache_manage.c:588:10
	orr	w10, wzr, #0x1
.Ltmp167:
	.loc	154 79 30               // kernel/include/linux/list.h:79:30
	ldr	x11, [sp, #104]
.Ltmp168:
	.loc	1 588 10                // kernel/mm/pagecache_manage.c:588:10
	lsl	x10, x10, x25
	.loc	1 587 29                // kernel/mm/pagecache_manage.c:587:29
	orr	x9, x9, x10
	.loc	1 589 20                // kernel/mm/pagecache_manage.c:589:20
	add	x12, x1, #32            // =32
.Ltmp169:
	//DEBUG_VALUE: pch_do_page_cache_readaround:page_tmp <- [DW_OP_plus_uconst 104, DW_OP_deref] $sp
	.loc	1 587 29                // kernel/mm/pagecache_manage.c:587:29
	str	x9, [x13, x8]
.Ltmp170:
	//DEBUG_VALUE: list_add:head <- [DW_OP_plus_uconst 104] $sp
	//DEBUG_VALUE: list_add:new <- $x12
	//DEBUG_VALUE: __list_add:new <- $x12
	//DEBUG_VALUE: __list_add:prev <- [DW_OP_plus_uconst 104] $sp
	//DEBUG_VALUE: __list_add:next <- $x11
	.loc	154 65 12               // kernel/include/linux/list.h:65:12
	add	x8, sp, #104            // =104
	.loc	154 63 13               // kernel/include/linux/list.h:63:13
	str	x12, [x11, #8]
	.loc	154 64 12               // kernel/include/linux/list.h:64:12
	stp	x11, x8, [x1, #32]
.Ltmp171:
	//DEBUG_VALUE: __write_once_size:p <- [DW_OP_plus_uconst 104] $sp
	//DEBUG_VALUE: __write_once_size:size <- 8
	//DEBUG_VALUE: __write_once_size:res <- undef
	.loc	151 210 31              // kernel/include/linux/compiler.h:210:31
	str	x12, [sp, #104]
.Ltmp172:
.LBB6_16:                               //   in Loop: Header=BB6_8 Depth=1
	//DEBUG_VALUE: pch_read_around:size <- [DW_OP_plus_uconst 40] [$sp+0]
	//DEBUG_VALUE: pch_do_page_cache_readaround:pgofs <- $x19
	//DEBUG_VALUE: pch_do_page_cache_readaround:page_idx <- $w25
	//DEBUG_VALUE: pch_do_page_cache_readaround:i <- $x28
	//DEBUG_VALUE: pch_do_page_cache_readaround:ret <- [DW_OP_plus_uconst 80] [$sp+0]
	//DEBUG_VALUE: pch_do_page_cache_readaround:gfp_mask <- [DW_OP_plus_uconst 60] [$sp+0]
	//DEBUG_VALUE: pch_do_page_cache_readaround:inode <- [DW_OP_plus_uconst 48] [$sp+0]
	//DEBUG_VALUE: pch_do_page_cache_readaround:offset <- $x23
	//DEBUG_VALUE: pch_read_around:start <- $x23
	.loc	151 0 31 is_stmt 0      // kernel/include/linux/compiler.h:0:31
	ldr	x8, [sp, #80]           // 8-byte Folded Reload
	.loc	1 596 6 is_stmt 1       // kernel/mm/pagecache_manage.c:596:6
	add	w8, w8, #1              // =1
	//DEBUG_VALUE: pch_do_page_cache_readaround:ret <- [DW_OP_plus_uconst 80] [$sp+0]
	str	x8, [sp, #80]           // 8-byte Folded Spill
	b	.LBB6_18
.Ltmp173:
.LBB6_17:                               //   in Loop: Header=BB6_8 Depth=1
	//DEBUG_VALUE: pch_read_around:size <- [DW_OP_plus_uconst 40] [$sp+0]
	//DEBUG_VALUE: pch_do_page_cache_readaround:pgofs <- $x19
	//DEBUG_VALUE: pch_do_page_cache_readaround:page_idx <- $w25
	//DEBUG_VALUE: pch_do_page_cache_readaround:i <- $x28
	//DEBUG_VALUE: pch_do_page_cache_readaround:ret <- [DW_OP_plus_uconst 80] [$sp+0]
	//DEBUG_VALUE: pch_do_page_cache_readaround:gfp_mask <- [DW_OP_plus_uconst 60] [$sp+0]
	//DEBUG_VALUE: pch_do_page_cache_readaround:inode <- [DW_OP_plus_uconst 48] [$sp+0]
	//DEBUG_VALUE: pch_do_page_cache_readaround:offset <- $x23
	//DEBUG_VALUE: pch_read_around:start <- $x23
	.loc	1 572 4                 // kernel/mm/pagecache_manage.c:572:4
	orr	w0, wzr, #0x1
	bl	file_map_stat_ignore_inc
.Ltmp174:
.LBB6_18:                               //   in Loop: Header=BB6_8 Depth=1
	//DEBUG_VALUE: pch_read_around:size <- [DW_OP_plus_uconst 40] [$sp+0]
	//DEBUG_VALUE: pch_do_page_cache_readaround:page_idx <- $w25
	//DEBUG_VALUE: pch_do_page_cache_readaround:i <- $x28
	//DEBUG_VALUE: pch_do_page_cache_readaround:ret <- [DW_OP_plus_uconst 80] [$sp+0]
	//DEBUG_VALUE: pch_do_page_cache_readaround:gfp_mask <- [DW_OP_plus_uconst 60] [$sp+0]
	//DEBUG_VALUE: pch_do_page_cache_readaround:inode <- [DW_OP_plus_uconst 48] [$sp+0]
	//DEBUG_VALUE: pch_do_page_cache_readaround:offset <- $x23
	//DEBUG_VALUE: pch_read_around:start <- $x23
	//DEBUG_VALUE: pch_do_page_cache_readaround:ret <- [DW_OP_plus_uconst 80] [$sp+0]
	.loc	1 561 38                // kernel/mm/pagecache_manage.c:561:38
	add	x28, x28, #1            // =1
.Ltmp175:
	//DEBUG_VALUE: pch_do_page_cache_readaround:i <- $x28
	.loc	1 561 2 is_stmt 0       // kernel/mm/pagecache_manage.c:561:2
	cmp	x28, x21
.Ltmp176:
	.loc	1 561 16                // kernel/mm/pagecache_manage.c:561:16
	sub	w24, w24, #1            // =1
.Ltmp177:
	.loc	1 561 2                 // kernel/mm/pagecache_manage.c:561:2
	b.lo	.LBB6_8
.Ltmp178:
.LBB6_19:
	//DEBUG_VALUE: pch_read_around:size <- [DW_OP_plus_uconst 40] [$sp+0]
	//DEBUG_VALUE: pch_do_page_cache_readaround:gfp_mask <- [DW_OP_plus_uconst 60] [$sp+0]
	//DEBUG_VALUE: pch_do_page_cache_readaround:inode <- [DW_OP_plus_uconst 48] [$sp+0]
	//DEBUG_VALUE: pch_do_page_cache_readaround:offset <- $x23
	//DEBUG_VALUE: pch_read_around:start <- $x23
	//DEBUG_VALUE: pch_do_page_cache_readaround:ret <- [DW_OP_plus_uconst 80] [$sp+0]
	.loc	1 0 2                   // kernel/mm/pagecache_manage.c:0:2
	ldr	x19, [sp, #80]          // 8-byte Folded Reload
.Ltmp179:
	//DEBUG_VALUE: pch_do_page_cache_readaround:ret <- $w19
	ldr	w8, [sp, #36]           // 4-byte Folded Reload
	.loc	1 600 6 is_stmt 1       // kernel/mm/pagecache_manage.c:600:6
	tbz	w8, #0, .LBB6_21
.Ltmp180:
// %bb.20:
	//DEBUG_VALUE: pch_read_around:size <- [DW_OP_plus_uconst 40] [$sp+0]
	//DEBUG_VALUE: pch_do_page_cache_readaround:ret <- $w19
	//DEBUG_VALUE: pch_do_page_cache_readaround:gfp_mask <- [DW_OP_plus_uconst 60] [$sp+0]
	//DEBUG_VALUE: pch_do_page_cache_readaround:inode <- [DW_OP_plus_uconst 48] [$sp+0]
	//DEBUG_VALUE: pch_do_page_cache_readaround:offset <- $x23
	//DEBUG_VALUE: pch_read_around:start <- $x23
	.loc	1 601 27                // kernel/mm/pagecache_manage.c:601:27
	sxtw	x0, w19
	.loc	1 601 3 is_stmt 0       // kernel/mm/pagecache_manage.c:601:3
	bl	file_map_stat_total_inc
.Ltmp181:
.LBB6_21:
	//DEBUG_VALUE: pch_read_around:size <- [DW_OP_plus_uconst 40] [$sp+0]
	//DEBUG_VALUE: pch_do_page_cache_readaround:ret <- $w19
	//DEBUG_VALUE: pch_do_page_cache_readaround:gfp_mask <- [DW_OP_plus_uconst 60] [$sp+0]
	//DEBUG_VALUE: pch_do_page_cache_readaround:inode <- [DW_OP_plus_uconst 48] [$sp+0]
	//DEBUG_VALUE: pch_do_page_cache_readaround:offset <- $x23
	//DEBUG_VALUE: pch_read_around:start <- $x23
	.loc	1 0 3                   // kernel/mm/pagecache_manage.c:0:3
	ldp	x1, x20, [sp, #16]      // 16-byte Folded Reload
	ldr	x22, [sp, #40]          // 8-byte Folded Reload
	ldr	x0, [sp, #8]            // 8-byte Folded Reload
	.loc	1 609 6 is_stmt 1       // kernel/mm/pagecache_manage.c:609:6
	cbz	w19, .LBB6_28
.Ltmp182:
// %bb.22:
	//DEBUG_VALUE: pch_read_around:size <- [DW_OP_plus_uconst 40] [$sp+0]
	//DEBUG_VALUE: pch_do_page_cache_readaround:ret <- $w19
	//DEBUG_VALUE: pch_do_page_cache_readaround:gfp_mask <- [DW_OP_plus_uconst 60] [$sp+0]
	//DEBUG_VALUE: pch_do_page_cache_readaround:inode <- [DW_OP_plus_uconst 48] [$sp+0]
	//DEBUG_VALUE: pch_do_page_cache_readaround:offset <- $x23
	//DEBUG_VALUE: pch_read_around:start <- $x23
	.loc	1 614 7                 // kernel/mm/pagecache_manage.c:614:7
	cbz	x27, .LBB6_27
.Ltmp183:
// %bb.23:
	//DEBUG_VALUE: pch_read_around:size <- [DW_OP_plus_uconst 40] [$sp+0]
	//DEBUG_VALUE: pch_do_page_cache_readaround:ret <- $w19
	//DEBUG_VALUE: pch_do_page_cache_readaround:gfp_mask <- [DW_OP_plus_uconst 60] [$sp+0]
	//DEBUG_VALUE: pch_do_page_cache_readaround:inode <- [DW_OP_plus_uconst 48] [$sp+0]
	//DEBUG_VALUE: pch_do_page_cache_readaround:offset <- $x23
	//DEBUG_VALUE: pch_read_around:start <- $x23
	//DEBUG_VALUE: pch_do_page_cache_readaround:page_tmp <- [DW_OP_plus_uconst 104, DW_OP_deref] $sp
	//DEBUG_VALUE: pch_do_page_cache_readaround:page_pool <- [DW_OP_plus_uconst 88, DW_OP_deref] $sp
	//DEBUG_VALUE: pch_reorder_io_list:pg_idx_bm <- [DW_OP_constu 104, DW_OP_minus] $fp
	//DEBUG_VALUE: pch_reorder_io_list:bm_count <- 2
	//DEBUG_VALUE: pch_reorder_io_list:page_tmp <- [DW_OP_plus_uconst 104] $sp
	//DEBUG_VALUE: pch_reorder_io_list:page_pool <- [DW_OP_plus_uconst 88] $sp
	//DEBUG_VALUE: pch_reorder_io_list:page <- 0
	//DEBUG_VALUE: pch_reorder_io_list:i <- 0
	.loc	1 0 7 is_stmt 0         // kernel/mm/pagecache_manage.c:0:7
	mov	x11, #256
	mov	x8, xzr
	sub	x9, x29, #104           // =104
	orr	w10, wzr, #0x1
	movk	x11, #57005, lsl #48
	add	x12, sp, #88            // =88
	add	x13, sp, #104           // =104
.Ltmp184:
.LBB6_24:                               // =>This Inner Loop Header: Depth=1
	//DEBUG_VALUE: pch_read_around:size <- [DW_OP_plus_uconst 40] [$sp+0]
	//DEBUG_VALUE: pch_reorder_io_list:page_pool <- [DW_OP_plus_uconst 88] $sp
	//DEBUG_VALUE: pch_reorder_io_list:page_tmp <- [DW_OP_plus_uconst 104] $sp
	//DEBUG_VALUE: pch_reorder_io_list:pg_idx_bm <- [DW_OP_constu 104, DW_OP_minus] $fp
	//DEBUG_VALUE: pch_do_page_cache_readaround:ret <- $w19
	//DEBUG_VALUE: pch_do_page_cache_readaround:page_tmp <- [DW_OP_plus_uconst 104, DW_OP_deref] $sp
	//DEBUG_VALUE: pch_do_page_cache_readaround:page_pool <- [DW_OP_plus_uconst 88, DW_OP_deref] $sp
	//DEBUG_VALUE: pch_do_page_cache_readaround:gfp_mask <- [DW_OP_plus_uconst 60] [$sp+0]
	//DEBUG_VALUE: pch_do_page_cache_readaround:inode <- [DW_OP_plus_uconst 48] [$sp+0]
	//DEBUG_VALUE: pch_do_page_cache_readaround:offset <- $x23
	//DEBUG_VALUE: pch_read_around:start <- $x23
	//DEBUG_VALUE: pch_reorder_io_list:i <- $x8
	.loc	1 490 7 is_stmt 1       // kernel/mm/pagecache_manage.c:490:7
	ubfx	x14, x8, #6, #26
	ldr	x14, [x9, x14, lsl #3]
	.loc	1 490 33 is_stmt 0      // kernel/mm/pagecache_manage.c:490:33
	lsl	x15, x10, x8
	.loc	1 490 25                // kernel/mm/pagecache_manage.c:490:25
	tst	x15, x14
.Ltmp185:
	.loc	1 490 7                 // kernel/mm/pagecache_manage.c:490:7
	b.eq	.LBB6_26
.Ltmp186:
// %bb.25:                              //   in Loop: Header=BB6_24 Depth=1
	//DEBUG_VALUE: pch_read_around:size <- [DW_OP_plus_uconst 40] [$sp+0]
	//DEBUG_VALUE: pch_reorder_io_list:i <- $x8
	//DEBUG_VALUE: pch_reorder_io_list:page_pool <- [DW_OP_plus_uconst 88] $sp
	//DEBUG_VALUE: pch_reorder_io_list:page_tmp <- [DW_OP_plus_uconst 104] $sp
	//DEBUG_VALUE: pch_reorder_io_list:pg_idx_bm <- [DW_OP_constu 104, DW_OP_minus] $fp
	//DEBUG_VALUE: pch_do_page_cache_readaround:ret <- $w19
	//DEBUG_VALUE: pch_do_page_cache_readaround:page_tmp <- [DW_OP_plus_uconst 104, DW_OP_deref] $sp
	//DEBUG_VALUE: pch_do_page_cache_readaround:page_pool <- [DW_OP_plus_uconst 88, DW_OP_deref] $sp
	//DEBUG_VALUE: pch_do_page_cache_readaround:gfp_mask <- [DW_OP_plus_uconst 60] [$sp+0]
	//DEBUG_VALUE: pch_do_page_cache_readaround:inode <- [DW_OP_plus_uconst 48] [$sp+0]
	//DEBUG_VALUE: pch_do_page_cache_readaround:offset <- $x23
	//DEBUG_VALUE: pch_read_around:start <- $x23
	//DEBUG_VALUE: __mptr <- undef
	.loc	1 491 11 is_stmt 1      // kernel/mm/pagecache_manage.c:491:11
	ldr	x14, [sp, #104]
.Ltmp187:
	//DEBUG_VALUE: __list_del_entry:entry <- $x14
	//DEBUG_VALUE: list_del:entry <- $x14
	//DEBUG_VALUE: pch_reorder_io_list:page <- [DW_OP_constu 32, DW_OP_minus, DW_OP_stack_value] $x14
	//DEBUG_VALUE: __mptr <- $x14
	.loc	1 494 10                // kernel/mm/pagecache_manage.c:494:10
	add	x17, x23, x8
.Ltmp188:
	//DEBUG_VALUE: __list_del:prev <- $x16
	//DEBUG_VALUE: __list_del:next <- $x15
	.loc	154 120 33              // kernel/include/linux/list.h:120:33
	ldp	x15, x16, [x14]
.Ltmp189:
	.loc	154 105 13              // kernel/include/linux/list.h:105:13
	str	x16, [x15, #8]
.Ltmp190:
	//DEBUG_VALUE: __write_once_size:p <- $x16
	//DEBUG_VALUE: __write_once_size:size <- 8
	//DEBUG_VALUE: __write_once_size:res <- undef
	//DEBUG_VALUE: __list_del_entry:entry <- $x14
	//DEBUG_VALUE: list_del:entry <- $x14
	.loc	151 210 31              // kernel/include/linux/compiler.h:210:31
	str	x15, [x16]
.Ltmp191:
	.loc	154 126 14              // kernel/include/linux/list.h:126:14
	str	x11, [x14]
.Ltmp192:
	.loc	1 494 16                // kernel/mm/pagecache_manage.c:494:16
	stur	x17, [x14, #-16]
.Ltmp193:
	//DEBUG_VALUE: list_add:head <- [DW_OP_plus_uconst 88] $sp
	//DEBUG_VALUE: list_add:new <- $x14
	.loc	154 79 30               // kernel/include/linux/list.h:79:30
	ldr	x15, [sp, #88]
.Ltmp194:
	//DEBUG_VALUE: __list_add:prev <- [DW_OP_plus_uconst 88] $sp
	//DEBUG_VALUE: __list_add:next <- $x15
	//DEBUG_VALUE: __list_add:new <- $x14
	.loc	154 63 13               // kernel/include/linux/list.h:63:13
	str	x14, [x15, #8]
	.loc	154 64 12               // kernel/include/linux/list.h:64:12
	stp	x15, x12, [x14]
.Ltmp195:
	//DEBUG_VALUE: __write_once_size:p <- [DW_OP_plus_uconst 88] $sp
	//DEBUG_VALUE: __write_once_size:size <- 8
	//DEBUG_VALUE: __write_once_size:res <- undef
	.loc	151 210 31              // kernel/include/linux/compiler.h:210:31
	str	x14, [sp, #88]
.Ltmp196:
	//DEBUG_VALUE: __read_once_size:p <- [DW_OP_plus_uconst 104] $sp
	//DEBUG_VALUE: __read_once_size:size <- 8
	//DEBUG_VALUE: __read_once_size:res <- undef
	//DEBUG_VALUE: list_empty:head <- [DW_OP_plus_uconst 104] $sp
	.loc	151 183 2               // kernel/include/linux/compiler.h:183:2
	ldr	x14, [sp, #104]
.Ltmp197:
	.loc	1 496 8                 // kernel/mm/pagecache_manage.c:496:8
	cmp	x13, x14
	b.eq	.LBB6_27
.Ltmp198:
.LBB6_26:                               //   in Loop: Header=BB6_24 Depth=1
	//DEBUG_VALUE: pch_read_around:size <- [DW_OP_plus_uconst 40] [$sp+0]
	//DEBUG_VALUE: pch_reorder_io_list:i <- $x8
	//DEBUG_VALUE: pch_reorder_io_list:page_pool <- [DW_OP_plus_uconst 88] $sp
	//DEBUG_VALUE: pch_reorder_io_list:page_tmp <- [DW_OP_plus_uconst 104] $sp
	//DEBUG_VALUE: pch_reorder_io_list:pg_idx_bm <- [DW_OP_constu 104, DW_OP_minus] $fp
	//DEBUG_VALUE: pch_do_page_cache_readaround:ret <- $w19
	//DEBUG_VALUE: pch_do_page_cache_readaround:page_tmp <- [DW_OP_plus_uconst 104, DW_OP_deref] $sp
	//DEBUG_VALUE: pch_do_page_cache_readaround:page_pool <- [DW_OP_plus_uconst 88, DW_OP_deref] $sp
	//DEBUG_VALUE: pch_do_page_cache_readaround:gfp_mask <- [DW_OP_plus_uconst 60] [$sp+0]
	//DEBUG_VALUE: pch_do_page_cache_readaround:inode <- [DW_OP_plus_uconst 48] [$sp+0]
	//DEBUG_VALUE: pch_do_page_cache_readaround:offset <- $x23
	//DEBUG_VALUE: pch_read_around:start <- $x23
	.loc	1 486 46                // kernel/mm/pagecache_manage.c:486:46
	add	x8, x8, #1              // =1
.Ltmp199:
	//DEBUG_VALUE: pch_reorder_io_list:i <- [DW_OP_plus_uconst 1, DW_OP_stack_value] undef
	.loc	1 486 2 is_stmt 0       // kernel/mm/pagecache_manage.c:486:2
	cmp	x8, #128                // =128
	b.lo	.LBB6_24
.Ltmp200:
.LBB6_27:
	//DEBUG_VALUE: pch_read_around:size <- [DW_OP_plus_uconst 40] [$sp+0]
	//DEBUG_VALUE: pch_do_page_cache_readaround:ret <- $w19
	//DEBUG_VALUE: pch_do_page_cache_readaround:gfp_mask <- [DW_OP_plus_uconst 60] [$sp+0]
	//DEBUG_VALUE: pch_do_page_cache_readaround:inode <- [DW_OP_plus_uconst 48] [$sp+0]
	//DEBUG_VALUE: pch_do_page_cache_readaround:offset <- $x23
	//DEBUG_VALUE: pch_read_around:start <- $x23
	//DEBUG_VALUE: pch_do_page_cache_readaround:page_pool <- [DW_OP_plus_uconst 88, DW_OP_deref] $sp
	.loc	1 0 2                   // kernel/mm/pagecache_manage.c:0:2
	ldr	w4, [sp, #60]           // 4-byte Folded Reload
	.loc	1 617 3 is_stmt 1       // kernel/mm/pagecache_manage.c:617:3
	add	x2, sp, #88             // =88
	mov	w3, w19
	bl	read_pages
.Ltmp201:
.LBB6_28:
	//DEBUG_VALUE: pch_do_page_cache_readaround:inode <- [DW_OP_plus_uconst 48] [$sp+0]
	//DEBUG_VALUE: pch_do_page_cache_readaround:offset <- $x23
	//DEBUG_VALUE: pch_read_around:start <- $x23
	//DEBUG_LABEL: pch_do_page_cache_readaround:out
	.loc	1 645 12                // kernel/mm/pagecache_manage.c:645:12
	str	x23, [x20]
	.loc	1 646 11                // kernel/mm/pagecache_manage.c:646:11
	str	w22, [x20, #8]
	adrp	x9, __stack_chk_guard
	ldur	x8, [x29, #-88]
	ldr	x9, [x9, :lo12:__stack_chk_guard]
	cmp	x9, x8
	b.ne	.LBB6_30
.Ltmp202:
// %bb.29:
	//DEBUG_VALUE: pch_read_around:start <- $x23
	.loc	1 650 1                 // kernel/mm/pagecache_manage.c:650:1
	ldp	x29, x30, [sp, #224]    // 16-byte Folded Reload
	ldp	x20, x19, [sp, #208]    // 16-byte Folded Reload
	ldp	x22, x21, [sp, #192]    // 16-byte Folded Reload
	ldp	x24, x23, [sp, #176]    // 16-byte Folded Reload
.Ltmp203:
	ldp	x26, x25, [sp, #160]    // 16-byte Folded Reload
	ldp	x28, x27, [sp, #144]    // 16-byte Folded Reload
	add	sp, sp, #240            // =240
	ret
.Ltmp204:
.LBB6_30:
	//DEBUG_VALUE: pch_do_page_cache_readaround:inode <- [DW_OP_plus_uconst 48] [$sp+0]
	//DEBUG_VALUE: pch_do_page_cache_readaround:offset <- $x23
	//DEBUG_VALUE: pch_read_around:start <- $x23
	.loc	1 0 1 is_stmt 0         // kernel/mm/pagecache_manage.c:0:1
	bl	__stack_chk_fail
.Lfunc_end6:
	.size	pch_read_around, .Lfunc_end6-pch_read_around
	.cfi_endproc
                                        // -- End function
	.section	.text.pch_mmap_readextend,"ax",@progbits
	.hidden	pch_mmap_readextend     // -- Begin function pch_mmap_readextend
	.globl	pch_mmap_readextend
	.p2align	2
	.type	pch_mmap_readextend,@function
pch_mmap_readextend:                    // @pch_mmap_readextend
.Lfunc_begin7:
	.loc	1 786 0 is_stmt 1       // kernel/mm/pagecache_manage.c:786:0
	.cfi_startproc
// %bb.0:
	//DEBUG_VALUE: pch_mmap_readextend:vm_flags <- $x0
	//DEBUG_VALUE: pch_mmap_readextend:ra <- $x1
	//DEBUG_VALUE: pch_mmap_readextend:file <- $x2
	//DEBUG_VALUE: pch_mmap_readextend:offset <- $x3
	str	x25, [sp, #-80]!        // 8-byte Folded Spill
	stp	x24, x23, [sp, #16]     // 16-byte Folded Spill
	stp	x22, x21, [sp, #32]     // 16-byte Folded Spill
	stp	x20, x19, [sp, #48]     // 16-byte Folded Spill
	stp	x29, x30, [sp, #64]     // 16-byte Folded Spill
	add	x29, sp, #64            // =64
	.cfi_def_cfa w29, 16
	.cfi_offset w30, -8
	.cfi_offset w29, -16
	.cfi_offset w19, -24
	.cfi_offset w20, -32
	.cfi_offset w21, -40
	.cfi_offset w22, -48
	.cfi_offset w23, -56
	.cfi_offset w24, -64
	.cfi_offset w25, -80
.Ltmp205:
	.loc	1 787 7 prologue_end    // kernel/mm/pagecache_manage.c:787:7
	adrp	x25, pch_info
	ldr	x8, [x25, :lo12:pch_info]
	.loc	1 787 16 is_stmt 0      // kernel/mm/pagecache_manage.c:787:16
	cbz	x8, .LBB7_13
.Ltmp206:
// %bb.1:
	//DEBUG_VALUE: pch_mmap_readextend:offset <- $x3
	//DEBUG_VALUE: pch_mmap_readextend:file <- $x2
	//DEBUG_VALUE: pch_mmap_readextend:ra <- $x1
	//DEBUG_VALUE: pch_mmap_readextend:vm_flags <- $x0
	.loc	1 787 30                // kernel/mm/pagecache_manage.c:787:30
	ldr	w8, [x8, #200]
.Ltmp207:
	.loc	1 787 6                 // kernel/mm/pagecache_manage.c:787:6
	cbz	w8, .LBB7_13
.Ltmp208:
// %bb.2:
	//DEBUG_VALUE: pch_mmap_readextend:offset <- $x3
	//DEBUG_VALUE: pch_mmap_readextend:file <- $x2
	//DEBUG_VALUE: pch_mmap_readextend:ra <- $x1
	//DEBUG_VALUE: pch_mmap_readextend:vm_flags <- $x0
	.loc	1 0 6                   // kernel/mm/pagecache_manage.c:0:6
	mov	x20, x3
.Ltmp209:
	//DEBUG_VALUE: pch_mmap_readextend:offset <- $x20
	mov	x19, x2
.Ltmp210:
	//DEBUG_VALUE: pch_mmap_readextend:file <- $x19
	mov	x21, x1
.Ltmp211:
	//DEBUG_VALUE: pch_mmap_readextend:ra <- $x21
	mov	x22, x0
.Ltmp212:
	//DEBUG_VALUE: pch_mmap_readextend:vm_flags <- $x22
	//DEBUG_VALUE: pch_lowmem_check:zone <- 0
	//DEBUG_VALUE: pch_lowmem_check:ret <- 0
	.loc	1 265 10 is_stmt 1      // kernel/mm/pagecache_manage.c:265:10
	bl	first_online_pgdat
	.loc	1 266 6                 // kernel/mm/pagecache_manage.c:266:6
	cbz	x0, .LBB7_5
.Ltmp213:
// %bb.3:
	//DEBUG_VALUE: pch_mmap_readextend:vm_flags <- $x22
	//DEBUG_VALUE: pch_mmap_readextend:ra <- $x21
	//DEBUG_VALUE: pch_mmap_readextend:file <- $x19
	//DEBUG_VALUE: pch_mmap_readextend:offset <- $x20
	.loc	1 269 14                // kernel/mm/pagecache_manage.c:269:14
	ldr	x8, [x0, #16]
.Ltmp214:
	.loc	1 270 7                 // kernel/mm/pagecache_manage.c:270:7
	mov	w1, wzr
	mov	w3, wzr
	mov	w4, wzr
.Ltmp215:
	.loc	1 269 37                // kernel/mm/pagecache_manage.c:269:37
	add	x2, x8, #2              // =2
.Ltmp216:
	//DEBUG_VALUE: pch_lowmem_check:watermark <- $x2
	.loc	1 0 0 is_stmt 0         // kernel/mm/pagecache_manage.c:0:0
	mov	x23, x0
.Ltmp217:
	//DEBUG_VALUE: pch_lowmem_check:zone <- $x23
	.loc	1 270 7 is_stmt 1       // kernel/mm/pagecache_manage.c:270:7
	bl	zone_watermark_ok
.Ltmp218:
	.loc	1 273 14                // kernel/mm/pagecache_manage.c:273:14
	ldr	x2, [x23, #8]
.Ltmp219:
	//DEBUG_VALUE: pch_lowmem_check:watermark <- $x2
	.loc	1 270 7                 // kernel/mm/pagecache_manage.c:270:7
	mov	w24, w0
.Ltmp220:
	.loc	1 274 7                 // kernel/mm/pagecache_manage.c:274:7
	mov	x0, x23
	mov	w1, wzr
	mov	w3, wzr
	mov	w4, wzr
	bl	zone_watermark_ok
.Ltmp221:
	.loc	1 0 7 is_stmt 0         // kernel/mm/pagecache_manage.c:0:7
	tbz	w24, #0, .LBB7_13
.Ltmp222:
// %bb.4:
	//DEBUG_VALUE: pch_lowmem_check:zone <- $x23
	//DEBUG_VALUE: pch_mmap_readextend:vm_flags <- $x22
	//DEBUG_VALUE: pch_mmap_readextend:ra <- $x21
	//DEBUG_VALUE: pch_mmap_readextend:file <- $x19
	//DEBUG_VALUE: pch_mmap_readextend:offset <- $x20
	tbz	w0, #0, .LBB7_13
.Ltmp223:
.LBB7_5:
	//DEBUG_VALUE: pch_mmap_readextend:vm_flags <- $x22
	//DEBUG_VALUE: pch_mmap_readextend:ra <- $x21
	//DEBUG_VALUE: pch_mmap_readextend:file <- $x19
	//DEBUG_VALUE: pch_mmap_readextend:offset <- $x20
	//DEBUG_VALUE: __pch_mmap_readextend:vm_flags <- $x22
	//DEBUG_VALUE: __pch_mmap_readextend:ra <- $x21
	//DEBUG_VALUE: __pch_mmap_readextend:file <- $x19
	//DEBUG_VALUE: __pch_mmap_readextend:offset <- $x20
	//DEBUG_VALUE: __pch_mmap_readextend:forward <- 1
	.loc	1 665 40 is_stmt 1      // kernel/mm/pagecache_manage.c:665:40
	ldr	x23, [x19, #320]
.Ltmp224:
	//DEBUG_VALUE: __pch_mmap_readextend:mapping <- $x23
	.loc	1 666 33                // kernel/mm/pagecache_manage.c:666:33
	ldr	x0, [x23]
.Ltmp225:
	//DEBUG_VALUE: i_size_read:inode <- $x0
	//DEBUG_VALUE: __pch_mmap_readextend:inode <- $x0
	//DEBUG_VALUE: inode_read_congested:inode <- $x0
	.loc	40 805 16               // kernel/include/linux/fs.h:805:16
	ldr	x24, [x0, #80]
.Ltmp226:
	//DEBUG_VALUE: __pch_mmap_readextend:isize <- $x24
	.loc	1 671 6                 // kernel/mm/pagecache_manage.c:671:6
	cmp	x24, #1                 // =1
	b.lt	.LBB7_13
.Ltmp227:
// %bb.6:
	//DEBUG_VALUE: __pch_mmap_readextend:isize <- $x24
	//DEBUG_VALUE: __pch_mmap_readextend:inode <- $x0
	//DEBUG_VALUE: __pch_mmap_readextend:mapping <- $x23
	//DEBUG_VALUE: __pch_mmap_readextend:offset <- $x20
	//DEBUG_VALUE: __pch_mmap_readextend:file <- $x19
	//DEBUG_VALUE: __pch_mmap_readextend:ra <- $x21
	//DEBUG_VALUE: __pch_mmap_readextend:vm_flags <- $x22
	//DEBUG_VALUE: pch_mmap_readextend:vm_flags <- $x22
	//DEBUG_VALUE: pch_mmap_readextend:ra <- $x21
	//DEBUG_VALUE: pch_mmap_readextend:file <- $x19
	//DEBUG_VALUE: pch_mmap_readextend:offset <- $x20
	.loc	1 676 6                 // kernel/mm/pagecache_manage.c:676:6
	tbnz	w22, #16, .LBB7_13
.Ltmp228:
// %bb.7:
	//DEBUG_VALUE: __pch_mmap_readextend:isize <- $x24
	//DEBUG_VALUE: __pch_mmap_readextend:inode <- $x0
	//DEBUG_VALUE: __pch_mmap_readextend:mapping <- $x23
	//DEBUG_VALUE: __pch_mmap_readextend:offset <- $x20
	//DEBUG_VALUE: __pch_mmap_readextend:file <- $x19
	//DEBUG_VALUE: __pch_mmap_readextend:ra <- $x21
	//DEBUG_VALUE: __pch_mmap_readextend:vm_flags <- $x22
	//DEBUG_VALUE: pch_mmap_readextend:vm_flags <- $x22
	//DEBUG_VALUE: pch_mmap_readextend:ra <- $x21
	//DEBUG_VALUE: pch_mmap_readextend:file <- $x19
	//DEBUG_VALUE: pch_mmap_readextend:offset <- $x20
	.loc	1 681 6                 // kernel/mm/pagecache_manage.c:681:6
	tbnz	w22, #15, .LBB7_13
.Ltmp229:
// %bb.8:
	//DEBUG_VALUE: __pch_mmap_readextend:isize <- $x24
	//DEBUG_VALUE: __pch_mmap_readextend:inode <- $x0
	//DEBUG_VALUE: __pch_mmap_readextend:mapping <- $x23
	//DEBUG_VALUE: __pch_mmap_readextend:offset <- $x20
	//DEBUG_VALUE: __pch_mmap_readextend:file <- $x19
	//DEBUG_VALUE: __pch_mmap_readextend:ra <- $x21
	//DEBUG_VALUE: __pch_mmap_readextend:vm_flags <- $x22
	//DEBUG_VALUE: pch_mmap_readextend:vm_flags <- $x22
	//DEBUG_VALUE: pch_mmap_readextend:ra <- $x21
	//DEBUG_VALUE: pch_mmap_readextend:file <- $x19
	//DEBUG_VALUE: pch_mmap_readextend:offset <- $x20
	.loc	1 0 0 is_stmt 0         // kernel/mm/pagecache_manage.c:0:0
	ldr	w8, [x21, #16]
	.loc	1 681 6                 // kernel/mm/pagecache_manage.c:681:6
	cbz	w8, .LBB7_13
.Ltmp230:
// %bb.9:
	//DEBUG_VALUE: __pch_mmap_readextend:isize <- $x24
	//DEBUG_VALUE: __pch_mmap_readextend:inode <- $x0
	//DEBUG_VALUE: __pch_mmap_readextend:mapping <- $x23
	//DEBUG_VALUE: __pch_mmap_readextend:offset <- $x20
	//DEBUG_VALUE: __pch_mmap_readextend:file <- $x19
	//DEBUG_VALUE: __pch_mmap_readextend:ra <- $x21
	//DEBUG_VALUE: __pch_mmap_readextend:vm_flags <- $x22
	//DEBUG_VALUE: pch_mmap_readextend:vm_flags <- $x22
	//DEBUG_VALUE: pch_mmap_readextend:ra <- $x21
	//DEBUG_VALUE: pch_mmap_readextend:file <- $x19
	//DEBUG_VALUE: pch_mmap_readextend:offset <- $x20
	.loc	1 694 10 is_stmt 1      // kernel/mm/pagecache_manage.c:694:10
	ldr	w8, [x21, #24]
.Ltmp231:
	.loc	1 694 6 is_stmt 0       // kernel/mm/pagecache_manage.c:694:6
	cmp	w8, #100                // =100
	b.hi	.LBB7_13
.Ltmp232:
// %bb.10:
	//DEBUG_VALUE: __pch_mmap_readextend:isize <- $x24
	//DEBUG_VALUE: __pch_mmap_readextend:inode <- $x0
	//DEBUG_VALUE: __pch_mmap_readextend:mapping <- $x23
	//DEBUG_VALUE: __pch_mmap_readextend:offset <- $x20
	//DEBUG_VALUE: __pch_mmap_readextend:file <- $x19
	//DEBUG_VALUE: __pch_mmap_readextend:ra <- $x21
	//DEBUG_VALUE: __pch_mmap_readextend:vm_flags <- $x22
	//DEBUG_VALUE: pch_mmap_readextend:vm_flags <- $x22
	//DEBUG_VALUE: pch_mmap_readextend:ra <- $x21
	//DEBUG_VALUE: pch_mmap_readextend:file <- $x19
	//DEBUG_VALUE: pch_mmap_readextend:offset <- $x20
	.file	157 "/mnt/disk/jenkins/ci/workspace/chipset_pipeline_release/opensource/component_code/vendor/huawei/extra/build/build_script/kirin_kernel_release/kernel/include/linux/backing-dev.h"
	.loc	157 461 9 is_stmt 1     // kernel/include/linux/backing-dev.h:461:9
	orr	w1, wzr, #0x2
	bl	inode_congested
.Ltmp233:
	.loc	1 700 6                 // kernel/mm/pagecache_manage.c:700:6
	cbnz	w0, .LBB7_13
.Ltmp234:
// %bb.11:
	//DEBUG_VALUE: __pch_mmap_readextend:isize <- $x24
	//DEBUG_VALUE: __pch_mmap_readextend:mapping <- $x23
	//DEBUG_VALUE: __pch_mmap_readextend:offset <- $x20
	//DEBUG_VALUE: __pch_mmap_readextend:file <- $x19
	//DEBUG_VALUE: __pch_mmap_readextend:ra <- $x21
	//DEBUG_VALUE: __pch_mmap_readextend:vm_flags <- $x22
	//DEBUG_VALUE: pch_mmap_readextend:vm_flags <- $x22
	//DEBUG_VALUE: pch_mmap_readextend:ra <- $x21
	//DEBUG_VALUE: pch_mmap_readextend:file <- $x19
	//DEBUG_VALUE: pch_mmap_readextend:offset <- $x20
	.loc	1 750 13                // kernel/mm/pagecache_manage.c:750:13
	ldr	w8, [x21, #8]
.Ltmp235:
	.loc	1 0 0 is_stmt 0         // kernel/mm/pagecache_manage.c:0:0
	sub	w9, w24, #1             // =1
	lsr	w9, w9, #12
.Ltmp236:
	//DEBUG_VALUE: __pch_mmap_readextend:end_index <- $x9
	//DEBUG_VALUE: __UNIQUE_ID_min1_64 <- $x9
	.loc	1 750 13                // kernel/mm/pagecache_manage.c:750:13
	add	x2, x20, x8, lsr #1
.Ltmp237:
	//DEBUG_VALUE: __UNIQUE_ID_min2_65 <- $x2
	//DEBUG_VALUE: __pch_mmap_readextend:pch_index <- $x2
	.loc	1 751 7 is_stmt 1       // kernel/mm/pagecache_manage.c:751:7
	cmp	x9, x2
	b.le	.LBB7_13
.Ltmp238:
// %bb.12:
	//DEBUG_VALUE: __pch_mmap_readextend:pch_index <- $x2
	//DEBUG_VALUE: __pch_mmap_readextend:end_index <- $x9
	//DEBUG_VALUE: __pch_mmap_readextend:isize <- $x24
	//DEBUG_VALUE: __pch_mmap_readextend:mapping <- $x23
	//DEBUG_VALUE: __pch_mmap_readextend:offset <- $x20
	//DEBUG_VALUE: __pch_mmap_readextend:file <- $x19
	//DEBUG_VALUE: __pch_mmap_readextend:ra <- $x21
	//DEBUG_VALUE: __pch_mmap_readextend:vm_flags <- $x22
	//DEBUG_VALUE: pch_mmap_readextend:vm_flags <- $x22
	//DEBUG_VALUE: pch_mmap_readextend:ra <- $x21
	//DEBUG_VALUE: pch_mmap_readextend:file <- $x19
	//DEBUG_VALUE: pch_mmap_readextend:offset <- $x20
	.loc	1 760 5                 // kernel/mm/pagecache_manage.c:760:5
	ldr	x8, [x25, :lo12:pch_info]
	.loc	1 759 3                 // kernel/mm/pagecache_manage.c:759:3
	mov	x0, x23
	mov	x1, x19
	mov	x4, xzr
	.loc	1 760 15                // kernel/mm/pagecache_manage.c:760:15
	ldr	w3, [x8, #208]
	.loc	1 759 3                 // kernel/mm/pagecache_manage.c:759:3
	bl	__do_page_cache_readahead
.Ltmp239:
.LBB7_13:
	.loc	1 800 1                 // kernel/mm/pagecache_manage.c:800:1
	ldp	x29, x30, [sp, #64]     // 16-byte Folded Reload
	ldp	x20, x19, [sp, #48]     // 16-byte Folded Reload
	ldp	x22, x21, [sp, #32]     // 16-byte Folded Reload
	ldp	x24, x23, [sp, #16]     // 16-byte Folded Reload
	ldr	x25, [sp], #80          // 8-byte Folded Reload
	ret
.Ltmp240:
.Lfunc_end7:
	.size	pch_mmap_readextend, .Lfunc_end7-pch_mmap_readextend
	.cfi_endproc
                                        // -- End function
	.section	.text.pch_timeout_work,"ax",@progbits
	.hidden	pch_timeout_work        // -- Begin function pch_timeout_work
	.globl	pch_timeout_work
	.p2align	2
	.type	pch_timeout_work,@function
pch_timeout_work:                       // @pch_timeout_work
.Lfunc_begin8:
	.loc	1 853 0                 // kernel/mm/pagecache_manage.c:853:0
	.cfi_startproc
// %bb.0:
	//DEBUG_VALUE: pch_timeout_work:work <- $x0
	sub	sp, sp, #192            // =192
	str	x21, [sp, #144]         // 8-byte Folded Spill
	stp	x20, x19, [sp, #160]    // 16-byte Folded Spill
	stp	x29, x30, [sp, #176]    // 16-byte Folded Spill
	add	x29, sp, #176           // =176
	.cfi_def_cfa w29, 16
	.cfi_offset w30, -8
	.cfi_offset w29, -16
	.cfi_offset w19, -24
	.cfi_offset w20, -32
	.cfi_offset w21, -48
	adrp	x8, __stack_chk_guard
	ldr	x8, [x8, :lo12:__stack_chk_guard]
.Ltmp241:
	.loc	1 862 8 prologue_end    // kernel/mm/pagecache_manage.c:862:8
	adrp	x20, pch_info
	stur	x8, [x29, #-40]
.Ltmp242:
	//DEBUG_VALUE: pch_timeout_work:wb <- 0
	//DEBUG_VALUE: pch_timeout_work:bdi <- 0
	//DEBUG_VALUE: pch_timeout_work:sb <- 0
	ldr	x8, [x20, :lo12:pch_info]
	.loc	1 862 18 is_stmt 0      // kernel/mm/pagecache_manage.c:862:18
	add	x0, x8, #144            // =144
.Ltmp243:
	.loc	1 862 2                 // kernel/mm/pagecache_manage.c:862:2
	bl	down
	.loc	1 863 33 is_stmt 1      // kernel/mm/pagecache_manage.c:863:33
	ldr	x8, [x20, :lo12:pch_info]
	.loc	1 863 2 is_stmt 0       // kernel/mm/pagecache_manage.c:863:2
	orr	w0, wzr, #0x1
	.loc	1 863 43                // kernel/mm/pagecache_manage.c:863:43
	add	x1, x8, #192            // =192
	.loc	1 863 2                 // kernel/mm/pagecache_manage.c:863:2
	bl	set_bit
.Ltmp244:
	.loc	1 118 10 is_stmt 1      // kernel/mm/pagecache_manage.c:118:10
	ldr	x8, [x20, :lo12:pch_info]
.Ltmp245:
	.loc	1 865 6                 // kernel/mm/pagecache_manage.c:865:6
	ldrb	w9, [x8, #228]
	tbz	w9, #0, .LBB8_16
// %bb.1:
	.loc	1 871 17                // kernel/mm/pagecache_manage.c:871:17
	ldr	x8, [x8, #56]
.Ltmp246:
	.loc	1 833 10                // kernel/mm/pagecache_manage.c:833:10
	adrp	x0, .L.str.20
	add	x0, x0, :lo12:.L.str.20
.Ltmp247:
	//DEBUG_VALUE: pch_user_statfs:data <- $x0
	mov	x2, sp
.Ltmp248:
	.loc	1 871 23                // kernel/mm/pagecache_manage.c:871:23
	ldr	x8, [x8, #16]
.Ltmp249:
	//DEBUG_VALUE: pch_timeout_work:sb <- $x8
	.loc	1 833 10                // kernel/mm/pagecache_manage.c:833:10
	mov	w1, #5
.Ltmp250:
	.loc	1 872 12                // kernel/mm/pagecache_manage.c:872:12
	ldr	x21, [x8, #248]
.Ltmp251:
	//DEBUG_VALUE: pch_user_statfs:lookup_flags <- 5
	//DEBUG_VALUE: pch_timeout_work:bdi <- $x21
	.loc	1 831 2                 // kernel/mm/pagecache_manage.c:831:2
	stp	xzr, xzr, [sp, #120]
	stp	xzr, xzr, [sp, #104]
	stp	xzr, xzr, [sp, #88]
	stp	xzr, xzr, [sp, #72]
	stp	xzr, xzr, [sp, #56]
	stp	xzr, xzr, [sp, #40]
	stp	xzr, xzr, [sp, #24]
	str	xzr, [sp, #16]
.Ltmp252:
	//DEBUG_VALUE: pch_user_statfs:path <- [DW_OP_deref] $sp
	.loc	1 833 10                // kernel/mm/pagecache_manage.c:833:10
	bl	kern_path
.Ltmp253:
	mov	w19, w0
.Ltmp254:
	//DEBUG_VALUE: pch_user_statfs:error <- $w19
	.loc	1 834 6                 // kernel/mm/pagecache_manage.c:834:6
	cbnz	w0, .LBB8_3
.Ltmp255:
// %bb.2:
	//DEBUG_VALUE: pch_user_statfs:error <- $w19
	//DEBUG_VALUE: pch_user_statfs:path <- [DW_OP_deref] $sp
	//DEBUG_VALUE: pch_timeout_work:bdi <- $x21
	//DEBUG_VALUE: pch_user_statfs:path <- [DW_OP_deref] $sp
	//DEBUG_VALUE: pch_user_statfs:st <- [DW_OP_plus_uconst 16, DW_OP_deref] $sp
	.loc	1 835 11                // kernel/mm/pagecache_manage.c:835:11
	mov	x0, sp
	add	x1, sp, #16             // =16
	bl	vfs_statfs
	mov	w19, w0
.Ltmp256:
	//DEBUG_VALUE: pch_user_statfs:error <- $w19
	.loc	1 836 3                 // kernel/mm/pagecache_manage.c:836:3
	mov	x0, sp
	bl	path_put
.Ltmp257:
	.loc	1 839 7                 // kernel/mm/pagecache_manage.c:839:7
	cbz	w19, .LBB8_7
.Ltmp258:
.LBB8_3:
	//DEBUG_VALUE: pch_timeout_work:bdi <- $x21
	//DEBUG_VALUE: pch_timeout_work:userdata_state <- $w19
	.loc	1 876 6                 // kernel/mm/pagecache_manage.c:876:6
	cbz	w19, .LBB8_8
.Ltmp259:
.LBB8_4:
	//DEBUG_VALUE: pch_timeout_work:userdata_state <- $w19
	//DEBUG_VALUE: pch_timeout_work:bdi <- $x21
	cmp	w19, #1                 // =1
	b.ne	.LBB8_6
.Ltmp260:
// %bb.5:
	//DEBUG_VALUE: pch_timeout_work:userdata_state <- $w19
	//DEBUG_VALUE: pch_timeout_work:bdi <- $x21
	.loc	1 877 3                 // kernel/mm/pagecache_manage.c:877:3
	ldr	x8, [x20, :lo12:pch_info]
	mov	x9, #17179869188
	orr	w10, wzr, #0x10
	.loc	1 877 32 is_stmt 0      // kernel/mm/pagecache_manage.c:877:32
	str	x9, [x8, #208]
	.loc	1 879 32 is_stmt 1      // kernel/mm/pagecache_manage.c:879:32
	str	w10, [x8, #216]
	b	.LBB8_13
.Ltmp261:
.LBB8_6:
	//DEBUG_VALUE: pch_timeout_work:userdata_state <- $w19
	//DEBUG_VALUE: pch_timeout_work:bdi <- $x21
	.loc	1 890 3                 // kernel/mm/pagecache_manage.c:890:3
	adrp	x0, .L.str.1
	adrp	x1, .L__func__.pch_timeout_work
	add	x0, x0, :lo12:.L.str.1
	add	x1, x1, :lo12:.L__func__.pch_timeout_work
	mov	w2, w19
	bl	printk
	b	.LBB8_13
.Ltmp262:
.LBB8_7:
	//DEBUG_VALUE: pch_user_statfs:st <- [DW_OP_plus_uconst 16, DW_OP_deref] $sp
	//DEBUG_VALUE: pch_user_statfs:error <- $w19
	//DEBUG_VALUE: pch_user_statfs:path <- [DW_OP_deref] $sp
	//DEBUG_VALUE: pch_timeout_work:bdi <- $x21
	.loc	1 843 17                // kernel/mm/pagecache_manage.c:843:17
	ldr	x8, [x20, :lo12:pch_info]
.Ltmp263:
	.loc	1 842 21                // kernel/mm/pagecache_manage.c:842:21
	ldr	x9, [sp, #48]
	.loc	1 842 57 is_stmt 0      // kernel/mm/pagecache_manage.c:842:57
	ldr	x10, [sp, #32]
	mov	w11, #100
.Ltmp264:
	.loc	1 843 27 is_stmt 1      // kernel/mm/pagecache_manage.c:843:27
	ldr	w8, [x8, #224]
.Ltmp265:
	.loc	1 842 30                // kernel/mm/pagecache_manage.c:842:30
	mul	x11, x9, x11
	.loc	1 842 52 is_stmt 0      // kernel/mm/pagecache_manage.c:842:52
	udiv	x10, x11, x10
.Ltmp266:
	//DEBUG_VALUE: pch_user_statfs:ratio <- $w10
	.loc	1 843 14 is_stmt 1      // kernel/mm/pagecache_manage.c:843:14
	cmp	w8, w10
	cset	w8, hs
	.loc	1 844 17                // kernel/mm/pagecache_manage.c:844:17
	cmp	x9, #64, lsl #12        // =262144
	cset	w9, ls
	.loc	1 843 45                // kernel/mm/pagecache_manage.c:843:45
	and	w19, w9, w8
.Ltmp267:
	//DEBUG_VALUE: pch_timeout_work:userdata_state <- $w19
	.loc	1 876 6                 // kernel/mm/pagecache_manage.c:876:6
	cbnz	w19, .LBB8_4
.Ltmp268:
.LBB8_8:
	//DEBUG_VALUE: pch_timeout_work:userdata_state <- $w19
	//DEBUG_VALUE: pch_timeout_work:bdi <- $x21
	.loc	1 881 3                 // kernel/mm/pagecache_manage.c:881:3
	ldr	x8, [x20, :lo12:pch_info]
	orr	w10, wzr, #0x10
.Ltmp269:
	.loc	1 882 17                // kernel/mm/pagecache_manage.c:882:17
	ldr	w9, [x8, #204]
.Ltmp270:
	.loc	1 881 32                // kernel/mm/pagecache_manage.c:881:32
	str	w10, [x8, #216]
	.loc	1 882 7                 // kernel/mm/pagecache_manage.c:882:7
	cmp	w9, #1                  // =1
	b.eq	.LBB8_11
.Ltmp271:
// %bb.9:
	//DEBUG_VALUE: pch_timeout_work:userdata_state <- $w19
	//DEBUG_VALUE: pch_timeout_work:bdi <- $x21
	cbnz	w9, .LBB8_13
.Ltmp272:
// %bb.10:
	//DEBUG_VALUE: pch_timeout_work:userdata_state <- $w19
	//DEBUG_VALUE: pch_timeout_work:bdi <- $x21
	.loc	1 0 7 is_stmt 0         // kernel/mm/pagecache_manage.c:0:7
	mov	x9, #34359738376
	b	.LBB8_12
.Ltmp273:
.LBB8_11:
	//DEBUG_VALUE: pch_timeout_work:userdata_state <- $w19
	//DEBUG_VALUE: pch_timeout_work:bdi <- $x21
	mov	x9, #68719476752
.Ltmp274:
.LBB8_12:
	//DEBUG_VALUE: pch_timeout_work:userdata_state <- $w19
	//DEBUG_VALUE: pch_timeout_work:bdi <- $x21
	str	x9, [x8, #208]
.Ltmp275:
.LBB8_13:
	//DEBUG_VALUE: pch_timeout_work:userdata_state <- $w19
	//DEBUG_VALUE: pch_timeout_work:bdi <- $x21
	//DEBUG_VALUE: pch_timeout_work:background_thresh <- [DW_OP_plus_uconst 16, DW_OP_deref] $sp
	//DEBUG_VALUE: pch_timeout_work:dirty_thresh <- [DW_OP_deref] $sp
	.loc	1 893 2 is_stmt 1       // kernel/mm/pagecache_manage.c:893:2
	add	x0, sp, #16             // =16
	mov	x1, sp
	bl	global_dirty_limits
.Ltmp276:
	//DEBUG_VALUE: __read_once_size:size <- 8
	//DEBUG_VALUE: __read_once_size:res <- undef
	//DEBUG_VALUE: global_node_page_state:item <- 21
	.loc	151 183 2               // kernel/include/linux/compiler.h:183:2
	adrp	x8, vm_node_stat+168
	add	x8, x8, :lo12:vm_node_stat+168
.Ltmp277:
	//DEBUG_VALUE: __read_once_size:p <- $x8
	ldr	x9, [x8]
.Ltmp278:
	//DEBUG_VALUE: global_node_page_state:x <- $x9
	.loc	151 183 2 is_stmt 0     // kernel/include/linux/compiler.h:183:2
	ldr	x10, [x8, #56]
.Ltmp279:
	//DEBUG_VALUE: __read_once_size:p <- [DW_OP_plus_uconst 56, DW_OP_stack_value] $x8
	//DEBUG_VALUE: global_node_page_state:x <- $x10
	.loc	151 183 2               // kernel/include/linux/compiler.h:183:2
	ldr	x8, [x8, #8]
.Ltmp280:
	//DEBUG_VALUE: __read_once_size:p <- [DW_OP_plus_uconst 8, DW_OP_stack_value] undef
	//DEBUG_VALUE: global_node_page_state:x <- $x8
	.loc	1 898 17 is_stmt 1      // kernel/mm/pagecache_manage.c:898:17
	ldr	x11, [sp]
.Ltmp281:
	//DEBUG_VALUE: pch_timeout_work:dirty_thresh <- $x11
	.loc	152 170 6               // kernel/include/linux/vmstat.h:170:6
	bic	x9, x9, x9, asr #63
.Ltmp282:
	//DEBUG_VALUE: __read_once_size:size <- 8
	//DEBUG_VALUE: __read_once_size:res <- undef
	//DEBUG_VALUE: global_node_page_state:item <- 28
	//DEBUG_VALUE: global_node_page_state:x <- $x9
	//DEBUG_VALUE: global_node_page_state:x <- $x9
	//DEBUG_VALUE: global_node_page_state:item <- 21
	.loc	152 170 6 is_stmt 0     // kernel/include/linux/vmstat.h:170:6
	bic	x10, x10, x10, asr #63
.Ltmp283:
	//DEBUG_VALUE: global_node_page_state:x <- $x10
	//DEBUG_VALUE: global_node_page_state:x <- $x10
	.loc	1 895 51 is_stmt 1      // kernel/mm/pagecache_manage.c:895:51
	add	x9, x10, x9
.Ltmp284:
	//DEBUG_VALUE: __read_once_size:size <- 8
	//DEBUG_VALUE: __read_once_size:res <- undef
	//DEBUG_VALUE: global_node_page_state:item <- 22
	.loc	152 170 6               // kernel/include/linux/vmstat.h:170:6
	bic	x8, x8, x8, asr #63
.Ltmp285:
	//DEBUG_VALUE: global_node_page_state:x <- $x8
	//DEBUG_VALUE: global_node_page_state:x <- $x8
	.loc	1 896 45                // kernel/mm/pagecache_manage.c:896:45
	add	x8, x9, x8
.Ltmp286:
	//DEBUG_VALUE: pch_timeout_work:nr_dirty <- $x8
	.loc	1 898 6                 // kernel/mm/pagecache_manage.c:898:6
	cmp	x8, x11
	b.lo	.LBB8_15
.Ltmp287:
// %bb.14:
	//DEBUG_VALUE: pch_timeout_work:nr_dirty <- $x8
	//DEBUG_VALUE: pch_timeout_work:dirty_thresh <- $x11
	//DEBUG_VALUE: pch_timeout_work:background_thresh <- [DW_OP_plus_uconst 16, DW_OP_deref] $sp
	//DEBUG_VALUE: pch_timeout_work:userdata_state <- $w19
	//DEBUG_VALUE: pch_timeout_work:bdi <- $x21
	//DEBUG_VALUE: test_bit:addr <- [DW_OP_plus_uconst 104, DW_OP_stack_value] $x21
	//DEBUG_VALUE: test_bit:nr <- 1
	.file	158 "/mnt/disk/jenkins/ci/workspace/chipset_pipeline_release/opensource/component_code/vendor/huawei/extra/build/build_script/kirin_kernel_release/kernel/include/asm-generic/bitops/non-atomic.h"
	.loc	158 106 16              // kernel/include/asm-generic/bitops/non-atomic.h:106:16
	ldr	x8, [x21, #104]
.Ltmp288:
	.loc	1 910 6                 // kernel/mm/pagecache_manage.c:910:6
	tbz	w8, #1, .LBB8_18
.Ltmp289:
.LBB8_15:
	//DEBUG_VALUE: pch_timeout_work:background_thresh <- [DW_OP_plus_uconst 16, DW_OP_deref] $sp
	//DEBUG_VALUE: pch_timeout_work:userdata_state <- $w19
	//DEBUG_VALUE: pch_timeout_work:bdi <- $x21
	.loc	1 0 0 is_stmt 0         // kernel/mm/pagecache_manage.c:0:0
	ldr	x8, [x20, :lo12:pch_info]
.Ltmp290:
.LBB8_16:
	add	x1, x8, #192            // =192
	orr	w0, wzr, #0x1
	bl	clear_bit
	ldr	x8, [x20, :lo12:pch_info]
	add	x0, x8, #144            // =144
	bl	up
	adrp	x9, __stack_chk_guard
	ldur	x8, [x29, #-40]
	ldr	x9, [x9, :lo12:__stack_chk_guard]
	cmp	x9, x8
	b.ne	.LBB8_19
// %bb.17:
	.loc	1 915 1 is_stmt 1       // kernel/mm/pagecache_manage.c:915:1
	ldp	x29, x30, [sp, #176]    // 16-byte Folded Reload
	ldp	x20, x19, [sp, #160]    // 16-byte Folded Reload
	ldr	x21, [sp, #144]         // 8-byte Folded Reload
	add	sp, sp, #192            // =192
	ret
.LBB8_18:
.Ltmp291:
	//DEBUG_VALUE: pch_timeout_work:dirty_thresh <- $x11
	//DEBUG_VALUE: pch_timeout_work:background_thresh <- [DW_OP_plus_uconst 16, DW_OP_deref] $sp
	//DEBUG_VALUE: pch_timeout_work:userdata_state <- $w19
	//DEBUG_VALUE: pch_timeout_work:bdi <- $x21
	.loc	1 0 0 is_stmt 0         // kernel/mm/pagecache_manage.c:0:0
	add	x0, x21, #96            // =96
.Ltmp292:
	//DEBUG_VALUE: writeback_in_progress:wb <- $x0
	//DEBUG_VALUE: pch_timeout_work:wb <- $x0
	.loc	1 911 3 is_stmt 1       // kernel/mm/pagecache_manage.c:911:3
	bl	wb_start_background_writeback
.Ltmp293:
	.loc	1 0 3 is_stmt 0         // kernel/mm/pagecache_manage.c:0:3
	b	.LBB8_15
.Ltmp294:
.LBB8_19:
	bl	__stack_chk_fail
.Lfunc_end8:
	.size	pch_timeout_work, .Lfunc_end8-pch_timeout_work
	.cfi_endproc
                                        // -- End function
	.section	.text.pch_timeout_timer,"ax",@progbits
	.hidden	pch_timeout_timer       // -- Begin function pch_timeout_timer
	.globl	pch_timeout_timer
	.p2align	2
	.type	pch_timeout_timer,@function
pch_timeout_timer:                      // @pch_timeout_timer
.Lfunc_begin9:
	.loc	1 918 0 is_stmt 1       // kernel/mm/pagecache_manage.c:918:0
	.cfi_startproc
// %bb.0:
	//DEBUG_VALUE: pch_timeout_timer:data <- $x0
	.loc	1 809 41 prologue_end   // kernel/mm/pagecache_manage.c:809:41
	adrp	x8, pch_info
	ldr	x8, [x8, :lo12:pch_info]
.Ltmp295:
	//DEBUG_VALUE: test_bit:nr <- 1
	//DEBUG_VALUE: test_bit:addr <- [DW_OP_plus_uconst 192, DW_OP_stack_value] $x8
	.loc	158 106 16              // kernel/include/asm-generic/bitops/non-atomic.h:106:16
	ldr	x9, [x8, #192]
.Ltmp296:
	.loc	1 919 6                 // kernel/mm/pagecache_manage.c:919:6
	tbnz	w9, #1, .LBB9_2
.Ltmp297:
// %bb.1:
	//DEBUG_VALUE: pch_timeout_timer:data <- $x0
	stp	x29, x30, [sp, #-16]!   // 16-byte Folded Spill
	mov	x29, sp
	.cfi_def_cfa w29, 16
	.cfi_offset w30, -8
	.cfi_offset w29, -16
.Ltmp298:
	.loc	68 549 20               // kernel/include/linux/workqueue.h:549:20
	adrp	x9, system_wq
	ldr	x1, [x9, :lo12:system_wq]
.Ltmp299:
	.loc	1 920 28                // kernel/mm/pagecache_manage.c:920:28
	add	x2, x8, #112            // =112
.Ltmp300:
	//DEBUG_VALUE: schedule_work:work <- $x2
	//DEBUG_VALUE: queue_work:work <- $x2
	//DEBUG_VALUE: queue_work:wq <- $x1
	.loc	68 491 9                // kernel/include/linux/workqueue.h:491:9
	orr	w0, wzr, #0x8
.Ltmp301:
	bl	queue_work_on
.Ltmp302:
	.loc	68 0 9 is_stmt 0        // kernel/include/linux/workqueue.h:0:9
	ldp	x29, x30, [sp], #16     // 16-byte Folded Reload
.Ltmp303:
.LBB9_2:
	.loc	1 921 1 is_stmt 1       // kernel/mm/pagecache_manage.c:921:1
	ret
.Ltmp304:
.Lfunc_end9:
	.size	pch_timeout_timer, .Lfunc_end9-pch_timeout_timer
	.cfi_endproc
                                        // -- End function
	.section	.text.mount_fs_register_pch,"ax",@progbits
	.hidden	mount_fs_register_pch   // -- Begin function mount_fs_register_pch
	.globl	mount_fs_register_pch
	.p2align	2
	.type	mount_fs_register_pch,@function
mount_fs_register_pch:                  // @mount_fs_register_pch
.Lfunc_begin10:
	.loc	1 957 0                 // kernel/mm/pagecache_manage.c:957:0
	.cfi_startproc
// %bb.0:
	//DEBUG_VALUE: mount_fs_register_pch:mnt <- $x0
	stp	x29, x30, [sp, #-16]!   // 16-byte Folded Spill
	mov	x29, sp
	.cfi_def_cfa w29, 16
	.cfi_offset w30, -8
	.cfi_offset w29, -16
.Ltmp305:
	.loc	1 961 7 prologue_end    // kernel/mm/pagecache_manage.c:961:7
	adrp	x8, pch_info
	ldr	x1, [x8, :lo12:pch_info]
.Ltmp306:
	//DEBUG_VALUE: mount_fs_register_pch:ret <- 0
	//DEBUG_VALUE: mount_fs_register_pch:mnt <- $x0
	.loc	1 961 6 is_stmt 0       // kernel/mm/pagecache_manage.c:961:6
	cbz	x1, .LBB10_5
.Ltmp307:
// %bb.1:
	//DEBUG_VALUE: mount_fs_register_pch:mnt <- $x0
	.loc	1 0 0                   // kernel/mm/pagecache_manage.c:0:0
	ldr	x8, [x0, #8]
.Ltmp308:
	//DEBUG_VALUE: mount_fs_register_pch:sb <- $x8
	mov	w10, #8208
	movk	w10, #62197, lsl #16
.Ltmp309:
	.loc	1 967 10 is_stmt 1      // kernel/mm/pagecache_manage.c:967:10
	ldr	x9, [x8, #96]
.Ltmp310:
	.loc	1 967 6 is_stmt 0       // kernel/mm/pagecache_manage.c:967:6
	cmp	x9, x10
	b.ne	.LBB10_7
.Ltmp311:
// %bb.2:
	//DEBUG_VALUE: mount_fs_register_pch:sb <- $x8
	//DEBUG_VALUE: mount_fs_register_pch:mnt <- $x0
	.loc	1 123 20 is_stmt 1      // kernel/mm/pagecache_manage.c:123:20
	ldr	w9, [x1, #228]
.Ltmp312:
	.loc	1 968 7                 // kernel/mm/pagecache_manage.c:968:7
	tbnz	w9, #2, .LBB10_11
.Ltmp313:
// %bb.3:
	//DEBUG_VALUE: mount_fs_register_pch:sb <- $x8
	//DEBUG_VALUE: mount_fs_register_pch:mnt <- $x0
	.loc	1 972 4                 // kernel/mm/pagecache_manage.c:972:4
	adrp	x8, g_pch_print_level
.Ltmp314:
	ldr	w8, [x8, :lo12:g_pch_print_level]
.Ltmp315:
	.loc	1 972 4 is_stmt 0       // kernel/mm/pagecache_manage.c:972:4
	cmp	w8, #2                  // =2
	b.lo	.LBB10_10
.Ltmp316:
// %bb.4:
	//DEBUG_VALUE: mount_fs_register_pch:mnt <- $x0
	.loc	1 972 4                 // kernel/mm/pagecache_manage.c:972:4
	adrp	x0, .L.str.3
.Ltmp317:
	add	x0, x0, :lo12:.L.str.3
	b	.LBB10_9
.Ltmp318:
.LBB10_5:
	//DEBUG_VALUE: mount_fs_register_pch:mnt <- $x0
	.loc	1 962 3 is_stmt 1       // kernel/mm/pagecache_manage.c:962:3
	adrp	x8, g_pch_print_level
	ldr	w8, [x8, :lo12:g_pch_print_level]
.Ltmp319:
	.loc	1 962 3 is_stmt 0       // kernel/mm/pagecache_manage.c:962:3
	cbz	w8, .LBB10_10
.Ltmp320:
// %bb.6:
	//DEBUG_VALUE: mount_fs_register_pch:mnt <- $x0
	.loc	1 962 3                 // kernel/mm/pagecache_manage.c:962:3
	adrp	x0, .L.str.2
.Ltmp321:
	add	x0, x0, :lo12:.L.str.2
	b	.LBB10_9
.Ltmp322:
.LBB10_7:
	//DEBUG_VALUE: mount_fs_register_pch:sb <- $x8
	//DEBUG_VALUE: mount_fs_register_pch:mnt <- $x0
	.loc	1 977 3 is_stmt 1       // kernel/mm/pagecache_manage.c:977:3
	adrp	x8, g_pch_print_level
.Ltmp323:
	ldr	w8, [x8, :lo12:g_pch_print_level]
.Ltmp324:
	.loc	1 977 3 is_stmt 0       // kernel/mm/pagecache_manage.c:977:3
	cmp	w8, #2                  // =2
	b.lo	.LBB10_10
.Ltmp325:
// %bb.8:
	//DEBUG_VALUE: mount_fs_register_pch:mnt <- $x0
	.loc	1 977 3                 // kernel/mm/pagecache_manage.c:977:3
	adrp	x0, .L.str.4
.Ltmp326:
	add	x0, x0, :lo12:.L.str.4
.Ltmp327:
.LBB10_9:
	.loc	1 0 0                   // kernel/mm/pagecache_manage.c:0:0
	adrp	x1, .L__func__.mount_fs_register_pch
	add	x1, x1, :lo12:.L__func__.mount_fs_register_pch
	bl	printk
.LBB10_10:
	.loc	1 1005 1 is_stmt 1      // kernel/mm/pagecache_manage.c:1005:1
	ldp	x29, x30, [sp], #16     // 16-byte Folded Reload
	ret
.LBB10_11:
.Ltmp328:
	//DEBUG_VALUE: mount_fs_register_pch:sb <- $x8
	//DEBUG_VALUE: mount_fs_register_pch:mnt <- $x0
	.loc	1 983 17                // kernel/mm/pagecache_manage.c:983:17
	ldr	x10, [x1, #56]
.Ltmp329:
	.loc	1 138 26                // kernel/mm/pagecache_manage.c:138:26
	and	w9, w9, #0xfffffffb
.Ltmp330:
	.loc	1 148 26                // kernel/mm/pagecache_manage.c:148:26
	orr	w9, w9, #0x1
	str	w9, [x1, #228]
.Ltmp331:
	.loc	1 983 7                 // kernel/mm/pagecache_manage.c:983:7
	cbnz	x10, .LBB10_10
.Ltmp332:
// %bb.12:
	//DEBUG_VALUE: mount_fs_register_pch:sb <- $x8
	//DEBUG_VALUE: mount_fs_register_pch:mnt <- $x0
	.loc	1 986 12                // kernel/mm/pagecache_manage.c:986:12
	ldr	x0, [x8, #240]
.Ltmp333:
	.loc	1 986 7 is_stmt 0       // kernel/mm/pagecache_manage.c:986:7
	cbz	x0, .LBB10_10
.Ltmp334:
// %bb.13:
	//DEBUG_VALUE: mount_fs_register_pch:sb <- $x8
	.loc	1 998 3 is_stmt 1       // kernel/mm/pagecache_manage.c:998:3
	adrp	x8, .L.str.5
.Ltmp335:
	add	x8, x8, :lo12:.L.str.5
	ldp	x9, x8, [x8]
	.loc	1 991 42                // kernel/mm/pagecache_manage.c:991:42
	adrp	x10, pch_io_idle_notify_handler
	add	x10, x10, :lo12:pch_io_idle_notify_handler
	.loc	1 989 18                // kernel/mm/pagecache_manage.c:989:18
	str	x0, [x1, #56]
	.loc	1 991 42                // kernel/mm/pagecache_manage.c:991:42
	str	x10, [x1, #32]
	.loc	1 998 3                 // kernel/mm/pagecache_manage.c:998:3
	stp	x9, x8, [x1]
	.loc	1 999 9                 // kernel/mm/pagecache_manage.c:999:9
	bl	blk_busyidle_event_subscribe
.Ltmp336:
	//DEBUG_VALUE: mount_fs_register_pch:ret <- $w0
	.loc	1 1001 7                // kernel/mm/pagecache_manage.c:1001:7
	cbz	w0, .LBB10_10
.Ltmp337:
// %bb.14:
	//DEBUG_VALUE: mount_fs_register_pch:ret <- $w0
	.loc	1 1002 4                // kernel/mm/pagecache_manage.c:1002:4
	adrp	x0, .L.str.6
.Ltmp338:
	add	x0, x0, :lo12:.L.str.6
	b	.LBB10_9
.Ltmp339:
.Lfunc_end10:
	.size	mount_fs_register_pch, .Lfunc_end10-mount_fs_register_pch
	.cfi_endproc
                                        // -- End function
	.section	.text.pch_io_idle_notify_handler,"ax",@progbits
	.p2align	2               // -- Begin function pch_io_idle_notify_handler
	.type	pch_io_idle_notify_handler,@function
pch_io_idle_notify_handler:             // @pch_io_idle_notify_handler
.Lfunc_begin11:
	.loc	1 937 0                 // kernel/mm/pagecache_manage.c:937:0
	.cfi_startproc
// %bb.0:
	//DEBUG_VALUE: pch_io_idle_notify_handler:nb <- $x0
	//DEBUG_VALUE: pch_io_idle_notify_handler:state <- $w1
	//DEBUG_VALUE: pch_io_idle_notify_handler:state <- $w1
	stp	x29, x30, [sp, #-16]!   // 16-byte Folded Spill
	mov	x29, sp
	.cfi_def_cfa w29, 16
	.cfi_offset w30, -8
	.cfi_offset w29, -16
.Ltmp340:
	.loc	1 938 6 prologue_end    // kernel/mm/pagecache_manage.c:938:6
	cbz	w1, .LBB11_3
.Ltmp341:
// %bb.1:
	//DEBUG_VALUE: pch_io_idle_notify_handler:state <- $w1
	//DEBUG_VALUE: pch_io_idle_notify_handler:nb <- $x0
	cmp	w1, #1                  // =1
	b.ne	.LBB11_4
.Ltmp342:
// %bb.2:
	//DEBUG_VALUE: pch_io_idle_notify_handler:state <- $w1
	//DEBUG_VALUE: pch_io_idle_notify_handler:nb <- $x0
	.loc	1 939 14                // kernel/mm/pagecache_manage.c:939:14
	adrp	x8, pch_info
	.loc	1 939 31 is_stmt 0      // kernel/mm/pagecache_manage.c:939:31
	adrp	x9, jiffies
	.loc	1 939 14                // kernel/mm/pagecache_manage.c:939:14
	ldr	x8, [x8, :lo12:pch_info]
	.loc	1 939 31                // kernel/mm/pagecache_manage.c:939:31
	ldr	x9, [x9, :lo12:jiffies]
	.loc	1 939 24                // kernel/mm/pagecache_manage.c:939:24
	add	x0, x8, #64             // =64
.Ltmp343:
	.loc	1 939 39                // kernel/mm/pagecache_manage.c:939:39
	add	x1, x9, #1250           // =1250
.Ltmp344:
	.loc	1 939 3                 // kernel/mm/pagecache_manage.c:939:3
	bl	mod_timer
	b	.LBB11_4
.LBB11_3:
.Ltmp345:
	//DEBUG_VALUE: pch_io_idle_notify_handler:state <- $w1
	//DEBUG_VALUE: pch_io_idle_notify_handler:nb <- $x0
	.loc	1 941 14 is_stmt 1      // kernel/mm/pagecache_manage.c:941:14
	adrp	x8, pch_info
	ldr	x8, [x8, :lo12:pch_info]
	.loc	1 941 24 is_stmt 0      // kernel/mm/pagecache_manage.c:941:24
	add	x0, x8, #64             // =64
.Ltmp346:
	.loc	1 941 3                 // kernel/mm/pagecache_manage.c:941:3
	bl	del_timer
.Ltmp347:
.LBB11_4:
	.loc	1 943 2 is_stmt 1       // kernel/mm/pagecache_manage.c:943:2
	mov	w0, wzr
	ldp	x29, x30, [sp], #16     // 16-byte Folded Reload
	ret
.Ltmp348:
.Lfunc_end11:
	.size	pch_io_idle_notify_handler, .Lfunc_end11-pch_io_idle_notify_handler
	.cfi_endproc
                                        // -- End function
	.section	.text.umounting_fs_register_pch,"ax",@progbits
	.hidden	umounting_fs_register_pch // -- Begin function umounting_fs_register_pch
	.globl	umounting_fs_register_pch
	.p2align	2
	.type	umounting_fs_register_pch,@function
umounting_fs_register_pch:              // @umounting_fs_register_pch
.Lfunc_begin12:
	.loc	1 1017 0                // kernel/mm/pagecache_manage.c:1017:0
	.cfi_startproc
// %bb.0:
	//DEBUG_VALUE: umounting_fs_register_pch:sb <- $x0
	str	x19, [sp, #-32]!        // 8-byte Folded Spill
	stp	x29, x30, [sp, #16]     // 16-byte Folded Spill
	add	x29, sp, #16            // =16
	.cfi_def_cfa w29, 16
	.cfi_offset w30, -8
	.cfi_offset w29, -16
	.cfi_offset w19, -32
.Ltmp349:
	.loc	1 1020 7 prologue_end   // kernel/mm/pagecache_manage.c:1020:7
	adrp	x19, pch_info
	ldr	x8, [x19, :lo12:pch_info]
.Ltmp350:
	//DEBUG_VALUE: umounting_fs_register_pch:ret <- 0
	//DEBUG_VALUE: umounting_fs_register_pch:sb <- $x0
	.loc	1 1020 6 is_stmt 0      // kernel/mm/pagecache_manage.c:1020:6
	cbz	x8, .LBB12_5
.Ltmp351:
// %bb.1:
	//DEBUG_VALUE: umounting_fs_register_pch:sb <- $x0
	.loc	1 1027 10 is_stmt 1     // kernel/mm/pagecache_manage.c:1027:10
	ldr	x9, [x0, #96]
	mov	w10, #8208
	movk	w10, #62197, lsl #16
.Ltmp352:
	.loc	1 1027 6 is_stmt 0      // kernel/mm/pagecache_manage.c:1027:6
	cmp	x9, x10
	b.ne	.LBB12_7
.Ltmp353:
// %bb.2:
	//DEBUG_VALUE: umounting_fs_register_pch:sb <- $x0
	.loc	1 118 20 is_stmt 1      // kernel/mm/pagecache_manage.c:118:20
	ldr	w9, [x8, #228]
.Ltmp354:
	.loc	1 1028 7                // kernel/mm/pagecache_manage.c:1028:7
	tbnz	w9, #0, .LBB12_11
.Ltmp355:
// %bb.3:
	//DEBUG_VALUE: umounting_fs_register_pch:sb <- $x0
	.loc	1 1047 4                // kernel/mm/pagecache_manage.c:1047:4
	adrp	x8, g_pch_print_level
	ldr	w8, [x8, :lo12:g_pch_print_level]
.Ltmp356:
	.loc	1 1047 4 is_stmt 0      // kernel/mm/pagecache_manage.c:1047:4
	cmp	w8, #2                  // =2
	b.lo	.LBB12_10
.Ltmp357:
// %bb.4:
	//DEBUG_VALUE: umounting_fs_register_pch:sb <- $x0
	.loc	1 1047 4                // kernel/mm/pagecache_manage.c:1047:4
	adrp	x0, .L.str.8
.Ltmp358:
	add	x0, x0, :lo12:.L.str.8
	b	.LBB12_9
.Ltmp359:
.LBB12_5:
	//DEBUG_VALUE: umounting_fs_register_pch:sb <- $x0
	.loc	1 1021 3 is_stmt 1      // kernel/mm/pagecache_manage.c:1021:3
	adrp	x8, g_pch_print_level
	ldr	w8, [x8, :lo12:g_pch_print_level]
.Ltmp360:
	.loc	1 1021 3 is_stmt 0      // kernel/mm/pagecache_manage.c:1021:3
	cbz	w8, .LBB12_10
.Ltmp361:
// %bb.6:
	//DEBUG_VALUE: umounting_fs_register_pch:sb <- $x0
	.loc	1 1021 3                // kernel/mm/pagecache_manage.c:1021:3
	adrp	x0, .L.str.2
.Ltmp362:
	add	x0, x0, :lo12:.L.str.2
	b	.LBB12_9
.Ltmp363:
.LBB12_7:
	//DEBUG_VALUE: umounting_fs_register_pch:sb <- $x0
	.loc	1 1052 3 is_stmt 1      // kernel/mm/pagecache_manage.c:1052:3
	adrp	x8, g_pch_print_level
	ldr	w8, [x8, :lo12:g_pch_print_level]
.Ltmp364:
	.loc	1 1052 3 is_stmt 0      // kernel/mm/pagecache_manage.c:1052:3
	cmp	w8, #2                  // =2
	b.lo	.LBB12_10
.Ltmp365:
// %bb.8:
	//DEBUG_VALUE: umounting_fs_register_pch:sb <- $x0
	.loc	1 1052 3                // kernel/mm/pagecache_manage.c:1052:3
	adrp	x0, .L.str.4
.Ltmp366:
	add	x0, x0, :lo12:.L.str.4
.Ltmp367:
.LBB12_9:
	.loc	1 0 0                   // kernel/mm/pagecache_manage.c:0:0
	adrp	x1, .L__func__.umounting_fs_register_pch
	add	x1, x1, :lo12:.L__func__.umounting_fs_register_pch
	bl	printk
.LBB12_10:
	.loc	1 1056 1 is_stmt 1      // kernel/mm/pagecache_manage.c:1056:1
	ldp	x29, x30, [sp, #16]     // 16-byte Folded Reload
	ldr	x19, [sp], #32          // 8-byte Folded Reload
	ret
.LBB12_11:
.Ltmp368:
	//DEBUG_VALUE: umounting_fs_register_pch:sb <- $x0
	.loc	1 1032 18               // kernel/mm/pagecache_manage.c:1032:18
	ldr	x10, [x8, #56]
.Ltmp369:
	.loc	1 133 26                // kernel/mm/pagecache_manage.c:133:26
	and	w9, w9, #0xfffffffc
.Ltmp370:
	.loc	1 158 26                // kernel/mm/pagecache_manage.c:158:26
	orr	w9, w9, #0x2
	str	w9, [x8, #228]
.Ltmp371:
	.loc	1 1032 8                // kernel/mm/pagecache_manage.c:1032:8
	cbz	x10, .LBB12_10
.Ltmp372:
// %bb.12:
	//DEBUG_VALUE: umounting_fs_register_pch:sb <- $x0
	.loc	1 1033 31               // kernel/mm/pagecache_manage.c:1033:31
	add	x0, x8, #64             // =64
.Ltmp373:
	.loc	1 1033 5 is_stmt 0      // kernel/mm/pagecache_manage.c:1033:5
	bl	del_timer_sync
	.loc	1 1034 17 is_stmt 1     // kernel/mm/pagecache_manage.c:1034:17
	ldr	x8, [x19, :lo12:pch_info]
	.loc	1 1034 27 is_stmt 0     // kernel/mm/pagecache_manage.c:1034:27
	add	x0, x8, #112            // =112
	.loc	1 1034 5                // kernel/mm/pagecache_manage.c:1034:5
	bl	flush_work
	.loc	1 1036 11 is_stmt 1     // kernel/mm/pagecache_manage.c:1036:11
	ldr	x8, [x19, :lo12:pch_info]
	.loc	1 1036 21 is_stmt 0     // kernel/mm/pagecache_manage.c:1036:21
	add	x0, x8, #144            // =144
	.loc	1 1036 5                // kernel/mm/pagecache_manage.c:1036:5
	bl	down
	.loc	1 1037 43 is_stmt 1     // kernel/mm/pagecache_manage.c:1037:43
	ldr	x0, [x19, :lo12:pch_info]
	.loc	1 1037 11 is_stmt 0     // kernel/mm/pagecache_manage.c:1037:11
	bl	blk_busyidle_event_unsubscribe
.Ltmp374:
	//DEBUG_VALUE: umounting_fs_register_pch:ret <- $w0
	.loc	1 1038 9 is_stmt 1      // kernel/mm/pagecache_manage.c:1038:9
	cbz	w0, .LBB12_14
.Ltmp375:
// %bb.13:
	//DEBUG_VALUE: umounting_fs_register_pch:ret <- $w0
	.loc	1 1039 6                // kernel/mm/pagecache_manage.c:1039:6
	adrp	x0, .L.str.7
.Ltmp376:
	adrp	x1, .L__func__.umounting_fs_register_pch
	add	x0, x0, :lo12:.L.str.7
	add	x1, x1, :lo12:.L__func__.umounting_fs_register_pch
	bl	printk
.Ltmp377:
.LBB12_14:
	.loc	1 0 0 is_stmt 0         // kernel/mm/pagecache_manage.c:0:0
	ldr	x8, [x19, :lo12:pch_info]
	add	x0, x8, #144            // =144
	bl	up
	b	.LBB12_10
.Ltmp378:
.Lfunc_end12:
	.size	umounting_fs_register_pch, .Lfunc_end12-umounting_fs_register_pch
	.cfi_endproc
                                        // -- End function
	.section	.text.umounted_fs_register_pch,"ax",@progbits
	.hidden	umounted_fs_register_pch // -- Begin function umounted_fs_register_pch
	.globl	umounted_fs_register_pch
	.p2align	2
	.type	umounted_fs_register_pch,@function
umounted_fs_register_pch:               // @umounted_fs_register_pch
.Lfunc_begin13:
	.loc	1 1067 0 is_stmt 1      // kernel/mm/pagecache_manage.c:1067:0
	.cfi_startproc
// %bb.0:
	//DEBUG_VALUE: umounted_fs_register_pch:sb <- $x0
	//DEBUG_VALUE: umounted_fs_register_pch:sb <- $x0
	stp	x29, x30, [sp, #-16]!   // 16-byte Folded Spill
	mov	x29, sp
	.cfi_def_cfa w29, 16
	.cfi_offset w30, -8
	.cfi_offset w29, -16
.Ltmp379:
	.loc	1 1068 10 prologue_end  // kernel/mm/pagecache_manage.c:1068:10
	ldr	x8, [x0, #96]
	mov	w9, #8208
	movk	w9, #62197, lsl #16
.Ltmp380:
	.loc	1 1068 6 is_stmt 0      // kernel/mm/pagecache_manage.c:1068:6
	cmp	x8, x9
	b.ne	.LBB13_4
.Ltmp381:
// %bb.1:
	//DEBUG_VALUE: umounted_fs_register_pch:sb <- $x0
	.loc	1 128 10 is_stmt 1      // kernel/mm/pagecache_manage.c:128:10
	adrp	x8, pch_info
	ldr	x8, [x8, :lo12:pch_info]
	.loc	1 128 20 is_stmt 0      // kernel/mm/pagecache_manage.c:128:20
	ldr	w9, [x8, #228]
.Ltmp382:
	.loc	1 1069 7 is_stmt 1      // kernel/mm/pagecache_manage.c:1069:7
	tbnz	w9, #1, .LBB13_8
.Ltmp383:
// %bb.2:
	//DEBUG_VALUE: umounted_fs_register_pch:sb <- $x0
	.loc	1 1073 4                // kernel/mm/pagecache_manage.c:1073:4
	adrp	x8, g_pch_print_level
	ldr	w8, [x8, :lo12:g_pch_print_level]
.Ltmp384:
	.loc	1 1073 4 is_stmt 0      // kernel/mm/pagecache_manage.c:1073:4
	cmp	w8, #2                  // =2
	b.lo	.LBB13_7
.Ltmp385:
// %bb.3:
	//DEBUG_VALUE: umounted_fs_register_pch:sb <- $x0
	.loc	1 1073 4                // kernel/mm/pagecache_manage.c:1073:4
	adrp	x0, .L.str.3
.Ltmp386:
	add	x0, x0, :lo12:.L.str.3
	b	.LBB13_6
.Ltmp387:
.LBB13_4:
	//DEBUG_VALUE: umounted_fs_register_pch:sb <- $x0
	.loc	1 1078 3 is_stmt 1      // kernel/mm/pagecache_manage.c:1078:3
	adrp	x8, g_pch_print_level
	ldr	w8, [x8, :lo12:g_pch_print_level]
.Ltmp388:
	.loc	1 1078 3 is_stmt 0      // kernel/mm/pagecache_manage.c:1078:3
	cmp	w8, #2                  // =2
	b.lo	.LBB13_7
.Ltmp389:
// %bb.5:
	//DEBUG_VALUE: umounted_fs_register_pch:sb <- $x0
	.loc	1 1078 3                // kernel/mm/pagecache_manage.c:1078:3
	adrp	x0, .L.str.4
.Ltmp390:
	add	x0, x0, :lo12:.L.str.4
.Ltmp391:
.LBB13_6:
	.loc	1 0 0                   // kernel/mm/pagecache_manage.c:0:0
	adrp	x1, .L__func__.umounted_fs_register_pch
	add	x1, x1, :lo12:.L__func__.umounted_fs_register_pch
	bl	printk
.Ltmp392:
.LBB13_7:
	.loc	1 1082 1 is_stmt 1      // kernel/mm/pagecache_manage.c:1082:1
	ldp	x29, x30, [sp], #16     // 16-byte Folded Reload
	ret
.LBB13_8:
.Ltmp393:
	//DEBUG_VALUE: umounted_fs_register_pch:sb <- $x0
	.loc	1 143 26                // kernel/mm/pagecache_manage.c:143:26
	and	w9, w9, #0xfffffff9
.Ltmp394:
	.loc	1 153 26                // kernel/mm/pagecache_manage.c:153:26
	orr	w9, w9, #0x4
	str	w9, [x8, #228]
.Ltmp395:
	.loc	1 1082 1                // kernel/mm/pagecache_manage.c:1082:1
	ldp	x29, x30, [sp], #16     // 16-byte Folded Reload
	ret
.Ltmp396:
.Lfunc_end13:
	.size	umounted_fs_register_pch, .Lfunc_end13-umounted_fs_register_pch
	.cfi_endproc
                                        // -- End function
	.section	.text.pch_emui_bootstat_proc_show,"ax",@progbits
	.hidden	pch_emui_bootstat_proc_show // -- Begin function pch_emui_bootstat_proc_show
	.globl	pch_emui_bootstat_proc_show
	.p2align	2
	.type	pch_emui_bootstat_proc_show,@function
pch_emui_bootstat_proc_show:            // @pch_emui_bootstat_proc_show
.Lfunc_begin14:
	.loc	1 1121 0                // kernel/mm/pagecache_manage.c:1121:0
	.cfi_startproc
// %bb.0:
	//DEBUG_VALUE: pch_emui_bootstat_proc_show:m <- $x0
	//DEBUG_VALUE: pch_emui_bootstat_proc_show:v <- $x1
	stp	x29, x30, [sp, #-16]!   // 16-byte Folded Spill
	mov	x29, sp
	.cfi_def_cfa w29, 16
	.cfi_offset w30, -8
	.cfi_offset w29, -16
.Ltmp397:
	.loc	1 1122 24 prologue_end  // kernel/mm/pagecache_manage.c:1122:24
	adrp	x8, pch_info
	ldr	x8, [x8, :lo12:pch_info]
	.loc	1 1122 2 is_stmt 0      // kernel/mm/pagecache_manage.c:1122:2
	adrp	x1, .L.str.9
.Ltmp398:
	add	x1, x1, :lo12:.L.str.9
	//DEBUG_VALUE: pch_emui_bootstat_proc_show:m <- $x0
	.loc	1 1122 34               // kernel/mm/pagecache_manage.c:1122:34
	ldr	w2, [x8, #200]
	//DEBUG_VALUE: pch_emui_bootstat_proc_show:m <- $x0
	.loc	1 1122 2                // kernel/mm/pagecache_manage.c:1122:2
	bl	seq_printf
.Ltmp399:
	.loc	1 1123 2 is_stmt 1      // kernel/mm/pagecache_manage.c:1123:2
	mov	w0, wzr
	ldp	x29, x30, [sp], #16     // 16-byte Folded Reload
	ret
.Ltmp400:
.Lfunc_end14:
	.size	pch_emui_bootstat_proc_show, .Lfunc_end14-pch_emui_bootstat_proc_show
	.cfi_endproc
                                        // -- End function
	.section	.text.pch_emui_bootstat_proc_open,"ax",@progbits
	.hidden	pch_emui_bootstat_proc_open // -- Begin function pch_emui_bootstat_proc_open
	.globl	pch_emui_bootstat_proc_open
	.p2align	2
	.type	pch_emui_bootstat_proc_open,@function
pch_emui_bootstat_proc_open:            // @pch_emui_bootstat_proc_open
.Lfunc_begin15:
	.loc	1 1128 0                // kernel/mm/pagecache_manage.c:1128:0
	.cfi_startproc
// %bb.0:
	//DEBUG_VALUE: pch_emui_bootstat_proc_open:p_inode <- $x0
	//DEBUG_VALUE: pch_emui_bootstat_proc_open:p_file <- $x1
	stp	x29, x30, [sp, #-16]!   // 16-byte Folded Spill
	mov	x29, sp
	.cfi_def_cfa w29, 16
	.cfi_offset w30, -8
	.cfi_offset w29, -16
	mov	x0, x1
.Ltmp401:
	//DEBUG_VALUE: pch_emui_bootstat_proc_open:p_file <- $x0
	.loc	1 1129 9 prologue_end   // kernel/mm/pagecache_manage.c:1129:9
	adrp	x1, __cfi_pch_emui_bootstat_proc_show
	add	x1, x1, :lo12:__cfi_pch_emui_bootstat_proc_show
	//DEBUG_VALUE: pch_emui_bootstat_proc_open:p_file <- $x0
	mov	x2, xzr
	bl	single_open
.Ltmp402:
	.loc	1 1129 2 is_stmt 0      // kernel/mm/pagecache_manage.c:1129:2
	ldp	x29, x30, [sp], #16     // 16-byte Folded Reload
	ret
.Ltmp403:
.Lfunc_end15:
	.size	pch_emui_bootstat_proc_open, .Lfunc_end15-pch_emui_bootstat_proc_open
	.cfi_endproc
                                        // -- End function
	.section	.text.pch_emui_bootstat_proc_write,"ax",@progbits
	.hidden	pch_emui_bootstat_proc_write // -- Begin function pch_emui_bootstat_proc_write
	.globl	pch_emui_bootstat_proc_write
	.p2align	2
	.type	pch_emui_bootstat_proc_write,@function
pch_emui_bootstat_proc_write:           // @pch_emui_bootstat_proc_write
.Lfunc_begin16:
	.loc	1 1134 0 is_stmt 1      // kernel/mm/pagecache_manage.c:1134:0
	.cfi_startproc
// %bb.0:
	//DEBUG_VALUE: pch_emui_bootstat_proc_write:p_file <- $x0
	//DEBUG_VALUE: pch_emui_bootstat_proc_write:userbuf <- $x1
	//DEBUG_VALUE: pch_emui_bootstat_proc_write:count <- $x2
	//DEBUG_VALUE: pch_emui_bootstat_proc_write:ppos <- $x3
	sub	sp, sp, #48             // =48
	stp	x20, x19, [sp, #16]     // 16-byte Folded Spill
	stp	x29, x30, [sp, #32]     // 16-byte Folded Spill
	add	x29, sp, #32            // =32
	.cfi_def_cfa w29, 16
	.cfi_offset w30, -8
	.cfi_offset w29, -16
	.cfi_offset w19, -24
	.cfi_offset w20, -32
	adrp	x8, __stack_chk_guard
	ldr	x8, [x8, :lo12:__stack_chk_guard]
	mov	x0, #-1
.Ltmp404:
	//DEBUG_VALUE: pch_emui_bootstat_proc_write:buf <- [DW_OP_plus_uconst 4, DW_OP_deref] $sp
	//DEBUG_VALUE: pch_emui_bootstat_proc_write:userbuf <- $x1
	str	x8, [sp, #8]
.Ltmp405:
	.loc	1 1138 6 prologue_end   // kernel/mm/pagecache_manage.c:1138:6
	cbz	x1, .LBB16_9
.Ltmp406:
// %bb.1:
	//DEBUG_VALUE: pch_emui_bootstat_proc_write:buf <- [DW_OP_plus_uconst 4, DW_OP_deref] $sp
	//DEBUG_VALUE: pch_emui_bootstat_proc_write:ppos <- $x3
	//DEBUG_VALUE: pch_emui_bootstat_proc_write:count <- $x2
	//DEBUG_VALUE: pch_emui_bootstat_proc_write:userbuf <- $x1
	.loc	1 0 6 is_stmt 0         // kernel/mm/pagecache_manage.c:0:6
	mov	x19, x2
.Ltmp407:
	//DEBUG_VALUE: pch_emui_bootstat_proc_write:count <- $x19
	.loc	1 1138 6                // kernel/mm/pagecache_manage.c:1138:6
	cbz	x2, .LBB16_9
.Ltmp408:
// %bb.2:
	//DEBUG_VALUE: pch_emui_bootstat_proc_write:count <- $x19
	//DEBUG_VALUE: pch_emui_bootstat_proc_write:buf <- [DW_OP_plus_uconst 4, DW_OP_deref] $sp
	//DEBUG_VALUE: pch_emui_bootstat_proc_write:ppos <- $x3
	//DEBUG_VALUE: pch_emui_bootstat_proc_write:userbuf <- $x1
	.loc	1 0 0                   // kernel/mm/pagecache_manage.c:0:0
	adrp	x20, pch_info
	ldr	x8, [x20, :lo12:pch_info]
	ldr	w8, [x8, #200]
	.loc	1 1138 6                // kernel/mm/pagecache_manage.c:1138:6
	cmp	w8, #1                  // =1
	b.eq	.LBB16_9
.Ltmp409:
// %bb.3:
	//DEBUG_VALUE: pch_emui_bootstat_proc_write:count <- $x19
	//DEBUG_VALUE: pch_emui_bootstat_proc_write:buf <- [DW_OP_plus_uconst 4, DW_OP_deref] $sp
	//DEBUG_VALUE: pch_emui_bootstat_proc_write:ppos <- $x3
	//DEBUG_VALUE: pch_emui_bootstat_proc_write:userbuf <- $x1
	//DEBUG_VALUE: pch_emui_bootstat_proc_write:buf <- [DW_OP_plus_uconst 4, DW_OP_deref] $sp
	//DEBUG_VALUE: copy_from_user:to <- [DW_OP_plus_uconst 4] $sp
	//DEBUG_VALUE: copy_from_user:from <- $x1
	//DEBUG_VALUE: copy_from_user:n <- 1
	//DEBUG_VALUE: _copy_from_user:to <- [DW_OP_plus_uconst 4] $sp
	//DEBUG_VALUE: _copy_from_user:from <- $x1
	//DEBUG_VALUE: _copy_from_user:n <- 1
	//DEBUG_VALUE: _copy_from_user:res <- 1
	//DEBUG_VALUE: __range_ok:addr <- $x1
	//DEBUG_VALUE: __range_ok:size <- 1
	.file	159 "/mnt/disk/jenkins/ci/workspace/chipset_pipeline_release/opensource/component_code/vendor/huawei/extra/build/build_script/kirin_kernel_release/kernel/arch/arm64/include/asm/current.h"
	.loc	159 19 2 is_stmt 1      // kernel/arch/arm64/include/asm/current.h:19:2
	//APP
	mrs x8, sp_el0
	//NO_APP
.Ltmp410:
	//DEBUG_VALUE: get_current:sp_el0 <- $x8
	//DEBUG_VALUE: get_current:sp_el0 <- $x8
	.file	160 "/mnt/disk/jenkins/ci/workspace/chipset_pipeline_release/opensource/component_code/vendor/huawei/extra/build/build_script/kirin_kernel_release/kernel/arch/arm64/include/asm/uaccess.h"
	.loc	160 84 24               // kernel/arch/arm64/include/asm/uaccess.h:84:24
	ldr	x9, [x8, #8]
.Ltmp411:
	//DEBUG_VALUE: __range_ok:limit <- $x9
	.loc	160 87 2                // kernel/arch/arm64/include/asm/uaccess.h:87:2
	mov	x10, x1
	//APP
		adds	x10, x10, #1
	csel	x9, xzr, x9, hi
	csinv	x10, x10, xzr, cc
	sbcs	xzr, x10, x9
	cset	x10, ls

	//NO_APP
.Ltmp412:
	//DEBUG_VALUE: __range_ok:limit <- undef
	//DEBUG_VALUE: __range_ok:addr <- $x10
	.file	161 "/mnt/disk/jenkins/ci/workspace/chipset_pipeline_release/opensource/component_code/vendor/huawei/extra/build/build_script/kirin_kernel_release/kernel/include/linux/uaccess.h"
	.loc	161 114 6               // kernel/include/linux/uaccess.h:114:6
	cbz	x10, .LBB16_11
.Ltmp413:
// %bb.4:
	//DEBUG_VALUE: _copy_from_user:from <- $x1
	//DEBUG_VALUE: _copy_from_user:to <- [DW_OP_plus_uconst 4] $sp
	//DEBUG_VALUE: copy_from_user:from <- $x1
	//DEBUG_VALUE: copy_from_user:to <- [DW_OP_plus_uconst 4] $sp
	//DEBUG_VALUE: pch_emui_bootstat_proc_write:count <- $x19
	//DEBUG_VALUE: pch_emui_bootstat_proc_write:buf <- [DW_OP_plus_uconst 4, DW_OP_deref] $sp
	//DEBUG_VALUE: pch_emui_bootstat_proc_write:ppos <- $x3
	//DEBUG_VALUE: pch_emui_bootstat_proc_write:userbuf <- $x1
	//DEBUG_VALUE: __uaccess_mask_ptr:ptr <- $x1
	.loc	160 238 20              // kernel/arch/arm64/include/asm/uaccess.h:238:20
	ldr	x9, [x8, #8]
	.loc	160 234 2               // kernel/arch/arm64/include/asm/uaccess.h:234:2
	//APP
		bics	xzr, x1, x9
	csel	x8, x1, xzr, eq

	//NO_APP
.Ltmp414:
	//DEBUG_VALUE: __uaccess_mask_ptr:safe_ptr <- $x8
	.loc	160 241 2               // kernel/arch/arm64/include/asm/uaccess.h:241:2
	//APP
	hint #20
	//NO_APP
.Ltmp415:
	.loc	161 116 9               // kernel/include/linux/uaccess.h:116:9
	add	x0, sp, #4              // =4
	orr	w2, wzr, #0x1
	mov	x1, x8
.Ltmp416:
	bl	__arch_copy_from_user
.Ltmp417:
	.loc	161 118 6               // kernel/include/linux/uaccess.h:118:6
	cbnz	x0, .LBB16_12
.Ltmp418:
// %bb.5:
	//DEBUG_VALUE: copy_from_user:to <- [DW_OP_plus_uconst 4] $sp
	//DEBUG_VALUE: pch_emui_bootstat_proc_write:count <- $x19
	//DEBUG_VALUE: pch_emui_bootstat_proc_write:buf <- [DW_OP_plus_uconst 4, DW_OP_deref] $sp
	//DEBUG_VALUE: copy_from_user:n <- 0
	.loc	1 1150 13               // kernel/mm/pagecache_manage.c:1150:13
	ldrb	w8, [sp, #4]
.Ltmp419:
	//DEBUG_VALUE: pch_emui_bootstat_proc_write:getvalue <- [DW_OP_constu 48, DW_OP_minus, DW_OP_stack_value] $w8
	//DEBUG_VALUE: pch_emui_bootstat_proc_write:buf <- $w8
	.loc	1 1152 6                // kernel/mm/pagecache_manage.c:1152:6
	cmp	w8, #49                 // =49
	b.ne	.LBB16_7
.Ltmp420:
// %bb.6:
	//DEBUG_VALUE: pch_emui_bootstat_proc_write:buf <- $w8
	//DEBUG_VALUE: pch_emui_bootstat_proc_write:getvalue <- [DW_OP_constu 48, DW_OP_minus, DW_OP_stack_value] $w8
	//DEBUG_VALUE: pch_emui_bootstat_proc_write:count <- $x19
	.loc	1 1157 2                // kernel/mm/pagecache_manage.c:1157:2
	ldr	x8, [x20, :lo12:pch_info]
.Ltmp421:
	.loc	1 0 2 is_stmt 0         // kernel/mm/pagecache_manage.c:0:2
	orr	w9, wzr, #0x1
	mov	x0, x19
	.loc	1 1157 24               // kernel/mm/pagecache_manage.c:1157:24
	str	w9, [x8, #200]
	b	.LBB16_9
.Ltmp422:
.LBB16_7:
	//DEBUG_VALUE: pch_emui_bootstat_proc_write:buf <- $w8
	//DEBUG_VALUE: pch_emui_bootstat_proc_write:getvalue <- [DW_OP_constu 48, DW_OP_minus, DW_OP_stack_value] $w8
	//DEBUG_VALUE: pch_emui_bootstat_proc_write:count <- $x19
	.loc	1 1153 3 is_stmt 1      // kernel/mm/pagecache_manage.c:1153:3
	adrp	x0, .L.str.10
	adrp	x1, .L__func__.pch_emui_bootstat_proc_write
	add	x0, x0, :lo12:.L.str.10
	add	x1, x1, :lo12:.L__func__.pch_emui_bootstat_proc_write
	bl	printk
.Ltmp423:
.LBB16_8:
	//DEBUG_VALUE: pch_emui_bootstat_proc_write:count <- $x19
	.loc	1 0 3 is_stmt 0         // kernel/mm/pagecache_manage.c:0:3
	mov	x0, #-1
.Ltmp424:
.LBB16_9:
	//DEBUG_VALUE: pch_emui_bootstat_proc_write:buf <- [DW_OP_plus_uconst 4, DW_OP_deref] $sp
	adrp	x9, __stack_chk_guard
	ldr	x8, [sp, #8]
	ldr	x9, [x9, :lo12:__stack_chk_guard]
	cmp	x9, x8
	b.ne	.LBB16_14
.Ltmp425:
// %bb.10:
	//DEBUG_VALUE: pch_emui_bootstat_proc_write:buf <- [DW_OP_plus_uconst 4, DW_OP_deref] $sp
	.loc	1 1161 1 is_stmt 1      // kernel/mm/pagecache_manage.c:1161:1
	ldp	x29, x30, [sp, #32]     // 16-byte Folded Reload
	ldp	x20, x19, [sp, #16]     // 16-byte Folded Reload
	add	sp, sp, #48             // =48
.Ltmp426:
	ret
.LBB16_11:
.Ltmp427:
	//DEBUG_VALUE: __range_ok:addr <- $x10
	//DEBUG_VALUE: get_current:sp_el0 <- $x8
	//DEBUG_VALUE: get_current:sp_el0 <- $x8
	//DEBUG_VALUE: _copy_from_user:from <- $x1
	//DEBUG_VALUE: _copy_from_user:to <- [DW_OP_plus_uconst 4] $sp
	//DEBUG_VALUE: copy_from_user:from <- $x1
	//DEBUG_VALUE: copy_from_user:to <- [DW_OP_plus_uconst 4] $sp
	//DEBUG_VALUE: pch_emui_bootstat_proc_write:count <- $x19
	//DEBUG_VALUE: pch_emui_bootstat_proc_write:buf <- [DW_OP_plus_uconst 4, DW_OP_deref] $sp
	//DEBUG_VALUE: pch_emui_bootstat_proc_write:ppos <- $x3
	//DEBUG_VALUE: pch_emui_bootstat_proc_write:userbuf <- $x1
	.loc	1 0 1 is_stmt 0         // kernel/mm/pagecache_manage.c:0:1
	orr	w2, wzr, #0x1
	b	.LBB16_13
.Ltmp428:
.LBB16_12:
	//DEBUG_VALUE: _copy_from_user:to <- [DW_OP_plus_uconst 4] $sp
	//DEBUG_VALUE: copy_from_user:to <- [DW_OP_plus_uconst 4] $sp
	//DEBUG_VALUE: pch_emui_bootstat_proc_write:count <- $x19
	//DEBUG_VALUE: pch_emui_bootstat_proc_write:buf <- [DW_OP_plus_uconst 4, DW_OP_deref] $sp
	mov	x2, x0
.Ltmp429:
	//DEBUG_VALUE: _copy_from_user:res <- $x2
.LBB16_13:
	//DEBUG_VALUE: _copy_from_user:to <- [DW_OP_plus_uconst 4] $sp
	//DEBUG_VALUE: copy_from_user:to <- [DW_OP_plus_uconst 4] $sp
	//DEBUG_VALUE: pch_emui_bootstat_proc_write:count <- $x19
	//DEBUG_VALUE: pch_emui_bootstat_proc_write:buf <- [DW_OP_plus_uconst 4, DW_OP_deref] $sp
	orr	w8, wzr, #0x1
.Ltmp430:
	.loc	161 119 18 is_stmt 1    // kernel/include/linux/uaccess.h:119:18
	sub	x8, x8, x2
	add	x9, sp, #4              // =4
	.loc	161 119 13 is_stmt 0    // kernel/include/linux/uaccess.h:119:13
	add	x0, x9, x8
	.loc	161 119 3               // kernel/include/linux/uaccess.h:119:3
	mov	w1, wzr
	bl	memset
	b	.LBB16_8
.Ltmp431:
.LBB16_14:
	//DEBUG_VALUE: pch_emui_bootstat_proc_write:buf <- [DW_OP_plus_uconst 4, DW_OP_deref] $sp
	.loc	161 0 3                 // kernel/include/linux/uaccess.h:0:3
	bl	__stack_chk_fail
.Lfunc_end16:
	.size	pch_emui_bootstat_proc_write, .Lfunc_end16-pch_emui_bootstat_proc_write
	.cfi_endproc
                                        // -- End function
	.section	.init.text,"ax",@progbits
	.hidden	hisi_page_cache_manage_init // -- Begin function hisi_page_cache_manage_init
	.globl	hisi_page_cache_manage_init
	.p2align	2
	.type	hisi_page_cache_manage_init,@function
hisi_page_cache_manage_init:            // @hisi_page_cache_manage_init
.Lfunc_begin17:
	.loc	1 1192 0 is_stmt 1      // kernel/mm/pagecache_manage.c:1192:0
	.cfi_startproc
// %bb.0:
	stp	x20, x19, [sp, #-32]!   // 16-byte Folded Spill
	stp	x29, x30, [sp, #16]     // 16-byte Folded Spill
	add	x29, sp, #16            // =16
	.cfi_def_cfa w29, 16
	.cfi_offset w30, -8
	.cfi_offset w29, -16
	.cfi_offset w19, -24
	.cfi_offset w20, -32
.Ltmp432:
	//DEBUG_VALUE: hisi_page_cache_manage_init:ret <- 0
	.loc	1 1201 2 prologue_end   // kernel/mm/pagecache_manage.c:1201:2
	adrp	x19, g_pch_print_level
	ldr	w8, [x19, :lo12:g_pch_print_level]
.Ltmp433:
	.loc	1 1201 2 is_stmt 0      // kernel/mm/pagecache_manage.c:1201:2
	cmp	w8, #2                  // =2
	b.lo	.LBB17_2
// %bb.1:
.Ltmp434:
	.loc	1 1201 2                // kernel/mm/pagecache_manage.c:1201:2
	adrp	x0, .L.str.11
	adrp	x1, .L__func__.hisi_page_cache_manage_init
	add	x0, x0, :lo12:.L.str.11
	add	x1, x1, :lo12:.L__func__.hisi_page_cache_manage_init
	bl	printk
.Ltmp435:
.LBB17_2:
	//DEBUG_VALUE: kzalloc:size <- 232
	//DEBUG_VALUE: kzalloc:flags <- 20971712
	//DEBUG_VALUE: kmalloc:size <- 232
	//DEBUG_VALUE: kmalloc:flags <- 21004480
	//DEBUG_VALUE: index <- 8
	.loc	150 539 5 is_stmt 1     // kernel/include/linux/slab.h:539:5
	adrp	x8, kmalloc_caches+64
	ldr	x0, [x8, :lo12:kmalloc_caches+64]
	.loc	150 538 10              // kernel/include/linux/slab.h:538:10
	mov	w1, #32960
	movk	w1, #320, lsl #16
	mov	w2, #232
	bl	kmem_cache_alloc_trace
.Ltmp436:
	.loc	1 1203 11               // kernel/mm/pagecache_manage.c:1203:11
	adrp	x20, pch_info
	str	x0, [x20, :lo12:pch_info]
	.loc	1 1204 6                // kernel/mm/pagecache_manage.c:1204:6
	cbz	x0, .LBB17_6
// %bb.3:
	.loc	1 0 6 is_stmt 0         // kernel/mm/pagecache_manage.c:0:6
	mov	x9, #16
	orr	w8, wzr, #0x1
	movk	x9, #8, lsl #32
	.loc	1 1207 24 is_stmt 1     // kernel/mm/pagecache_manage.c:1207:24
	str	w8, [x0, #200]
	.loc	1 1209 31               // kernel/mm/pagecache_manage.c:1209:31
	stp	x9, x8, [x0, #216]
	.loc	1 1212 21               // kernel/mm/pagecache_manage.c:1212:21
	bl	get_bootdevice_type
.Ltmp437:
	//DEBUG_VALUE: hisi_page_cache_manage_init:boot_device_type <- $w0
	.loc	1 1213 6                // kernel/mm/pagecache_manage.c:1213:6
	cbz	w0, .LBB17_7
.Ltmp438:
// %bb.4:
	//DEBUG_VALUE: hisi_page_cache_manage_init:boot_device_type <- $w0
	cmp	w0, #1                  // =1
	b.ne	.LBB17_10
.Ltmp439:
// %bb.5:
	//DEBUG_VALUE: hisi_page_cache_manage_init:boot_device_type <- $w0
	.loc	1 0 6 is_stmt 0         // kernel/mm/pagecache_manage.c:0:6
	orr	w8, wzr, #0x10
	b	.LBB17_8
.Ltmp440:
.LBB17_6:
	mov	w0, #-12
	b	.LBB17_14
.LBB17_7:
.Ltmp441:
	//DEBUG_VALUE: hisi_page_cache_manage_init:boot_device_type <- $w0
	orr	w8, wzr, #0x8
.Ltmp442:
.LBB17_8:
	//DEBUG_VALUE: hisi_page_cache_manage_init:boot_device_type <- $w0
	ldr	x9, [x20, :lo12:pch_info]
.Ltmp443:
	.loc	1 1173 7 is_stmt 1      // kernel/mm/pagecache_manage.c:1173:7
	mov	x1, xzr
.Ltmp444:
	.loc	1 0 0 is_stmt 0         // kernel/mm/pagecache_manage.c:0:0
	str	w0, [x9, #204]
.Ltmp445:
	.loc	1 1173 7                // kernel/mm/pagecache_manage.c:1173:7
	adrp	x0, .L.str.16
.Ltmp446:
	add	x0, x0, :lo12:.L.str.16
.Ltmp447:
	.loc	1 0 0                   // kernel/mm/pagecache_manage.c:0:0
	stp	w8, w8, [x9, #208]
.Ltmp448:
	.loc	1 1173 7                // kernel/mm/pagecache_manage.c:1173:7
	bl	proc_mkdir
.Ltmp449:
	.loc	1 1173 6                // kernel/mm/pagecache_manage.c:1173:6
	cbz	x0, .LBB17_11
// %bb.9:
	.loc	1 1178 2 is_stmt 1      // kernel/mm/pagecache_manage.c:1178:2
	adrp	x0, .L.str.15
	adrp	x3, pch_emui_boot_done_fops
	add	x0, x0, :lo12:.L.str.15
	add	x3, x3, :lo12:pch_emui_boot_done_fops
	mov	w1, #432
	mov	x2, xzr
	bl	proc_create
	b	.LBB17_12
.Ltmp450:
.LBB17_10:
	//DEBUG_VALUE: hisi_page_cache_manage_init:boot_device_type <- $w0
	.loc	1 1222 3                // kernel/mm/pagecache_manage.c:1222:3
	adrp	x0, .L.str.12
.Ltmp451:
	adrp	x1, .L__func__.hisi_page_cache_manage_init
	add	x0, x0, :lo12:.L.str.12
	add	x1, x1, :lo12:.L__func__.hisi_page_cache_manage_init
	bl	printk
.Ltmp452:
	//DEBUG_LABEL: hisi_page_cache_manage_init:pch_kfree
	//DEBUG_VALUE: hisi_page_cache_manage_init:ret <- -1
	.loc	1 1292 8                // kernel/mm/pagecache_manage.c:1292:8
	ldr	x0, [x20, :lo12:pch_info]
	.loc	1 1292 2 is_stmt 0      // kernel/mm/pagecache_manage.c:1292:2
	bl	kfree
	.loc	1 1293 11 is_stmt 1     // kernel/mm/pagecache_manage.c:1293:11
	str	xzr, [x20, :lo12:pch_info]
	mov	w0, #-1
	b	.LBB17_14
.LBB17_11:
.Ltmp453:
	.loc	1 1174 3                // kernel/mm/pagecache_manage.c:1174:3
	adrp	x0, .L.str.22
	adrp	x1, .L__func__.pch_emui_boot_check_init
	add	x0, x0, :lo12:.L.str.22
	add	x1, x1, :lo12:.L__func__.pch_emui_boot_check_init
	bl	printk
.Ltmp454:
.LBB17_12:
	.loc	1 1271 2                // kernel/mm/pagecache_manage.c:1271:2
	ldr	x8, [x20, :lo12:pch_info]
	mov	w1, wzr
	mov	x2, xzr
	mov	x3, xzr
	add	x0, x8, #64             // =64
	bl	init_timer_key
	ldr	x8, [x20, :lo12:pch_info]
	adrp	x9, __cfi_pch_timeout_timer
	add	x9, x9, :lo12:__cfi_pch_timeout_timer
	mov	x10, #68719476704
	stp	x9, x8, [x8, #88]
.Ltmp455:
	.loc	1 1274 2                // kernel/mm/pagecache_manage.c:1274:2
	add	x9, x8, #120            // =120
.Ltmp456:
	//DEBUG_VALUE: __write_once_size:p <- $x9
	//DEBUG_VALUE: __write_once_size:size <- 8
	//DEBUG_VALUE: __write_once_size:res <- undef
	//DEBUG_VALUE: INIT_LIST_HEAD:list <- $x9
	str	x10, [x8, #112]
.Ltmp457:
	.loc	151 210 31              // kernel/include/linux/compiler.h:210:31
	str	x9, [x8, #120]
	orr	w10, wzr, #0x1
.Ltmp458:
	.loc	1 1274 2                // kernel/mm/pagecache_manage.c:1274:2
	adrp	x11, __cfi_pch_timeout_work
.Ltmp459:
	.loc	146 35 9                // kernel/include/linux/semaphore.h:35:9
	str	w10, [x8, #168]
.Ltmp460:
	.loc	1 153 26                // kernel/mm/pagecache_manage.c:153:26
	ldr	w10, [x8, #228]
.Ltmp461:
	.loc	1 1274 2                // kernel/mm/pagecache_manage.c:1274:2
	add	x11, x11, :lo12:__cfi_pch_timeout_work
.Ltmp462:
	.loc	154 29 13               // kernel/include/linux/list.h:29:13
	stp	x9, x11, [x8, #128]
	mov	x9, #-1
.Ltmp463:
	//DEBUG_VALUE: sema_init:val <- 1
	//DEBUG_VALUE: sema_init:sem <- [DW_OP_plus_uconst 144, DW_OP_stack_value] $x8
	.loc	154 0 13 is_stmt 0      // kernel/include/linux/list.h:0:13
	mov	x12, #-45395
.Ltmp464:
	.loc	146 35 9 is_stmt 1      // kernel/include/linux/semaphore.h:35:9
	str	x9, [x8, #160]
	.loc	146 35 28 is_stmt 0     // kernel/include/linux/semaphore.h:35:28
	add	x9, x8, #176            // =176
	movk	x12, #57005, lsl #16
	.loc	146 35 9                // kernel/include/linux/semaphore.h:35:9
	stp	x9, x9, [x8, #176]
.Ltmp465:
	.loc	1 153 26 is_stmt 1      // kernel/mm/pagecache_manage.c:153:26
	orr	w9, w10, #0x4
.Ltmp466:
	.loc	146 35 9                // kernel/include/linux/semaphore.h:35:9
	stur	x12, [x8, #148]
	str	wzr, [x8, #144]
.Ltmp467:
	//DEBUG_VALUE: sema_init:val <- 1
	//DEBUG_VALUE: sema_init:sem <- [DW_OP_plus_uconst 144, DW_OP_stack_value] $x8
	.loc	1 153 26                // kernel/mm/pagecache_manage.c:153:26
	str	w9, [x8, #228]
.Ltmp468:
	.loc	1 1279 2                // kernel/mm/pagecache_manage.c:1279:2
	ldr	w8, [x19, :lo12:g_pch_print_level]
.Ltmp469:
	.loc	1 0 0 is_stmt 0         // kernel/mm/pagecache_manage.c:0:0
	mov	w0, wzr
.Ltmp470:
	.loc	1 1279 2                // kernel/mm/pagecache_manage.c:1279:2
	cmp	w8, #2                  // =2
	b.lo	.LBB17_14
// %bb.13:
.Ltmp471:
	.loc	1 1279 2                // kernel/mm/pagecache_manage.c:1279:2
	adrp	x0, .L.str.13
	adrp	x1, .L__func__.hisi_page_cache_manage_init
	add	x0, x0, :lo12:.L.str.13
	add	x1, x1, :lo12:.L__func__.hisi_page_cache_manage_init
	bl	printk
.Ltmp472:
	.loc	1 0 0                   // kernel/mm/pagecache_manage.c:0:0
	mov	w0, wzr
.LBB17_14:
	.loc	1 1296 1 is_stmt 1      // kernel/mm/pagecache_manage.c:1296:1
	ldp	x29, x30, [sp, #16]     // 16-byte Folded Reload
	ldp	x20, x19, [sp], #32     // 16-byte Folded Reload
	ret
.Ltmp473:
.Lfunc_end17:
	.size	hisi_page_cache_manage_init, .Lfunc_end17-hisi_page_cache_manage_init
	.cfi_endproc
                                        // -- End function
	.section	.exit.text,"ax",@progbits
	.hidden	hisi_page_cache_manage_exit // -- Begin function hisi_page_cache_manage_exit
	.globl	hisi_page_cache_manage_exit
	.p2align	2
	.type	hisi_page_cache_manage_exit,@function
hisi_page_cache_manage_exit:            // @hisi_page_cache_manage_exit
.Lfunc_begin18:
	.loc	1 1307 0                // kernel/mm/pagecache_manage.c:1307:0
	.cfi_startproc
// %bb.0:
	stp	x20, x19, [sp, #-32]!   // 16-byte Folded Spill
	stp	x29, x30, [sp, #16]     // 16-byte Folded Spill
	add	x29, sp, #16            // =16
	.cfi_def_cfa w29, 16
	.cfi_offset w30, -8
	.cfi_offset w29, -16
	.cfi_offset w19, -24
	.cfi_offset w20, -32
.Ltmp474:
	.loc	1 1308 2 prologue_end   // kernel/mm/pagecache_manage.c:1308:2
	adrp	x19, g_pch_print_level
	ldr	w8, [x19, :lo12:g_pch_print_level]
.Ltmp475:
	.loc	1 1308 2 is_stmt 0      // kernel/mm/pagecache_manage.c:1308:2
	cmp	w8, #2                  // =2
	b.lo	.LBB18_2
// %bb.1:
.Ltmp476:
	.loc	1 1308 2                // kernel/mm/pagecache_manage.c:1308:2
	adrp	x0, .L.str.14
	adrp	x1, .L__func__.hisi_page_cache_manage_exit
	add	x0, x0, :lo12:.L.str.14
	add	x1, x1, :lo12:.L__func__.hisi_page_cache_manage_exit
	bl	printk
.Ltmp477:
.LBB18_2:
	.loc	1 1310 2 is_stmt 1      // kernel/mm/pagecache_manage.c:1310:2
	adrp	x0, .L.str.15
	add	x0, x0, :lo12:.L.str.15
	mov	x1, xzr
	bl	remove_proc_entry
	.loc	1 1311 2                // kernel/mm/pagecache_manage.c:1311:2
	adrp	x0, .L.str.16
	add	x0, x0, :lo12:.L.str.16
	mov	x1, xzr
	bl	remove_proc_entry
	.loc	1 1316 8                // kernel/mm/pagecache_manage.c:1316:8
	adrp	x20, pch_info
	ldr	x0, [x20, :lo12:pch_info]
	.loc	1 1316 2 is_stmt 0      // kernel/mm/pagecache_manage.c:1316:2
	bl	kfree
.Ltmp478:
	.loc	1 1318 2 is_stmt 1      // kernel/mm/pagecache_manage.c:1318:2
	ldr	w8, [x19, :lo12:g_pch_print_level]
.Ltmp479:
	.loc	1 1317 11               // kernel/mm/pagecache_manage.c:1317:11
	str	xzr, [x20, :lo12:pch_info]
.Ltmp480:
	.loc	1 1318 2                // kernel/mm/pagecache_manage.c:1318:2
	cmp	w8, #2                  // =2
	b.lo	.LBB18_4
// %bb.3:
.Ltmp481:
	.loc	1 1318 2 is_stmt 0      // kernel/mm/pagecache_manage.c:1318:2
	adrp	x0, .L.str.17
	adrp	x1, .L__func__.hisi_page_cache_manage_exit
	add	x0, x0, :lo12:.L.str.17
	add	x1, x1, :lo12:.L__func__.hisi_page_cache_manage_exit
	bl	printk
.Ltmp482:
.LBB18_4:
	.loc	1 1319 1 is_stmt 1      // kernel/mm/pagecache_manage.c:1319:1
	ldp	x29, x30, [sp, #16]     // 16-byte Folded Reload
	ldp	x20, x19, [sp], #32     // 16-byte Folded Reload
	ret
.Ltmp483:
.Lfunc_end18:
	.size	hisi_page_cache_manage_exit, .Lfunc_end18-hisi_page_cache_manage_exit
	.cfi_endproc
                                        // -- End function
	.hidden	g_pch_print_level       // @g_pch_print_level
	.type	g_pch_print_level,@object
	.section	.bss.g_pch_print_level,"aw",@nobits
	.globl	g_pch_print_level
	.p2align	2
g_pch_print_level:
	.word	0                       // 0x0
	.size	g_pch_print_level, 4

	.type	pch_info,@object        // @pch_info
	.section	.bss.pch_info,"aw",@nobits
	.p2align	3
pch_info:
	.xword	0
	.size	pch_info, 8

	.type	.L.str.1,@object        // @.str.1
	.section	.rodata.str1.1,"aMS",@progbits,1
.L.str.1:
	.asciz	"\0013%s: err userdata_state = %d.\n"
	.size	.L.str.1, 32

	.type	.L__func__.pch_timeout_work,@object // @__func__.pch_timeout_work
.L__func__.pch_timeout_work:
	.asciz	"pch_timeout_work"
	.size	.L__func__.pch_timeout_work, 17

	.type	.L.str.2,@object        // @.str.2
.L.str.2:
	.asciz	"\0013%s: lack of pch_info, return.\n"
	.size	.L.str.2, 33

	.type	.L__func__.mount_fs_register_pch,@object // @__func__.mount_fs_register_pch
.L__func__.mount_fs_register_pch:
	.asciz	"mount_fs_register_pch"
	.size	.L__func__.mount_fs_register_pch, 22

	.type	.L.str.3,@object        // @.str.3
.L.str.3:
	.asciz	"\0013%s: data remount, return.\n"
	.size	.L.str.3, 29

	.type	.L.str.4,@object        // @.str.4
.L.str.4:
	.asciz	"\0013%s: other partitions, return.\n"
	.size	.L.str.4, 33

	.type	.L.str.5,@object        // @.str.5
.L.str.5:
	.asciz	"pagecache_helper"
	.size	.L.str.5, 17

	.type	.L.str.6,@object        // @.str.6
.L.str.6:
	.asciz	"\0013%s: blk busy/idle init failed.\n"
	.size	.L.str.6, 34

	.type	.L__func__.umounting_fs_register_pch,@object // @__func__.umounting_fs_register_pch
.L__func__.umounting_fs_register_pch:
	.asciz	"umounting_fs_register_pch"
	.size	.L__func__.umounting_fs_register_pch, 26

	.type	.L.str.7,@object        // @.str.7
.L.str.7:
	.asciz	"\0013%s: blk busy/idle clear failed.\n"
	.size	.L.str.7, 35

	.type	.L.str.8,@object        // @.str.8
.L.str.8:
	.asciz	"\0013%s: data re-umount, return.\n"
	.size	.L.str.8, 31

	.type	.L__func__.umounted_fs_register_pch,@object // @__func__.umounted_fs_register_pch
.L__func__.umounted_fs_register_pch:
	.asciz	"umounted_fs_register_pch"
	.size	.L__func__.umounted_fs_register_pch, 25

	.type	.L.str.9,@object        // @.str.9
.L.str.9:
	.asciz	"%d\n"
	.size	.L.str.9, 4

	.type	.L.str.10,@object       // @.str.10
.L.str.10:
	.asciz	"\0013%s: input error.\n"
	.size	.L.str.10, 20

	.type	.L__func__.pch_emui_bootstat_proc_write,@object // @__func__.pch_emui_bootstat_proc_write
.L__func__.pch_emui_bootstat_proc_write:
	.asciz	"pch_emui_bootstat_proc_write"
	.size	.L__func__.pch_emui_bootstat_proc_write, 29

	.type	.L.str.11,@object       // @.str.11
.L.str.11:
	.asciz	"\0013%s: module init ++.\n"
	.size	.L.str.11, 23

	.type	.L__func__.hisi_page_cache_manage_init,@object // @__func__.hisi_page_cache_manage_init
.L__func__.hisi_page_cache_manage_init:
	.asciz	"hisi_page_cache_manage_init"
	.size	.L__func__.hisi_page_cache_manage_init, 28

	.type	.L.str.12,@object       // @.str.12
.L.str.12:
	.asciz	"\0013%s: device not supported.\n"
	.size	.L.str.12, 29

	.type	.L.str.13,@object       // @.str.13
.L.str.13:
	.asciz	"\0013%s: module init --.\n"
	.size	.L.str.13, 23

	.type	.L.str.14,@object       // @.str.14
.L.str.14:
	.asciz	"\0013%s: module exit ++.\n"
	.size	.L.str.14, 23

	.type	.L__func__.hisi_page_cache_manage_exit,@object // @__func__.hisi_page_cache_manage_exit
.L__func__.hisi_page_cache_manage_exit:
	.asciz	"hisi_page_cache_manage_exit"
	.size	.L__func__.hisi_page_cache_manage_exit, 28

	.type	.L.str.15,@object       // @.str.15
.L.str.15:
	.asciz	"pch_status/pch_enabled"
	.size	.L.str.15, 23

	.type	.L.str.16,@object       // @.str.16
.L.str.16:
	.asciz	"pch_status"
	.size	.L.str.16, 11

	.type	.L.str.17,@object       // @.str.17
.L.str.17:
	.asciz	"\0013%s: module exit --.\n"
	.size	.L.str.17, 23

	.type	__initcall_66___cfi_hisi_page_cache_manage_init6,@object // @__initcall_66___cfi_hisi_page_cache_manage_init6
	.section	.initcall6.init,"aw",@progbits
	.p2align	3
__initcall_66___cfi_hisi_page_cache_manage_init6:
	.xword	__cfi_hisi_page_cache_manage_init
	.size	__initcall_66___cfi_hisi_page_cache_manage_init6, 8

	.type	__exitcall___cfi_hisi_page_cache_manage_exit,@object // @__exitcall___cfi_hisi_page_cache_manage_exit
	.section	.exitcall.exit,"aw",@progbits
	.p2align	3
__exitcall___cfi_hisi_page_cache_manage_exit:
	.xword	__cfi_hisi_page_cache_manage_exit
	.size	__exitcall___cfi_hisi_page_cache_manage_exit, 8

	.type	.L.str.20,@object       // @.str.20
	.section	.rodata.str1.1,"aMS",@progbits,1
.L.str.20:
	.asciz	"/data"
	.size	.L.str.20, 6

	.type	.L.str.22,@object       // @.str.22
.L.str.22:
	.asciz	"\0013%s: proc mk error.\n"
	.size	.L.str.22, 22

	.type	.L__func__.pch_emui_boot_check_init,@object // @__func__.pch_emui_boot_check_init
.L__func__.pch_emui_boot_check_init:
	.asciz	"pch_emui_boot_check_init"
	.size	.L__func__.pch_emui_boot_check_init, 25

	.type	pch_emui_boot_done_fops,@object // @pch_emui_boot_done_fops
	.section	.rodata.pch_emui_boot_done_fops,"a",@progbits
	.p2align	3
pch_emui_boot_done_fops:
	.xword	0
	.xword	seq_lseek
	.xword	seq_read
	.xword	__cfi_pch_emui_bootstat_proc_write
	.xword	0
	.xword	0
	.xword	0
	.xword	0
	.xword	0
	.xword	0
	.xword	0
	.xword	0
	.xword	__cfi_pch_emui_bootstat_proc_open
	.xword	0
	.xword	single_release
	.xword	0
	.xword	0
	.xword	0
	.xword	0
	.xword	0
	.xword	0
	.xword	0
	.xword	0
	.xword	0
	.xword	0
	.xword	0
	.xword	0
	.xword	0
	.xword	0
	.xword	0
	.size	pch_emui_boot_done_fops, 240
